
methane_sensor_v1.elf:     file format elf32-avr

Sections:
Idx Name          Size      VMA       LMA       File off  Algn
  0 .data         00000000  00800100  00800100  00001162  2**0
                  ALLOC, LOAD, DATA
  1 .text         000001d0  00000000  00000000  00000074  2**1
                  CONTENTS, ALLOC, LOAD, READONLY, CODE
  2 .bss          00000190  00800100  00800100  00001162  2**0
                  ALLOC
  3 .comment      0000005b  00000000  00000000  00001162  2**0
                  CONTENTS, READONLY
  4 .debug_aranges 000002a0  00000000  00000000  000011bd  2**0
                  CONTENTS, READONLY, DEBUGGING
  5 .debug_info   00003290  00000000  00000000  0000145d  2**0
                  CONTENTS, READONLY, DEBUGGING
  6 .debug_abbrev 00000fdb  00000000  00000000  000046ed  2**0
                  CONTENTS, READONLY, DEBUGGING
  7 .debug_line   000011d9  00000000  00000000  000056c8  2**0
                  CONTENTS, READONLY, DEBUGGING
  8 .debug_frame  00000698  00000000  00000000  000068a4  2**2
                  CONTENTS, READONLY, DEBUGGING
  9 .debug_str    00000316  00000000  00000000  00006f3c  2**0
                  CONTENTS, READONLY, DEBUGGING
 10 .debug_loc    00000f6f  00000000  00000000  00007252  2**0
                  CONTENTS, READONLY, DEBUGGING
 11 .debug_ranges 00000210  00000000  00000000  000081c1  2**0
                  CONTENTS, READONLY, DEBUGGING
 12 .text         00000004  000010ea  000010ea  0000115e  2**1
                  CONTENTS, ALLOC, LOAD, READONLY, CODE
 13 .note.gnu.avr.deviceinfo 00000040  00000000  00000000  000083d4  2**2
                  CONTENTS, READONLY, DEBUGGING
 14 .text.__vector_3 00000014  000010d0  000010d0  00001144  2**1
                  CONTENTS, ALLOC, LOAD, READONLY, CODE
 15 .text.__vector_16 0000004e  00000e5a  00000e5a  00000ece  2**1
                  CONTENTS, ALLOC, LOAD, READONLY, CODE
 16 .bss._cb      00000002  0080045c  0080045c  00001162  2**0
                  ALLOC
 17 .text.__vector_13 0000004e  00000ea8  00000ea8  00000f1c  2**1
                  CONTENTS, ALLOC, LOAD, READONLY, CODE
 18 .bss._cb      00000002  0080045e  0080045e  00001162  2**0
                  ALLOC
 19 .text.__vector_9 00000098  00000bdc  00000bdc  00000c50  2**1
                  CONTENTS, ALLOC, LOAD, READONLY, CODE
 20 .bss.cnt      00000001  00800460  00800460  00001162  2**0
                  ALLOC
 21 .bss.callbacks 0000000a  00800452  00800452  00001162  2**0
                  ALLOC
 22 .text.__vector_22 0000004a  00000ef6  00000ef6  00000f6a  2**1
                  CONTENTS, ALLOC, LOAD, READONLY, CODE
 23 .text.__vector_20 00000074  00000d76  00000d76  00000dea  2**1
                  CONTENTS, ALLOC, LOAD, READONLY, CODE
 24 .bss.rx_buffer_has_message 00000001  00800461  00800461  00001162  2**0
                  ALLOC
 25 .bss.rx_buffer_data_len 00000001  00800462  00800462  00001162  2**0
                  ALLOC
 26 .bss.tx_buffer_cursor 00000001  00800463  00800463  00001162  2**0
                  ALLOC
 27 .bss.tx_buffer_data_len 00000001  00800464  00800464  00001162  2**0
                  ALLOC
 28 .text.uart1_hal_init 0000003c  00000f8a  00000f8a  00000ffe  2**1
                  CONTENTS, ALLOC, LOAD, READONLY, CODE
 29 .text.uart1_hal_send_string 0000008a  00000c74  00000c74  00000ce8  2**1
                  CONTENTS, ALLOC, LOAD, READONLY, CODE
 30 .text.__vector_30 0000004a  00000f40  00000f40  00000fb4  2**1
                  CONTENTS, ALLOC, LOAD, READONLY, CODE
 31 .text.__vector_28 00000070  00000dea  00000dea  00000e5e  2**1
                  CONTENTS, ALLOC, LOAD, READONLY, CODE
 32 .bss.rx_buffer_has_message 00000001  00800465  00800465  00001162  2**0
                  ALLOC
 33 .bss.rx_buffer_data_len 00000001  00800466  00800466  00001162  2**0
                  ALLOC
 34 .bss.rx_buffer 00000096  008003bc  008003bc  00001162  2**0
                  ALLOC
 35 .bss.tx_buffer_cursor 00000001  00800467  00800467  00001162  2**0
                  ALLOC
 36 .bss.tx_buffer_data_len 00000001  00800468  00800468  00001162  2**0
                  ALLOC
 37 .bss.tx_buffer 0000012c  00800290  00800290  00001162  2**0
                  ALLOC
 38 .text.main    00000018  000010b8  000010b8  0000112c  2**1
                  CONTENTS, ALLOC, LOAD, READONLY, CODE
 39 .progmemx.data 00000054  000001d0  000001d0  00000244  2**0
                  CONTENTS, ALLOC, LOAD, READONLY, PROGMEMX
 40 .text.test_EEPROM_module_start 00000022  00001096  00001096  0000110a  2**1
                  CONTENTS, ALLOC, LOAD, READONLY, CODE
 41 .text.test_runner 00000006  000010e4  000010e4  00001158  2**1
                  CONTENTS, ALLOC, LOAD, READONLY, CODE
 42 .progmemx.data 00000008  00000224  00000224  00000298  2**0
                  CONTENTS, ALLOC, LOAD, READONLY, PROGMEMX
 43 .text.avrlibc 00000744  0000022c  0000022c  000002a0  2**1
                  CONTENTS, ALLOC, LOAD, READONLY, CODE
 44 .text.libgcc.prologue 00000038  00000fc6  00000fc6  0000103a  2**1
                  CONTENTS, ALLOC, LOAD, READONLY, CODE
 45 .text.libgcc.prologue 00000036  00000ffe  00000ffe  00001072  2**1
                  CONTENTS, ALLOC, LOAD, READONLY, CODE
 46 .text.avrlibc 000001b0  00000970  00000970  000009e4  2**1
                  CONTENTS, ALLOC, LOAD, READONLY, CODE
 47 .text.avrlibc 0000002c  0000106a  0000106a  000010de  2**1
                  CONTENTS, ALLOC, LOAD, READONLY, CODE
 48 .text.avrlibc 00000036  00001034  00001034  000010a8  2**1
                  CONTENTS, ALLOC, LOAD, READONLY, CODE
 49 .text.avrlibc 00000078  00000cfe  00000cfe  00000d72  2**1
                  CONTENTS, ALLOC, LOAD, READONLY, CODE
 50 .text.avrlibc 000000bc  00000b20  00000b20  00000b94  2**1
                  CONTENTS, ALLOC, LOAD, READONLY, CODE

Disassembly of section .text:

00000000 <__vectors>:
   0:	0c 94 be 00 	jmp	0x17c	; 0x17c <__ctors_end>
   4:	0c 94 75 08 	jmp	0x10ea	; 0x10ea <__bad_interrupt>
   8:	0c 94 75 08 	jmp	0x10ea	; 0x10ea <__bad_interrupt>
   c:	0c 94 68 08 	jmp	0x10d0	; 0x10d0 <__vector_3>
  10:	0c 94 75 08 	jmp	0x10ea	; 0x10ea <__bad_interrupt>
  14:	0c 94 75 08 	jmp	0x10ea	; 0x10ea <__bad_interrupt>
  18:	0c 94 75 08 	jmp	0x10ea	; 0x10ea <__bad_interrupt>
  1c:	0c 94 75 08 	jmp	0x10ea	; 0x10ea <__bad_interrupt>
  20:	0c 94 75 08 	jmp	0x10ea	; 0x10ea <__bad_interrupt>
  24:	0c 94 ee 05 	jmp	0xbdc	; 0xbdc <__vector_9>
  28:	0c 94 75 08 	jmp	0x10ea	; 0x10ea <__bad_interrupt>
  2c:	0c 94 75 08 	jmp	0x10ea	; 0x10ea <__bad_interrupt>
  30:	0c 94 75 08 	jmp	0x10ea	; 0x10ea <__bad_interrupt>
  34:	0c 94 54 07 	jmp	0xea8	; 0xea8 <__vector_13>
  38:	0c 94 75 08 	jmp	0x10ea	; 0x10ea <__bad_interrupt>
  3c:	0c 94 75 08 	jmp	0x10ea	; 0x10ea <__bad_interrupt>
  40:	0c 94 2d 07 	jmp	0xe5a	; 0xe5a <__vector_16>
  44:	0c 94 75 08 	jmp	0x10ea	; 0x10ea <__bad_interrupt>
  48:	0c 94 75 08 	jmp	0x10ea	; 0x10ea <__bad_interrupt>
  4c:	0c 94 75 08 	jmp	0x10ea	; 0x10ea <__bad_interrupt>
  50:	0c 94 bb 06 	jmp	0xd76	; 0xd76 <__vector_20>
  54:	0c 94 75 08 	jmp	0x10ea	; 0x10ea <__bad_interrupt>
  58:	0c 94 7b 07 	jmp	0xef6	; 0xef6 <__vector_22>
  5c:	0c 94 75 08 	jmp	0x10ea	; 0x10ea <__bad_interrupt>
  60:	0c 94 75 08 	jmp	0x10ea	; 0x10ea <__bad_interrupt>
  64:	0c 94 75 08 	jmp	0x10ea	; 0x10ea <__bad_interrupt>
  68:	0c 94 75 08 	jmp	0x10ea	; 0x10ea <__bad_interrupt>
  6c:	0c 94 75 08 	jmp	0x10ea	; 0x10ea <__bad_interrupt>
  70:	0c 94 f5 06 	jmp	0xdea	; 0xdea <__vector_28>
  74:	0c 94 75 08 	jmp	0x10ea	; 0x10ea <__bad_interrupt>
  78:	0c 94 a0 07 	jmp	0xf40	; 0xf40 <__vector_30>

0000007c <.dinit>:
  7c:	01 00       	.word	0x0001	; ????
  7e:	04 69       	ori	r16, 0x94	; 148
  80:	80 00       	.word	0x0080	; ????

00000082 <__trampolines_end>:
  82:	00 40       	sbci	r16, 0x00	; 0
  84:	7a 10       	cpse	r7, r10
  86:	f3 5a       	subi	r31, 0xA3	; 163
  88:	00 a0       	ldd	r0, Z+32	; 0x20
  8a:	72 4e       	sbci	r23, 0xE2	; 226
  8c:	18 09       	sbc	r17, r8
  8e:	00 10       	cpse	r0, r0
  90:	a5 d4       	rcall	.+2378   	; 0x9dc <__ftoa_engine+0x6c>
  92:	e8 00       	.word	0x00e8	; ????
  94:	00 e8       	ldi	r16, 0x80	; 128
  96:	76 48       	sbci	r23, 0x86	; 134
  98:	17 00       	.word	0x0017	; ????
  9a:	00 e4       	ldi	r16, 0x40	; 64
  9c:	0b 54       	subi	r16, 0x4B	; 75
  9e:	02 00       	.word	0x0002	; ????
  a0:	00 ca       	rjmp	.-3072   	; 0xfffff4a2 <__eeprom_end+0xff7ef4a2>
  a2:	9a 3b       	cpi	r25, 0xBA	; 186
  a4:	00 00       	nop
  a6:	00 e1       	ldi	r16, 0x10	; 16
  a8:	f5 05       	cpc	r31, r5
  aa:	00 00       	nop
  ac:	80 96       	adiw	r24, 0x20	; 32
  ae:	98 00       	.word	0x0098	; ????
  b0:	00 00       	nop
  b2:	40 42       	sbci	r20, 0x20	; 32
  b4:	0f 00       	.word	0x000f	; ????
  b6:	00 00       	nop
  b8:	a0 86       	std	Z+8, r10	; 0x08
  ba:	01 00       	.word	0x0001	; ????
  bc:	00 00       	nop
  be:	10 27       	eor	r17, r16
  c0:	00 00       	nop
  c2:	00 00       	nop
  c4:	e8 03       	fmulsu	r22, r16
  c6:	00 00       	nop
  c8:	00 00       	nop
  ca:	64 00       	.word	0x0064	; ????
  cc:	00 00       	nop
  ce:	00 00       	nop
  d0:	0a 00       	.word	0x000a	; ????
  d2:	00 00       	nop
  d4:	00 00       	nop
  d6:	01 00       	.word	0x0001	; ????
  d8:	00 00       	nop
  da:	00 00       	nop
  dc:	2c 76       	andi	r18, 0x6C	; 108
  de:	d8 88       	ldd	r13, Y+16	; 0x10
  e0:	dc 67       	ori	r29, 0x7C	; 124
  e2:	4f 08       	sbc	r4, r15
  e4:	23 df       	rcall	.-442    	; 0xffffff2c <__eeprom_end+0xff7eff2c>
  e6:	c1 df       	rcall	.-126    	; 0x6a <__SREG__+0x2b>
  e8:	ae 59       	subi	r26, 0x9E	; 158
  ea:	e1 b1       	in	r30, 0x01	; 1
  ec:	b7 96       	adiw	r30, 0x27	; 39
  ee:	e5 e3       	ldi	r30, 0x35	; 53
  f0:	e4 53       	subi	r30, 0x34	; 52
  f2:	c6 3a       	cpi	r28, 0xA6	; 166
  f4:	e6 51       	subi	r30, 0x16	; 22
  f6:	99 76       	andi	r25, 0x69	; 105
  f8:	96 e8       	ldi	r25, 0x86	; 134
  fa:	e6 c2       	rjmp	.+1484   	; 0x6c8 <__LOCK_REGION_LENGTH__+0x2c8>
  fc:	84 26       	eor	r8, r20
  fe:	eb 89       	ldd	r30, Y+19	; 0x13
 100:	8c 9b       	sbis	0x11, 4	; 17
 102:	62 ed       	ldi	r22, 0xD2	; 210
 104:	40 7c       	andi	r20, 0xC0	; 192
 106:	6f fc       	.word	0xfc6f	; ????
 108:	ef bc       	out	0x2f, r14	; 47
 10a:	9c 9f       	mul	r25, r28
 10c:	40 f2       	brcs	.-112    	; 0x9e <__trampolines_end+0x1c>
 10e:	ba a5       	ldd	r27, Y+42	; 0x2a
 110:	6f a5       	ldd	r22, Y+47	; 0x2f
 112:	f4 90       	lpm	r15, Z
 114:	05 5a       	subi	r16, 0xA5	; 165
 116:	2a f7       	brpl	.-54     	; 0xe2 <__trampolines_end+0x60>
 118:	5c 93       	st	X, r21
 11a:	6b 6c       	ori	r22, 0xCB	; 203
 11c:	f9 67       	ori	r31, 0x79	; 121
 11e:	6d c1       	rjmp	.+730    	; 0x3fa <vfprintf+0x1ce>
 120:	1b fc       	.word	0xfc1b	; ????
 122:	e0 e4       	ldi	r30, 0x40	; 64
 124:	0d 47       	sbci	r16, 0x7D	; 125
 126:	fe f5       	brtc	.+126    	; 0x1a6 <__do_copy_data+0x1e>
 128:	20 e6       	ldi	r18, 0x60	; 96
 12a:	b5 00       	.word	0x00b5	; ????
 12c:	d0 ed       	ldi	r29, 0xD0	; 208
 12e:	90 2e       	mov	r9, r16
 130:	03 00       	.word	0x0003	; ????
 132:	94 35       	cpi	r25, 0x54	; 84
 134:	77 05       	cpc	r23, r7
 136:	00 80       	ld	r0, Z
 138:	84 1e       	adc	r8, r20
 13a:	08 00       	.word	0x0008	; ????
 13c:	00 20       	and	r0, r0
 13e:	4e 0a       	sbc	r4, r30
 140:	00 00       	nop
 142:	00 c8       	rjmp	.-4096   	; 0xfffff144 <__eeprom_end+0xff7ef144>
 144:	0c 33       	cpi	r16, 0x3C	; 60
 146:	33 33       	cpi	r19, 0x33	; 51
 148:	33 0f       	add	r19, r19
 14a:	98 6e       	ori	r25, 0xE8	; 232
 14c:	12 83       	std	Z+2, r17	; 0x02
 14e:	11 41       	sbci	r17, 0x11	; 17
 150:	ef 8d       	ldd	r30, Y+31	; 0x1f
 152:	21 14       	cp	r2, r1
 154:	89 3b       	cpi	r24, 0xB9	; 185
 156:	e6 55       	subi	r30, 0x56	; 86
 158:	16 cf       	rjmp	.-468    	; 0xffffff86 <__eeprom_end+0xff7eff86>
 15a:	fe e6       	ldi	r31, 0x6E	; 110
 15c:	db 18       	sub	r13, r11
 15e:	d1 84       	ldd	r13, Z+9	; 0x09
 160:	4b 38       	cpi	r20, 0x8B	; 139
 162:	1b f7       	brvc	.-58     	; 0x12a <__trampolines_end+0xa8>
 164:	7c 1d       	adc	r23, r12
 166:	90 1d       	adc	r25, r0
 168:	a4 bb       	out	0x14, r26	; 20
 16a:	e4 24       	eor	r14, r4
 16c:	20 32       	cpi	r18, 0x20	; 32
 16e:	84 72       	andi	r24, 0x24	; 36
 170:	5e 22       	and	r5, r30
 172:	81 00       	.word	0x0081	; ????
 174:	c9 f1       	breq	.+114    	; 0x1e8 <_etext+0x18>
 176:	24 ec       	ldi	r18, 0xC4	; 196
 178:	a1 e5       	ldi	r26, 0x51	; 81
 17a:	3d 27       	eor	r19, r29

0000017c <__ctors_end>:
 17c:	11 24       	eor	r1, r1
 17e:	1f be       	out	0x3f, r1	; 63
 180:	cf ef       	ldi	r28, 0xFF	; 255
 182:	d0 e1       	ldi	r29, 0x10	; 16
 184:	de bf       	out	0x3e, r29	; 62
 186:	cd bf       	out	0x3d, r28	; 61

00000188 <__do_copy_data>:
 188:	ec e7       	ldi	r30, 0x7C	; 124
 18a:	f0 e0       	ldi	r31, 0x00	; 0
 18c:	40 e0       	ldi	r20, 0x00	; 0
 18e:	17 c0       	rjmp	.+46     	; 0x1be <__do_clear_bss+0x8>
 190:	b5 91       	lpm	r27, Z+
 192:	a5 91       	lpm	r26, Z+
 194:	35 91       	lpm	r19, Z+
 196:	25 91       	lpm	r18, Z+
 198:	05 91       	lpm	r16, Z+
 19a:	07 fd       	sbrc	r16, 7
 19c:	0c c0       	rjmp	.+24     	; 0x1b6 <__do_clear_bss>
 19e:	95 91       	lpm	r25, Z+
 1a0:	85 91       	lpm	r24, Z+
 1a2:	ef 01       	movw	r28, r30
 1a4:	f9 2f       	mov	r31, r25
 1a6:	e8 2f       	mov	r30, r24
 1a8:	05 90       	lpm	r0, Z+
 1aa:	0d 92       	st	X+, r0
 1ac:	a2 17       	cp	r26, r18
 1ae:	b3 07       	cpc	r27, r19
 1b0:	d9 f7       	brne	.-10     	; 0x1a8 <__do_copy_data+0x20>
 1b2:	fe 01       	movw	r30, r28
 1b4:	04 c0       	rjmp	.+8      	; 0x1be <__do_clear_bss+0x8>

000001b6 <__do_clear_bss>:
 1b6:	1d 92       	st	X+, r1
 1b8:	a2 17       	cp	r26, r18
 1ba:	b3 07       	cpc	r27, r19
 1bc:	e1 f7       	brne	.-8      	; 0x1b6 <__do_clear_bss>
 1be:	e1 38       	cpi	r30, 0x81	; 129
 1c0:	f4 07       	cpc	r31, r20
 1c2:	31 f7       	brne	.-52     	; 0x190 <__do_copy_data+0x8>
 1c4:	0e 94 5c 08 	call	0x10b8	; 0x10b8 <main>
 1c8:	0c 94 e6 00 	jmp	0x1cc	; 0x1cc <_exit>

000001cc <_exit>:
 1cc:	f8 94       	cli

000001ce <__stop_program>:
 1ce:	ff cf       	rjmp	.-2      	; 0x1ce <__stop_program>

Disassembly of section .text:

000010ea <__bad_interrupt>:
    10ea:	0c 94 00 00 	jmp	0	; 0x0 <__vectors>

Disassembly of section .text.__vector_3:

000010d0 <__vector_3>:
	sleep_cpu();
	sleep_disable();
	clear_bit(EIMSK, 2);
}

ISR(INT2_vect){
    10d0:	1f 92       	push	r1
    10d2:	0f 92       	push	r0
    10d4:	0f b6       	in	r0, 0x3f	; 63
    10d6:	0f 92       	push	r0
    10d8:	11 24       	eor	r1, r1
	
}
    10da:	0f 90       	pop	r0
    10dc:	0f be       	out	0x3f, r0	; 63
    10de:	0f 90       	pop	r0
    10e0:	1f 90       	pop	r1
    10e2:	18 95       	reti

Disassembly of section .text.__vector_16:

00000e5a <__vector_16>:

void TC0_HAL_stop(){
	TCCR0B=0x00; 
}

ISR(TIMER0_COMPA_vect){
 e5a:	1f 92       	push	r1
 e5c:	0f 92       	push	r0
 e5e:	0f b6       	in	r0, 0x3f	; 63
 e60:	0f 92       	push	r0
 e62:	11 24       	eor	r1, r1
 e64:	2f 93       	push	r18
 e66:	3f 93       	push	r19
 e68:	4f 93       	push	r20
 e6a:	5f 93       	push	r21
 e6c:	6f 93       	push	r22
 e6e:	7f 93       	push	r23
 e70:	8f 93       	push	r24
 e72:	9f 93       	push	r25
 e74:	af 93       	push	r26
 e76:	bf 93       	push	r27
 e78:	ef 93       	push	r30
 e7a:	ff 93       	push	r31
	_cb();
 e7c:	e0 91 5c 04 	lds	r30, 0x045C	; 0x80045c <_cb>
 e80:	f0 91 5d 04 	lds	r31, 0x045D	; 0x80045d <_cb+0x1>
 e84:	09 95       	icall
}
 e86:	ff 91       	pop	r31
 e88:	ef 91       	pop	r30
 e8a:	bf 91       	pop	r27
 e8c:	af 91       	pop	r26
 e8e:	9f 91       	pop	r25
 e90:	8f 91       	pop	r24
 e92:	7f 91       	pop	r23
 e94:	6f 91       	pop	r22
 e96:	5f 91       	pop	r21
 e98:	4f 91       	pop	r20
 e9a:	3f 91       	pop	r19
 e9c:	2f 91       	pop	r18
 e9e:	0f 90       	pop	r0
 ea0:	0f be       	out	0x3f, r0	; 63
 ea2:	0f 90       	pop	r0
 ea4:	1f 90       	pop	r1
 ea6:	18 95       	reti

Disassembly of section .text.__vector_13:

00000ea8 <__vector_13>:

void TC1_HAL_stop(){
	clear_byte(TCCR1B, 0b00000111);
}

ISR(TIMER1_COMPA_vect){
 ea8:	1f 92       	push	r1
 eaa:	0f 92       	push	r0
 eac:	0f b6       	in	r0, 0x3f	; 63
 eae:	0f 92       	push	r0
 eb0:	11 24       	eor	r1, r1
 eb2:	2f 93       	push	r18
 eb4:	3f 93       	push	r19
 eb6:	4f 93       	push	r20
 eb8:	5f 93       	push	r21
 eba:	6f 93       	push	r22
 ebc:	7f 93       	push	r23
 ebe:	8f 93       	push	r24
 ec0:	9f 93       	push	r25
 ec2:	af 93       	push	r26
 ec4:	bf 93       	push	r27
 ec6:	ef 93       	push	r30
 ec8:	ff 93       	push	r31
	_cb();
 eca:	e0 91 5e 04 	lds	r30, 0x045E	; 0x80045e <_cb>
 ece:	f0 91 5f 04 	lds	r31, 0x045F	; 0x80045f <_cb+0x1>
 ed2:	09 95       	icall
 ed4:	ff 91       	pop	r31
 ed6:	ef 91       	pop	r30
 ed8:	bf 91       	pop	r27
 eda:	af 91       	pop	r26
 edc:	9f 91       	pop	r25
 ede:	8f 91       	pop	r24
 ee0:	7f 91       	pop	r23
 ee2:	6f 91       	pop	r22
 ee4:	5f 91       	pop	r21
 ee6:	4f 91       	pop	r20
 ee8:	3f 91       	pop	r19
 eea:	2f 91       	pop	r18
 eec:	0f 90       	pop	r0
 eee:	0f be       	out	0x3f, r0	; 63
 ef0:	0f 90       	pop	r0
 ef2:	1f 90       	pop	r1
 ef4:	18 95       	reti

Disassembly of section .text.__vector_9:

00000bdc <__vector_9>:
	if(cbCounter==0){
		stop_timer();		
	}
}

ISR(TIMER2_COMPA_vect){
 bdc:	1f 92       	push	r1
 bde:	0f 92       	push	r0
 be0:	0f b6       	in	r0, 0x3f	; 63
 be2:	0f 92       	push	r0
 be4:	11 24       	eor	r1, r1
 be6:	2f 93       	push	r18
 be8:	3f 93       	push	r19
 bea:	4f 93       	push	r20
 bec:	5f 93       	push	r21
 bee:	6f 93       	push	r22
 bf0:	7f 93       	push	r23
 bf2:	8f 93       	push	r24
 bf4:	9f 93       	push	r25
 bf6:	af 93       	push	r26
 bf8:	bf 93       	push	r27
 bfa:	cf 93       	push	r28
 bfc:	ef 93       	push	r30
 bfe:	ff 93       	push	r31
	cnt++;
 c00:	90 91 60 04 	lds	r25, 0x0460	; 0x800460 <cnt>
 c04:	9f 5f       	subi	r25, 0xFF	; 255
 c06:	90 93 60 04 	sts	0x0460, r25	; 0x800460 <cnt>
	
	if(cnt % 31==0){
 c0a:	89 e0       	ldi	r24, 0x09	; 9
 c0c:	98 9f       	mul	r25, r24
 c0e:	21 2d       	mov	r18, r1
 c10:	11 24       	eor	r1, r1
 c12:	89 2f       	mov	r24, r25
 c14:	82 1b       	sub	r24, r18
 c16:	86 95       	lsr	r24
 c18:	82 0f       	add	r24, r18
 c1a:	82 95       	swap	r24
 c1c:	8f 70       	andi	r24, 0x0F	; 15
 c1e:	2f e1       	ldi	r18, 0x1F	; 31
 c20:	82 9f       	mul	r24, r18
 c22:	90 19       	sub	r25, r0
 c24:	11 24       	eor	r1, r1
 c26:	91 11       	cpse	r25, r1
 c28:	13 c0       	rjmp	.+38     	; 0xc50 <__vector_9+0x74>
		cnt=0;
 c2a:	10 92 60 04 	sts	0x0460, r1	; 0x800460 <cnt>
		for (uint8_t i=0; i<MAX_CALLBACKS; i++)
 c2e:	c0 e0       	ldi	r28, 0x00	; 0
 c30:	0d c0       	rjmp	.+26     	; 0xc4c <__vector_9+0x70>
		{
			if(callbacks[i]!=NULL){
 c32:	ec 2f       	mov	r30, r28
 c34:	f0 e0       	ldi	r31, 0x00	; 0
 c36:	ee 0f       	add	r30, r30
 c38:	ff 1f       	adc	r31, r31
 c3a:	ee 5a       	subi	r30, 0xAE	; 174
 c3c:	fb 4f       	sbci	r31, 0xFB	; 251
 c3e:	01 90       	ld	r0, Z+
 c40:	f0 81       	ld	r31, Z
 c42:	e0 2d       	mov	r30, r0
 c44:	30 97       	sbiw	r30, 0x00	; 0
 c46:	09 f0       	breq	.+2      	; 0xc4a <__vector_9+0x6e>
				callbacks[i]();
 c48:	09 95       	icall
ISR(TIMER2_COMPA_vect){
	cnt++;
	
	if(cnt % 31==0){
		cnt=0;
		for (uint8_t i=0; i<MAX_CALLBACKS; i++)
 c4a:	cf 5f       	subi	r28, 0xFF	; 255
 c4c:	c5 30       	cpi	r28, 0x05	; 5
 c4e:	88 f3       	brcs	.-30     	; 0xc32 <__vector_9+0x56>
			if(callbacks[i]!=NULL){
				callbacks[i]();
			}
		}
	}
}
 c50:	ff 91       	pop	r31
 c52:	ef 91       	pop	r30
 c54:	cf 91       	pop	r28
 c56:	bf 91       	pop	r27
 c58:	af 91       	pop	r26
 c5a:	9f 91       	pop	r25
 c5c:	8f 91       	pop	r24
 c5e:	7f 91       	pop	r23
 c60:	6f 91       	pop	r22
 c62:	5f 91       	pop	r21
 c64:	4f 91       	pop	r20
 c66:	3f 91       	pop	r19
 c68:	2f 91       	pop	r18
 c6a:	0f 90       	pop	r0
 c6c:	0f be       	out	0x3f, r0	; 63
 c6e:	0f 90       	pop	r0
 c70:	1f 90       	pop	r1
 c72:	18 95       	reti

Disassembly of section .text.__vector_22:

00000ef6 <__vector_22>:


/************************************************************************/
/* Write data complete vect                                             */
/************************************************************************/
ISR(USART0_TX_vect){
 ef6:	1f 92       	push	r1
 ef8:	0f 92       	push	r0
 efa:	0f b6       	in	r0, 0x3f	; 63
 efc:	0f 92       	push	r0
 efe:	11 24       	eor	r1, r1
 f00:	8f 93       	push	r24
 f02:	ef 93       	push	r30
 f04:	ff 93       	push	r31
	if(tx_buffer_cursor<tx_buffer_data_len){
 f06:	e0 91 63 04 	lds	r30, 0x0463	; 0x800463 <tx_buffer_cursor>
 f0a:	80 91 64 04 	lds	r24, 0x0464	; 0x800464 <tx_buffer_data_len>
 f0e:	e8 17       	cp	r30, r24
 f10:	58 f4       	brcc	.+22     	; 0xf28 <__vector_22+0x32>
		UDR0=tx_buffer[tx_buffer_cursor++];
 f12:	81 e0       	ldi	r24, 0x01	; 1
 f14:	8e 0f       	add	r24, r30
 f16:	80 93 63 04 	sts	0x0463, r24	; 0x800463 <tx_buffer_cursor>
 f1a:	f0 e0       	ldi	r31, 0x00	; 0
 f1c:	ec 59       	subi	r30, 0x9C	; 156
 f1e:	fe 4f       	sbci	r31, 0xFE	; 254
 f20:	80 81       	ld	r24, Z
 f22:	80 93 c6 00 	sts	0x00C6, r24	; 0x8000c6 <__TEXT_REGION_LENGTH__+0x7f00c6>
 f26:	04 c0       	rjmp	.+8      	; 0xf30 <__vector_22+0x3a>
	}else{
		tx_buffer_cursor=0;
 f28:	10 92 63 04 	sts	0x0463, r1	; 0x800463 <tx_buffer_cursor>
		tx_buffer_data_len=0;
 f2c:	10 92 64 04 	sts	0x0464, r1	; 0x800464 <tx_buffer_data_len>
	}
}
 f30:	ff 91       	pop	r31
 f32:	ef 91       	pop	r30
 f34:	8f 91       	pop	r24
 f36:	0f 90       	pop	r0
 f38:	0f be       	out	0x3f, r0	; 63
 f3a:	0f 90       	pop	r0
 f3c:	1f 90       	pop	r1
 f3e:	18 95       	reti

Disassembly of section .text.__vector_20:

00000d76 <__vector_20>:
	set_bit(UCSR0B, 3); //Enable Tx
	
	uint8_t data[1];
	data[0]=followUpByte;
	uart0_hal_send_message(data, 1);
}
 d76:	1f 92       	push	r1
 d78:	0f 92       	push	r0
 d7a:	0f b6       	in	r0, 0x3f	; 63
 d7c:	0f 92       	push	r0
 d7e:	11 24       	eor	r1, r1
 d80:	2f 93       	push	r18
 d82:	8f 93       	push	r24
 d84:	9f 93       	push	r25
 d86:	ef 93       	push	r30
 d88:	ff 93       	push	r31
 d8a:	80 91 61 04 	lds	r24, 0x0461	; 0x800461 <rx_buffer_has_message>
 d8e:	81 11       	cpse	r24, r1
 d90:	0e c0       	rjmp	.+28     	; 0xdae <__vector_20+0x38>
 d92:	e0 91 62 04 	lds	r30, 0x0462	; 0x800462 <rx_buffer_data_len>
 d96:	e4 36       	cpi	r30, 0x64	; 100
 d98:	50 f4       	brcc	.+20     	; 0xdae <__vector_20+0x38>
 d9a:	81 e0       	ldi	r24, 0x01	; 1
 d9c:	8e 0f       	add	r24, r30
 d9e:	80 93 62 04 	sts	0x0462, r24	; 0x800462 <rx_buffer_data_len>
 da2:	f0 e0       	ldi	r31, 0x00	; 0
 da4:	80 91 c6 00 	lds	r24, 0x00C6	; 0x8000c6 <__TEXT_REGION_LENGTH__+0x7f00c6>
 da8:	e0 50       	subi	r30, 0x00	; 0
 daa:	ff 4f       	sbci	r31, 0xFF	; 255
 dac:	80 83       	st	Z, r24
 dae:	80 91 62 04 	lds	r24, 0x0462	; 0x800462 <rx_buffer_data_len>
 db2:	83 30       	cpi	r24, 0x03	; 3
 db4:	80 f0       	brcs	.+32     	; 0xdd6 <__vector_20+0x60>
 db6:	90 e0       	ldi	r25, 0x00	; 0
 db8:	fc 01       	movw	r30, r24
 dba:	e1 50       	subi	r30, 0x01	; 1
 dbc:	ff 4f       	sbci	r31, 0xFF	; 255
 dbe:	20 81       	ld	r18, Z
 dc0:	2a 30       	cpi	r18, 0x0A	; 10
 dc2:	49 f4       	brne	.+18     	; 0xdd6 <__vector_20+0x60>
 dc4:	fc 01       	movw	r30, r24
 dc6:	e2 50       	subi	r30, 0x02	; 2
 dc8:	ff 4f       	sbci	r31, 0xFF	; 255
 dca:	80 81       	ld	r24, Z
 dcc:	8d 30       	cpi	r24, 0x0D	; 13
 dce:	19 f4       	brne	.+6      	; 0xdd6 <__vector_20+0x60>
 dd0:	81 e0       	ldi	r24, 0x01	; 1
 dd2:	80 93 61 04 	sts	0x0461, r24	; 0x800461 <rx_buffer_has_message>
 dd6:	ff 91       	pop	r31
 dd8:	ef 91       	pop	r30
 dda:	9f 91       	pop	r25
 ddc:	8f 91       	pop	r24
 dde:	2f 91       	pop	r18
 de0:	0f 90       	pop	r0
 de2:	0f be       	out	0x3f, r0	; 63
 de4:	0f 90       	pop	r0
 de6:	1f 90       	pop	r1
 de8:	18 95       	reti

Disassembly of section .text.uart1_hal_init:

00000f8a <uart1_hal_init>:
static uint8_t rx_buffer[UART1_RX_BUFF_LENGTH];
static uint8_t rx_buffer_data_len=0;
static uint8_t rx_buffer_has_message=0;

void uart1_hal_init(){
	set_bit(UCSR1B, 4); //Enable Rx
 f8a:	e9 ec       	ldi	r30, 0xC9	; 201
 f8c:	f0 e0       	ldi	r31, 0x00	; 0
 f8e:	80 81       	ld	r24, Z
 f90:	80 61       	ori	r24, 0x10	; 16
 f92:	80 83       	st	Z, r24
	set_bit(UCSR1B, 3); //Enable Tx
 f94:	80 81       	ld	r24, Z
 f96:	88 60       	ori	r24, 0x08	; 8
 f98:	80 83       	st	Z, r24
	set_bit(UCSR1B, 7); //interrupt Rx complete
 f9a:	80 81       	ld	r24, Z
 f9c:	80 68       	ori	r24, 0x80	; 128
 f9e:	80 83       	st	Z, r24
	set_bit(UCSR1B, 6); //interrupt Tx complete
 fa0:	80 81       	ld	r24, Z
 fa2:	80 64       	ori	r24, 0x40	; 64
 fa4:	80 83       	st	Z, r24
	set_bit(UCSR1A, 1); //Set double speed
 fa6:	e8 ec       	ldi	r30, 0xC8	; 200
 fa8:	f0 e0       	ldi	r31, 0x00	; 0
 faa:	80 81       	ld	r24, Z
 fac:	82 60       	ori	r24, 0x02	; 2
 fae:	80 83       	st	Z, r24
	UCSR1C = 0b00000110; //Async, none parity, 1 stop bit, 8 databit
 fb0:	86 e0       	ldi	r24, 0x06	; 6
 fb2:	80 93 ca 00 	sts	0x00CA, r24	; 0x8000ca <__TEXT_REGION_LENGTH__+0x7f00ca>
	UBRR1=(8000000/(8*57600))-1; //set baudrate
 fb6:	80 e1       	ldi	r24, 0x10	; 16
 fb8:	90 e0       	ldi	r25, 0x00	; 0
 fba:	90 93 cd 00 	sts	0x00CD, r25	; 0x8000cd <__TEXT_REGION_LENGTH__+0x7f00cd>
 fbe:	80 93 cc 00 	sts	0x00CC, r24	; 0x8000cc <__TEXT_REGION_LENGTH__+0x7f00cc>
	sei();
 fc2:	78 94       	sei
 fc4:	08 95       	ret

Disassembly of section .text.uart1_hal_send_string:

00000c74 <uart1_hal_send_string>:
static void copy_buffer(uint8_t msg[]){
	for (uint8_t i=0; i<rx_buffer_data_len-2; i++)
	{
		msg[i]=rx_buffer[i];
	}
}
 c74:	6f 92       	push	r6
 c76:	7f 92       	push	r7
 c78:	8f 92       	push	r8
 c7a:	cf 92       	push	r12
 c7c:	df 92       	push	r13
 c7e:	ef 92       	push	r14
 c80:	3b 01       	movw	r6, r22
 c82:	88 2e       	mov	r8, r24
 c84:	80 91 68 04 	lds	r24, 0x0468	; 0x800468 <tx_buffer_data_len>
 c88:	81 11       	cpse	r24, r1
 c8a:	fc cf       	rjmp	.-8      	; 0xc84 <uart1_hal_send_string+0x10>
 c8c:	88 2d       	mov	r24, r8
 c8e:	b3 01       	movw	r22, r6
 c90:	0e 94 35 08 	call	0x106a	; 0x106a <strlen>
 c94:	bc 01       	movw	r22, r24
 c96:	90 e0       	ldi	r25, 0x00	; 0
 c98:	12 c0       	rjmp	.+36     	; 0xcbe <uart1_hal_send_string+0x4a>
 c9a:	29 2f       	mov	r18, r25
 c9c:	30 e0       	ldi	r19, 0x00	; 0
 c9e:	e8 2c       	mov	r14, r8
 ca0:	63 01       	movw	r12, r6
 ca2:	c4 0e       	add	r12, r20
 ca4:	d5 1e       	adc	r13, r21
 ca6:	e1 1c       	adc	r14, r1
 ca8:	57 fd       	sbrc	r21, 7
 caa:	ea 94       	dec	r14
 cac:	f6 01       	movw	r30, r12
 cae:	44 91       	lpm	r20, Z
 cb0:	e7 fc       	sbrc	r14, 7
 cb2:	40 81       	ld	r20, Z
 cb4:	f9 01       	movw	r30, r18
 cb6:	e0 57       	subi	r30, 0x70	; 112
 cb8:	fd 4f       	sbci	r31, 0xFD	; 253
 cba:	40 83       	st	Z, r20
 cbc:	9f 5f       	subi	r25, 0xFF	; 255
 cbe:	49 2f       	mov	r20, r25
 cc0:	50 e0       	ldi	r21, 0x00	; 0
 cc2:	46 17       	cp	r20, r22
 cc4:	57 07       	cpc	r21, r23
 cc6:	48 f3       	brcs	.-46     	; 0xc9a <uart1_hal_send_string+0x26>
 cc8:	fb 01       	movw	r30, r22
 cca:	e0 57       	subi	r30, 0x70	; 112
 ccc:	fd 4f       	sbci	r31, 0xFD	; 253
 cce:	8d e0       	ldi	r24, 0x0D	; 13
 cd0:	80 83       	st	Z, r24
 cd2:	fb 01       	movw	r30, r22
 cd4:	ef 56       	subi	r30, 0x6F	; 111
 cd6:	fd 4f       	sbci	r31, 0xFD	; 253
 cd8:	8a e0       	ldi	r24, 0x0A	; 10
 cda:	80 83       	st	Z, r24
 cdc:	6e 5f       	subi	r22, 0xFE	; 254
 cde:	60 93 68 04 	sts	0x0468, r22	; 0x800468 <tx_buffer_data_len>
 ce2:	81 e0       	ldi	r24, 0x01	; 1
 ce4:	80 93 67 04 	sts	0x0467, r24	; 0x800467 <tx_buffer_cursor>
 ce8:	80 91 90 02 	lds	r24, 0x0290	; 0x800290 <_end>
 cec:	80 93 ce 00 	sts	0x00CE, r24	; 0x8000ce <__TEXT_REGION_LENGTH__+0x7f00ce>
 cf0:	ef 90       	pop	r14
 cf2:	df 90       	pop	r13
 cf4:	cf 90       	pop	r12
 cf6:	8f 90       	pop	r8
 cf8:	7f 90       	pop	r7
 cfa:	6f 90       	pop	r6
 cfc:	08 95       	ret

Disassembly of section .text.__vector_30:

00000f40 <__vector_30>:
 f40:	1f 92       	push	r1
 f42:	0f 92       	push	r0
 f44:	0f b6       	in	r0, 0x3f	; 63
 f46:	0f 92       	push	r0
 f48:	11 24       	eor	r1, r1
 f4a:	8f 93       	push	r24
 f4c:	ef 93       	push	r30
 f4e:	ff 93       	push	r31
 f50:	e0 91 67 04 	lds	r30, 0x0467	; 0x800467 <tx_buffer_cursor>
 f54:	80 91 68 04 	lds	r24, 0x0468	; 0x800468 <tx_buffer_data_len>
 f58:	e8 17       	cp	r30, r24
 f5a:	58 f4       	brcc	.+22     	; 0xf72 <__vector_30+0x32>
 f5c:	81 e0       	ldi	r24, 0x01	; 1
 f5e:	8e 0f       	add	r24, r30
 f60:	80 93 67 04 	sts	0x0467, r24	; 0x800467 <tx_buffer_cursor>
 f64:	f0 e0       	ldi	r31, 0x00	; 0
 f66:	e0 57       	subi	r30, 0x70	; 112
 f68:	fd 4f       	sbci	r31, 0xFD	; 253
 f6a:	80 81       	ld	r24, Z
 f6c:	80 93 ce 00 	sts	0x00CE, r24	; 0x8000ce <__TEXT_REGION_LENGTH__+0x7f00ce>
 f70:	04 c0       	rjmp	.+8      	; 0xf7a <__vector_30+0x3a>
 f72:	10 92 67 04 	sts	0x0467, r1	; 0x800467 <tx_buffer_cursor>
 f76:	10 92 68 04 	sts	0x0468, r1	; 0x800468 <tx_buffer_data_len>
 f7a:	ff 91       	pop	r31
 f7c:	ef 91       	pop	r30
 f7e:	8f 91       	pop	r24
 f80:	0f 90       	pop	r0
 f82:	0f be       	out	0x3f, r0	; 63
 f84:	0f 90       	pop	r0
 f86:	1f 90       	pop	r1
 f88:	18 95       	reti

Disassembly of section .text.__vector_28:

00000dea <__vector_28>:
 dea:	1f 92       	push	r1
 dec:	0f 92       	push	r0
 dee:	0f b6       	in	r0, 0x3f	; 63
 df0:	0f 92       	push	r0
 df2:	11 24       	eor	r1, r1
 df4:	2f 93       	push	r18
 df6:	8f 93       	push	r24
 df8:	9f 93       	push	r25
 dfa:	ef 93       	push	r30
 dfc:	ff 93       	push	r31
 dfe:	80 91 65 04 	lds	r24, 0x0465	; 0x800465 <rx_buffer_has_message>
 e02:	81 11       	cpse	r24, r1
 e04:	0e c0       	rjmp	.+28     	; 0xe22 <__vector_28+0x38>
 e06:	e0 91 66 04 	lds	r30, 0x0466	; 0x800466 <rx_buffer_data_len>
 e0a:	e6 39       	cpi	r30, 0x96	; 150
 e0c:	50 f4       	brcc	.+20     	; 0xe22 <__vector_28+0x38>
 e0e:	81 e0       	ldi	r24, 0x01	; 1
 e10:	8e 0f       	add	r24, r30
 e12:	80 93 66 04 	sts	0x0466, r24	; 0x800466 <rx_buffer_data_len>
 e16:	f0 e0       	ldi	r31, 0x00	; 0
 e18:	80 91 ce 00 	lds	r24, 0x00CE	; 0x8000ce <__TEXT_REGION_LENGTH__+0x7f00ce>
 e1c:	e4 54       	subi	r30, 0x44	; 68
 e1e:	fc 4f       	sbci	r31, 0xFC	; 252
 e20:	80 83       	st	Z, r24
 e22:	80 91 66 04 	lds	r24, 0x0466	; 0x800466 <rx_buffer_data_len>
 e26:	90 e0       	ldi	r25, 0x00	; 0
 e28:	fc 01       	movw	r30, r24
 e2a:	e5 54       	subi	r30, 0x45	; 69
 e2c:	fc 4f       	sbci	r31, 0xFC	; 252
 e2e:	20 81       	ld	r18, Z
 e30:	2a 30       	cpi	r18, 0x0A	; 10
 e32:	49 f4       	brne	.+18     	; 0xe46 <__vector_28+0x5c>
 e34:	fc 01       	movw	r30, r24
 e36:	e6 54       	subi	r30, 0x46	; 70
 e38:	fc 4f       	sbci	r31, 0xFC	; 252
 e3a:	80 81       	ld	r24, Z
 e3c:	8d 30       	cpi	r24, 0x0D	; 13
 e3e:	19 f4       	brne	.+6      	; 0xe46 <__vector_28+0x5c>
 e40:	81 e0       	ldi	r24, 0x01	; 1
 e42:	80 93 65 04 	sts	0x0465, r24	; 0x800465 <rx_buffer_has_message>
 e46:	ff 91       	pop	r31
 e48:	ef 91       	pop	r30
 e4a:	9f 91       	pop	r25
 e4c:	8f 91       	pop	r24
 e4e:	2f 91       	pop	r18
 e50:	0f 90       	pop	r0
 e52:	0f be       	out	0x3f, r0	; 63
 e54:	0f 90       	pop	r0
 e56:	1f 90       	pop	r1
 e58:	18 95       	reti

Disassembly of section .text.main:

000010b8 <main>:
#include "PROGRAMS/MAINPG/MAINPG.h"
#include "PROGRAMS/CONFIG_MODE/CONFIG_MODE.h"

int main(void)
{
	test_runner();
    10b8:	0e 94 72 08 	call	0x10e4	; 0x10e4 <test_runner>
	#else
		//round up by default
		__ticks_dc = (uint32_t)(ceil(fabs(__tmp)));
	#endif

	__builtin_avr_delay_cycles(__ticks_dc);
    10bc:	2f ef       	ldi	r18, 0xFF	; 255
    10be:	8d e3       	ldi	r24, 0x3D	; 61
    10c0:	99 e4       	ldi	r25, 0x49	; 73
    10c2:	21 50       	subi	r18, 0x01	; 1
    10c4:	80 40       	sbci	r24, 0x00	; 0
    10c6:	90 40       	sbci	r25, 0x00	; 0
    10c8:	e1 f7       	brne	.-8      	; 0x10c2 <main+0xa>
    10ca:	00 c0       	rjmp	.+0      	; 0x10cc <main+0x14>
    10cc:	00 00       	nop
    10ce:	f6 cf       	rjmp	.-20     	; 0x10bc <main+0x4>

Disassembly of section .text.test_EEPROM_module_start:

00001096 <test_EEPROM_module_start>:
void test_set_get_parameter();
static void set_get_float();
static void set_get_collections();

void test_EEPROM_module_start(){
	uart1_hal_init();
    1096:	0e 94 c5 07 	call	0xf8a	; 0xf8a <uart1_hal_init>
	uart1_hal_send_string("Init ");
    109a:	60 ed       	ldi	r22, 0xD0	; 208
    109c:	71 e0       	ldi	r23, 0x01	; 1
    109e:	80 e0       	ldi	r24, 0x00	; 0
    10a0:	0e 94 3a 06 	call	0xc74	; 0xc74 <uart1_hal_send_string>
    10a4:	2f ef       	ldi	r18, 0xFF	; 255
    10a6:	81 e1       	ldi	r24, 0x11	; 17
    10a8:	9a e7       	ldi	r25, 0x7A	; 122
    10aa:	21 50       	subi	r18, 0x01	; 1
    10ac:	80 40       	sbci	r24, 0x00	; 0
    10ae:	90 40       	sbci	r25, 0x00	; 0
    10b0:	e1 f7       	brne	.-8      	; 0x10aa <test_EEPROM_module_start+0x14>
    10b2:	00 c0       	rjmp	.+0      	; 0x10b4 <test_EEPROM_module_start+0x1e>
    10b4:	00 00       	nop
    10b6:	f6 cf       	rjmp	.-20     	; 0x10a4 <test_EEPROM_module_start+0xe>

Disassembly of section .text.test_runner:

000010e4 <test_runner>:

void test_runner(){
	//test_lora_module_start();
	//test_SCD30_module_start();
	//test_PM_HAL_start();
	test_EEPROM_module_start();
    10e4:	0e 94 4b 08 	call	0x1096	; 0x1096 <test_EEPROM_module_start>
    10e8:	08 95       	ret

Disassembly of section .text.avrlibc:

0000022c <vfprintf>:
 22c:	a4 e1       	ldi	r26, 0x14	; 20
 22e:	b0 e0       	ldi	r27, 0x00	; 0
 230:	ec e1       	ldi	r30, 0x1C	; 28
 232:	f1 e0       	ldi	r31, 0x01	; 1
 234:	0c 94 e3 07 	jmp	0xfc6	; 0xfc6 <__prologue_saves__>
 238:	6c 01       	movw	r12, r24
 23a:	1a 01       	movw	r2, r20
 23c:	46 2e       	mov	r4, r22
 23e:	59 01       	movw	r10, r18
 240:	fc 01       	movw	r30, r24
 242:	10 86       	std	Z+8, r1	; 0x08
 244:	17 82       	std	Z+7, r1	; 0x07
 246:	84 81       	ldd	r24, Z+4	; 0x04
 248:	81 ff       	sbrs	r24, 1
 24a:	62 c3       	rjmp	.+1732   	; 0x910 <__EEPROM_REGION_LENGTH__+0x110>
 24c:	ce 01       	movw	r24, r28
 24e:	01 96       	adiw	r24, 0x01	; 1
 250:	9d 87       	std	Y+13, r25	; 0x0d
 252:	8c 87       	std	Y+12, r24	; 0x0c
 254:	a0 e8       	ldi	r26, 0x80	; 128
 256:	8a 8b       	std	Y+18, r24	; 0x12
 258:	9b 8b       	std	Y+19, r25	; 0x13
 25a:	ac 8b       	std	Y+20, r26	; 0x14
 25c:	f1 01       	movw	r30, r2
 25e:	84 91       	lpm	r24, Z
 260:	47 fc       	sbrc	r4, 7
 262:	80 81       	ld	r24, Z
 264:	88 23       	and	r24, r24
 266:	09 f4       	brne	.+2      	; 0x26a <vfprintf+0x3e>
 268:	4f c3       	rjmp	.+1694   	; 0x908 <__EEPROM_REGION_LENGTH__+0x108>
 26a:	44 2d       	mov	r20, r4
 26c:	91 01       	movw	r18, r2
 26e:	2f 5f       	subi	r18, 0xFF	; 255
 270:	3f 4f       	sbci	r19, 0xFF	; 255
 272:	4f 4f       	sbci	r20, 0xFF	; 255
 274:	85 32       	cpi	r24, 0x25	; 37
 276:	19 f0       	breq	.+6      	; 0x27e <vfprintf+0x52>
 278:	19 01       	movw	r2, r18
 27a:	44 2e       	mov	r4, r20
 27c:	0a c0       	rjmp	.+20     	; 0x292 <vfprintf+0x66>
 27e:	f9 01       	movw	r30, r18
 280:	84 91       	lpm	r24, Z
 282:	47 fd       	sbrc	r20, 7
 284:	80 81       	ld	r24, Z
 286:	92 e0       	ldi	r25, 0x02	; 2
 288:	29 0e       	add	r2, r25
 28a:	31 1c       	adc	r3, r1
 28c:	41 1c       	adc	r4, r1
 28e:	85 32       	cpi	r24, 0x25	; 37
 290:	49 f4       	brne	.+18     	; 0x2a4 <vfprintf+0x78>
 292:	b6 01       	movw	r22, r12
 294:	90 e0       	ldi	r25, 0x00	; 0
 296:	0e 94 7f 06 	call	0xcfe	; 0xcfe <fputc>
 29a:	bf 86       	std	Y+15, r11	; 0x0f
 29c:	ae 86       	std	Y+14, r10	; 0x0e
 29e:	ae 84       	ldd	r10, Y+14	; 0x0e
 2a0:	bf 84       	ldd	r11, Y+15	; 0x0f
 2a2:	dc cf       	rjmp	.-72     	; 0x25c <vfprintf+0x30>
 2a4:	10 e0       	ldi	r17, 0x00	; 0
 2a6:	f1 2c       	mov	r15, r1
 2a8:	00 e0       	ldi	r16, 0x00	; 0
 2aa:	00 32       	cpi	r16, 0x20	; 32
 2ac:	a0 f4       	brcc	.+40     	; 0x2d6 <vfprintf+0xaa>
 2ae:	8b 32       	cpi	r24, 0x2B	; 43
 2b0:	69 f0       	breq	.+26     	; 0x2cc <vfprintf+0xa0>
 2b2:	30 f4       	brcc	.+12     	; 0x2c0 <vfprintf+0x94>
 2b4:	80 32       	cpi	r24, 0x20	; 32
 2b6:	59 f0       	breq	.+22     	; 0x2ce <vfprintf+0xa2>
 2b8:	83 32       	cpi	r24, 0x23	; 35
 2ba:	69 f4       	brne	.+26     	; 0x2d6 <vfprintf+0xaa>
 2bc:	00 61       	ori	r16, 0x10	; 16
 2be:	2c c0       	rjmp	.+88     	; 0x318 <vfprintf+0xec>
 2c0:	8d 32       	cpi	r24, 0x2D	; 45
 2c2:	39 f0       	breq	.+14     	; 0x2d2 <vfprintf+0xa6>
 2c4:	80 33       	cpi	r24, 0x30	; 48
 2c6:	39 f4       	brne	.+14     	; 0x2d6 <vfprintf+0xaa>
 2c8:	01 60       	ori	r16, 0x01	; 1
 2ca:	26 c0       	rjmp	.+76     	; 0x318 <vfprintf+0xec>
 2cc:	02 60       	ori	r16, 0x02	; 2
 2ce:	04 60       	ori	r16, 0x04	; 4
 2d0:	23 c0       	rjmp	.+70     	; 0x318 <vfprintf+0xec>
 2d2:	08 60       	ori	r16, 0x08	; 8
 2d4:	21 c0       	rjmp	.+66     	; 0x318 <vfprintf+0xec>
 2d6:	07 fd       	sbrc	r16, 7
 2d8:	29 c0       	rjmp	.+82     	; 0x32c <vfprintf+0x100>
 2da:	90 ed       	ldi	r25, 0xD0	; 208
 2dc:	98 0f       	add	r25, r24
 2de:	9a 30       	cpi	r25, 0x0A	; 10
 2e0:	78 f4       	brcc	.+30     	; 0x300 <vfprintf+0xd4>
 2e2:	06 ff       	sbrs	r16, 6
 2e4:	06 c0       	rjmp	.+12     	; 0x2f2 <vfprintf+0xc6>
 2e6:	aa e0       	ldi	r26, 0x0A	; 10
 2e8:	1a 9f       	mul	r17, r26
 2ea:	90 0d       	add	r25, r0
 2ec:	11 24       	eor	r1, r1
 2ee:	19 2f       	mov	r17, r25
 2f0:	13 c0       	rjmp	.+38     	; 0x318 <vfprintf+0xec>
 2f2:	ea e0       	ldi	r30, 0x0A	; 10
 2f4:	fe 9e       	mul	r15, r30
 2f6:	90 0d       	add	r25, r0
 2f8:	11 24       	eor	r1, r1
 2fa:	f9 2e       	mov	r15, r25
 2fc:	00 62       	ori	r16, 0x20	; 32
 2fe:	0c c0       	rjmp	.+24     	; 0x318 <vfprintf+0xec>
 300:	8e 32       	cpi	r24, 0x2E	; 46
 302:	21 f4       	brne	.+8      	; 0x30c <vfprintf+0xe0>
 304:	06 fd       	sbrc	r16, 6
 306:	00 c3       	rjmp	.+1536   	; 0x908 <__EEPROM_REGION_LENGTH__+0x108>
 308:	00 64       	ori	r16, 0x40	; 64
 30a:	06 c0       	rjmp	.+12     	; 0x318 <vfprintf+0xec>
 30c:	8c 36       	cpi	r24, 0x6C	; 108
 30e:	11 f4       	brne	.+4      	; 0x314 <vfprintf+0xe8>
 310:	00 68       	ori	r16, 0x80	; 128
 312:	02 c0       	rjmp	.+4      	; 0x318 <vfprintf+0xec>
 314:	88 36       	cpi	r24, 0x68	; 104
 316:	51 f4       	brne	.+20     	; 0x32c <vfprintf+0x100>
 318:	f1 01       	movw	r30, r2
 31a:	84 91       	lpm	r24, Z
 31c:	47 fc       	sbrc	r4, 7
 31e:	80 81       	ld	r24, Z
 320:	ff ef       	ldi	r31, 0xFF	; 255
 322:	2f 1a       	sub	r2, r31
 324:	3f 0a       	sbc	r3, r31
 326:	4f 0a       	sbc	r4, r31
 328:	81 11       	cpse	r24, r1
 32a:	bf cf       	rjmp	.-130    	; 0x2aa <vfprintf+0x7e>
 32c:	9b eb       	ldi	r25, 0xBB	; 187
 32e:	98 0f       	add	r25, r24
 330:	93 30       	cpi	r25, 0x03	; 3
 332:	18 f4       	brcc	.+6      	; 0x33a <vfprintf+0x10e>
 334:	00 61       	ori	r16, 0x10	; 16
 336:	80 5e       	subi	r24, 0xE0	; 224
 338:	06 c0       	rjmp	.+12     	; 0x346 <vfprintf+0x11a>
 33a:	9b e9       	ldi	r25, 0x9B	; 155
 33c:	98 0f       	add	r25, r24
 33e:	93 30       	cpi	r25, 0x03	; 3
 340:	08 f0       	brcs	.+2      	; 0x344 <vfprintf+0x118>
 342:	66 c1       	rjmp	.+716    	; 0x610 <__LOCK_REGION_LENGTH__+0x210>
 344:	0f 7e       	andi	r16, 0xEF	; 239
 346:	06 ff       	sbrs	r16, 6
 348:	16 e0       	ldi	r17, 0x06	; 6
 34a:	0f 73       	andi	r16, 0x3F	; 63
 34c:	70 2e       	mov	r7, r16
 34e:	85 36       	cpi	r24, 0x65	; 101
 350:	21 f4       	brne	.+8      	; 0x35a <vfprintf+0x12e>
 352:	20 2f       	mov	r18, r16
 354:	20 64       	ori	r18, 0x40	; 64
 356:	72 2e       	mov	r7, r18
 358:	08 c0       	rjmp	.+16     	; 0x36a <vfprintf+0x13e>
 35a:	86 36       	cpi	r24, 0x66	; 102
 35c:	21 f4       	brne	.+8      	; 0x366 <vfprintf+0x13a>
 35e:	80 2f       	mov	r24, r16
 360:	80 68       	ori	r24, 0x80	; 128
 362:	78 2e       	mov	r7, r24
 364:	02 c0       	rjmp	.+4      	; 0x36a <vfprintf+0x13e>
 366:	11 11       	cpse	r17, r1
 368:	11 50       	subi	r17, 0x01	; 1
 36a:	77 fe       	sbrs	r7, 7
 36c:	07 c0       	rjmp	.+14     	; 0x37c <vfprintf+0x150>
 36e:	1c 33       	cpi	r17, 0x3C	; 60
 370:	50 f4       	brcc	.+20     	; 0x386 <vfprintf+0x15a>
 372:	ee 24       	eor	r14, r14
 374:	e3 94       	inc	r14
 376:	e1 0e       	add	r14, r17
 378:	27 e0       	ldi	r18, 0x07	; 7
 37a:	0b c0       	rjmp	.+22     	; 0x392 <vfprintf+0x166>
 37c:	18 30       	cpi	r17, 0x08	; 8
 37e:	38 f0       	brcs	.+14     	; 0x38e <vfprintf+0x162>
 380:	27 e0       	ldi	r18, 0x07	; 7
 382:	17 e0       	ldi	r17, 0x07	; 7
 384:	05 c0       	rjmp	.+10     	; 0x390 <vfprintf+0x164>
 386:	27 e0       	ldi	r18, 0x07	; 7
 388:	6c e3       	ldi	r22, 0x3C	; 60
 38a:	e6 2e       	mov	r14, r22
 38c:	02 c0       	rjmp	.+4      	; 0x392 <vfprintf+0x166>
 38e:	21 2f       	mov	r18, r17
 390:	e1 2c       	mov	r14, r1
 392:	f5 01       	movw	r30, r10
 394:	34 96       	adiw	r30, 0x04	; 4
 396:	ff 87       	std	Y+15, r31	; 0x0f
 398:	ee 87       	std	Y+14, r30	; 0x0e
 39a:	f5 01       	movw	r30, r10
 39c:	60 81       	ld	r22, Z
 39e:	71 81       	ldd	r23, Z+1	; 0x01
 3a0:	82 81       	ldd	r24, Z+2	; 0x02
 3a2:	93 81       	ldd	r25, Z+3	; 0x03
 3a4:	0e 2d       	mov	r16, r14
 3a6:	ae 01       	movw	r20, r28
 3a8:	4f 5f       	subi	r20, 0xFF	; 255
 3aa:	5f 4f       	sbci	r21, 0xFF	; 255
 3ac:	0e 94 b8 04 	call	0x970	; 0x970 <__ftoa_engine>
 3b0:	5c 01       	movw	r10, r24
 3b2:	59 80       	ldd	r5, Y+1	; 0x01
 3b4:	50 fe       	sbrs	r5, 0
 3b6:	02 c0       	rjmp	.+4      	; 0x3bc <vfprintf+0x190>
 3b8:	53 fe       	sbrs	r5, 3
 3ba:	06 c0       	rjmp	.+12     	; 0x3c8 <vfprintf+0x19c>
 3bc:	71 fc       	sbrc	r7, 1
 3be:	06 c0       	rjmp	.+12     	; 0x3cc <vfprintf+0x1a0>
 3c0:	72 fe       	sbrs	r7, 2
 3c2:	06 c0       	rjmp	.+12     	; 0x3d0 <vfprintf+0x1a4>
 3c4:	00 e2       	ldi	r16, 0x20	; 32
 3c6:	05 c0       	rjmp	.+10     	; 0x3d2 <vfprintf+0x1a6>
 3c8:	0d e2       	ldi	r16, 0x2D	; 45
 3ca:	03 c0       	rjmp	.+6      	; 0x3d2 <vfprintf+0x1a6>
 3cc:	0b e2       	ldi	r16, 0x2B	; 43
 3ce:	01 c0       	rjmp	.+2      	; 0x3d2 <vfprintf+0x1a6>
 3d0:	00 e0       	ldi	r16, 0x00	; 0
 3d2:	85 2d       	mov	r24, r5
 3d4:	8c 70       	andi	r24, 0x0C	; 12
 3d6:	19 f0       	breq	.+6      	; 0x3de <vfprintf+0x1b2>
 3d8:	01 11       	cpse	r16, r1
 3da:	73 c2       	rjmp	.+1254   	; 0x8c2 <__EEPROM_REGION_LENGTH__+0xc2>
 3dc:	be c2       	rjmp	.+1404   	; 0x95a <__EEPROM_REGION_LENGTH__+0x15a>
 3de:	77 fe       	sbrs	r7, 7
 3e0:	0f c0       	rjmp	.+30     	; 0x400 <__LOCK_REGION_LENGTH__>
 3e2:	ea 0c       	add	r14, r10
 3e4:	54 fe       	sbrs	r5, 4
 3e6:	04 c0       	rjmp	.+8      	; 0x3f0 <vfprintf+0x1c4>
 3e8:	8a 81       	ldd	r24, Y+2	; 0x02
 3ea:	81 33       	cpi	r24, 0x31	; 49
 3ec:	09 f4       	brne	.+2      	; 0x3f0 <vfprintf+0x1c4>
 3ee:	ea 94       	dec	r14
 3f0:	1e 14       	cp	r1, r14
 3f2:	74 f5       	brge	.+92     	; 0x450 <__LOCK_REGION_LENGTH__+0x50>
 3f4:	28 e0       	ldi	r18, 0x08	; 8
 3f6:	2e 15       	cp	r18, r14
 3f8:	78 f5       	brcc	.+94     	; 0x458 <__LOCK_REGION_LENGTH__+0x58>
 3fa:	38 e0       	ldi	r19, 0x08	; 8
 3fc:	e3 2e       	mov	r14, r19
 3fe:	2c c0       	rjmp	.+88     	; 0x458 <__LOCK_REGION_LENGTH__+0x58>
 400:	76 fc       	sbrc	r7, 6
 402:	2a c0       	rjmp	.+84     	; 0x458 <__LOCK_REGION_LENGTH__+0x58>
 404:	81 2f       	mov	r24, r17
 406:	90 e0       	ldi	r25, 0x00	; 0
 408:	8a 15       	cp	r24, r10
 40a:	9b 05       	cpc	r25, r11
 40c:	9c f0       	brlt	.+38     	; 0x434 <__LOCK_REGION_LENGTH__+0x34>
 40e:	8c ef       	ldi	r24, 0xFC	; 252
 410:	a8 16       	cp	r10, r24
 412:	8f ef       	ldi	r24, 0xFF	; 255
 414:	b8 06       	cpc	r11, r24
 416:	74 f0       	brlt	.+28     	; 0x434 <__LOCK_REGION_LENGTH__+0x34>
 418:	97 2d       	mov	r25, r7
 41a:	90 68       	ori	r25, 0x80	; 128
 41c:	79 2e       	mov	r7, r25
 41e:	0a c0       	rjmp	.+20     	; 0x434 <__LOCK_REGION_LENGTH__+0x34>
 420:	e2 e0       	ldi	r30, 0x02	; 2
 422:	f0 e0       	ldi	r31, 0x00	; 0
 424:	ec 0f       	add	r30, r28
 426:	fd 1f       	adc	r31, r29
 428:	e1 0f       	add	r30, r17
 42a:	f1 1d       	adc	r31, r1
 42c:	80 81       	ld	r24, Z
 42e:	80 33       	cpi	r24, 0x30	; 48
 430:	19 f4       	brne	.+6      	; 0x438 <__LOCK_REGION_LENGTH__+0x38>
 432:	11 50       	subi	r17, 0x01	; 1
 434:	11 11       	cpse	r17, r1
 436:	f4 cf       	rjmp	.-24     	; 0x420 <__LOCK_REGION_LENGTH__+0x20>
 438:	77 fe       	sbrs	r7, 7
 43a:	0e c0       	rjmp	.+28     	; 0x458 <__LOCK_REGION_LENGTH__+0x58>
 43c:	ee 24       	eor	r14, r14
 43e:	e3 94       	inc	r14
 440:	e1 0e       	add	r14, r17
 442:	81 2f       	mov	r24, r17
 444:	90 e0       	ldi	r25, 0x00	; 0
 446:	a8 16       	cp	r10, r24
 448:	b9 06       	cpc	r11, r25
 44a:	2c f4       	brge	.+10     	; 0x456 <__LOCK_REGION_LENGTH__+0x56>
 44c:	1a 19       	sub	r17, r10
 44e:	04 c0       	rjmp	.+8      	; 0x458 <__LOCK_REGION_LENGTH__+0x58>
 450:	ee 24       	eor	r14, r14
 452:	e3 94       	inc	r14
 454:	01 c0       	rjmp	.+2      	; 0x458 <__LOCK_REGION_LENGTH__+0x58>
 456:	10 e0       	ldi	r17, 0x00	; 0
 458:	77 fe       	sbrs	r7, 7
 45a:	06 c0       	rjmp	.+12     	; 0x468 <__LOCK_REGION_LENGTH__+0x68>
 45c:	1a 14       	cp	r1, r10
 45e:	1b 04       	cpc	r1, r11
 460:	34 f4       	brge	.+12     	; 0x46e <__LOCK_REGION_LENGTH__+0x6e>
 462:	c5 01       	movw	r24, r10
 464:	01 96       	adiw	r24, 0x01	; 1
 466:	05 c0       	rjmp	.+10     	; 0x472 <__LOCK_REGION_LENGTH__+0x72>
 468:	85 e0       	ldi	r24, 0x05	; 5
 46a:	90 e0       	ldi	r25, 0x00	; 0
 46c:	02 c0       	rjmp	.+4      	; 0x472 <__LOCK_REGION_LENGTH__+0x72>
 46e:	81 e0       	ldi	r24, 0x01	; 1
 470:	90 e0       	ldi	r25, 0x00	; 0
 472:	01 11       	cpse	r16, r1
 474:	01 96       	adiw	r24, 0x01	; 1
 476:	11 23       	and	r17, r17
 478:	31 f0       	breq	.+12     	; 0x486 <__LOCK_REGION_LENGTH__+0x86>
 47a:	21 2f       	mov	r18, r17
 47c:	30 e0       	ldi	r19, 0x00	; 0
 47e:	2f 5f       	subi	r18, 0xFF	; 255
 480:	3f 4f       	sbci	r19, 0xFF	; 255
 482:	82 0f       	add	r24, r18
 484:	93 1f       	adc	r25, r19
 486:	2f 2d       	mov	r18, r15
 488:	30 e0       	ldi	r19, 0x00	; 0
 48a:	82 17       	cp	r24, r18
 48c:	93 07       	cpc	r25, r19
 48e:	14 f4       	brge	.+4      	; 0x494 <__LOCK_REGION_LENGTH__+0x94>
 490:	f8 1a       	sub	r15, r24
 492:	01 c0       	rjmp	.+2      	; 0x496 <__LOCK_REGION_LENGTH__+0x96>
 494:	f1 2c       	mov	r15, r1
 496:	87 2d       	mov	r24, r7
 498:	89 70       	andi	r24, 0x09	; 9
 49a:	49 f4       	brne	.+18     	; 0x4ae <__LOCK_REGION_LENGTH__+0xae>
 49c:	ff 20       	and	r15, r15
 49e:	39 f0       	breq	.+14     	; 0x4ae <__LOCK_REGION_LENGTH__+0xae>
 4a0:	b6 01       	movw	r22, r12
 4a2:	80 e2       	ldi	r24, 0x20	; 32
 4a4:	90 e0       	ldi	r25, 0x00	; 0
 4a6:	0e 94 7f 06 	call	0xcfe	; 0xcfe <fputc>
 4aa:	fa 94       	dec	r15
 4ac:	f7 cf       	rjmp	.-18     	; 0x49c <__LOCK_REGION_LENGTH__+0x9c>
 4ae:	00 23       	and	r16, r16
 4b0:	29 f0       	breq	.+10     	; 0x4bc <__LOCK_REGION_LENGTH__+0xbc>
 4b2:	b6 01       	movw	r22, r12
 4b4:	80 2f       	mov	r24, r16
 4b6:	90 e0       	ldi	r25, 0x00	; 0
 4b8:	0e 94 7f 06 	call	0xcfe	; 0xcfe <fputc>
 4bc:	73 fc       	sbrc	r7, 3
 4be:	09 c0       	rjmp	.+18     	; 0x4d2 <__LOCK_REGION_LENGTH__+0xd2>
 4c0:	ff 20       	and	r15, r15
 4c2:	39 f0       	breq	.+14     	; 0x4d2 <__LOCK_REGION_LENGTH__+0xd2>
 4c4:	b6 01       	movw	r22, r12
 4c6:	80 e3       	ldi	r24, 0x30	; 48
 4c8:	90 e0       	ldi	r25, 0x00	; 0
 4ca:	0e 94 7f 06 	call	0xcfe	; 0xcfe <fputc>
 4ce:	fa 94       	dec	r15
 4d0:	f7 cf       	rjmp	.-18     	; 0x4c0 <__LOCK_REGION_LENGTH__+0xc0>
 4d2:	77 fe       	sbrs	r7, 7
 4d4:	49 c0       	rjmp	.+146    	; 0x568 <__LOCK_REGION_LENGTH__+0x168>
 4d6:	35 01       	movw	r6, r10
 4d8:	b7 fe       	sbrs	r11, 7
 4da:	02 c0       	rjmp	.+4      	; 0x4e0 <__LOCK_REGION_LENGTH__+0xe0>
 4dc:	61 2c       	mov	r6, r1
 4de:	71 2c       	mov	r7, r1
 4e0:	c5 01       	movw	r24, r10
 4e2:	86 19       	sub	r24, r6
 4e4:	97 09       	sbc	r25, r7
 4e6:	88 24       	eor	r8, r8
 4e8:	83 94       	inc	r8
 4ea:	91 2c       	mov	r9, r1
 4ec:	8c 0e       	add	r8, r28
 4ee:	9d 1e       	adc	r9, r29
 4f0:	88 0e       	add	r8, r24
 4f2:	99 1e       	adc	r9, r25
 4f4:	f5 01       	movw	r30, r10
 4f6:	ee 19       	sub	r30, r14
 4f8:	f1 09       	sbc	r31, r1
 4fa:	f9 8b       	std	Y+17, r31	; 0x11
 4fc:	e8 8b       	std	Y+16, r30	; 0x10
 4fe:	01 2f       	mov	r16, r17
 500:	10 e0       	ldi	r17, 0x00	; 0
 502:	11 95       	neg	r17
 504:	01 95       	neg	r16
 506:	11 09       	sbc	r17, r1
 508:	ff ef       	ldi	r31, 0xFF	; 255
 50a:	6f 16       	cp	r6, r31
 50c:	7f 06       	cpc	r7, r31
 50e:	29 f4       	brne	.+10     	; 0x51a <__LOCK_REGION_LENGTH__+0x11a>
 510:	b6 01       	movw	r22, r12
 512:	8e e2       	ldi	r24, 0x2E	; 46
 514:	90 e0       	ldi	r25, 0x00	; 0
 516:	0e 94 7f 06 	call	0xcfe	; 0xcfe <fputc>
 51a:	a6 14       	cp	r10, r6
 51c:	b7 04       	cpc	r11, r7
 51e:	44 f0       	brlt	.+16     	; 0x530 <__LOCK_REGION_LENGTH__+0x130>
 520:	88 89       	ldd	r24, Y+16	; 0x10
 522:	99 89       	ldd	r25, Y+17	; 0x11
 524:	86 15       	cp	r24, r6
 526:	97 05       	cpc	r25, r7
 528:	1c f4       	brge	.+6      	; 0x530 <__LOCK_REGION_LENGTH__+0x130>
 52a:	f4 01       	movw	r30, r8
 52c:	81 81       	ldd	r24, Z+1	; 0x01
 52e:	01 c0       	rjmp	.+2      	; 0x532 <__LOCK_REGION_LENGTH__+0x132>
 530:	80 e3       	ldi	r24, 0x30	; 48
 532:	f1 e0       	ldi	r31, 0x01	; 1
 534:	6f 1a       	sub	r6, r31
 536:	71 08       	sbc	r7, r1
 538:	2f ef       	ldi	r18, 0xFF	; 255
 53a:	82 1a       	sub	r8, r18
 53c:	92 0a       	sbc	r9, r18
 53e:	60 16       	cp	r6, r16
 540:	71 06       	cpc	r7, r17
 542:	2c f0       	brlt	.+10     	; 0x54e <__LOCK_REGION_LENGTH__+0x14e>
 544:	b6 01       	movw	r22, r12
 546:	90 e0       	ldi	r25, 0x00	; 0
 548:	0e 94 7f 06 	call	0xcfe	; 0xcfe <fputc>
 54c:	dd cf       	rjmp	.-70     	; 0x508 <__LOCK_REGION_LENGTH__+0x108>
 54e:	a6 14       	cp	r10, r6
 550:	b7 04       	cpc	r11, r7
 552:	39 f4       	brne	.+14     	; 0x562 <__LOCK_REGION_LENGTH__+0x162>
 554:	9a 81       	ldd	r25, Y+2	; 0x02
 556:	96 33       	cpi	r25, 0x36	; 54
 558:	18 f4       	brcc	.+6      	; 0x560 <__LOCK_REGION_LENGTH__+0x160>
 55a:	95 33       	cpi	r25, 0x35	; 53
 55c:	11 f4       	brne	.+4      	; 0x562 <__LOCK_REGION_LENGTH__+0x162>
 55e:	54 fe       	sbrs	r5, 4
 560:	81 e3       	ldi	r24, 0x31	; 49
 562:	b6 01       	movw	r22, r12
 564:	90 e0       	ldi	r25, 0x00	; 0
 566:	51 c0       	rjmp	.+162    	; 0x60a <__LOCK_REGION_LENGTH__+0x20a>
 568:	8a 81       	ldd	r24, Y+2	; 0x02
 56a:	81 33       	cpi	r24, 0x31	; 49
 56c:	19 f0       	breq	.+6      	; 0x574 <__LOCK_REGION_LENGTH__+0x174>
 56e:	95 2d       	mov	r25, r5
 570:	9f 7e       	andi	r25, 0xEF	; 239
 572:	59 2e       	mov	r5, r25
 574:	b6 01       	movw	r22, r12
 576:	90 e0       	ldi	r25, 0x00	; 0
 578:	0e 94 7f 06 	call	0xcfe	; 0xcfe <fputc>
 57c:	11 11       	cpse	r17, r1
 57e:	05 c0       	rjmp	.+10     	; 0x58a <__LOCK_REGION_LENGTH__+0x18a>
 580:	74 fc       	sbrc	r7, 4
 582:	1c c0       	rjmp	.+56     	; 0x5bc <__LOCK_REGION_LENGTH__+0x1bc>
 584:	85 e6       	ldi	r24, 0x65	; 101
 586:	90 e0       	ldi	r25, 0x00	; 0
 588:	1b c0       	rjmp	.+54     	; 0x5c0 <__LOCK_REGION_LENGTH__+0x1c0>
 58a:	b6 01       	movw	r22, r12
 58c:	8e e2       	ldi	r24, 0x2E	; 46
 58e:	90 e0       	ldi	r25, 0x00	; 0
 590:	0e 94 7f 06 	call	0xcfe	; 0xcfe <fputc>
 594:	02 e0       	ldi	r16, 0x02	; 2
 596:	01 0f       	add	r16, r17
 598:	82 e0       	ldi	r24, 0x02	; 2
 59a:	11 e0       	ldi	r17, 0x01	; 1
 59c:	18 0f       	add	r17, r24
 59e:	e1 e0       	ldi	r30, 0x01	; 1
 5a0:	f0 e0       	ldi	r31, 0x00	; 0
 5a2:	ec 0f       	add	r30, r28
 5a4:	fd 1f       	adc	r31, r29
 5a6:	e8 0f       	add	r30, r24
 5a8:	f1 1d       	adc	r31, r1
 5aa:	80 81       	ld	r24, Z
 5ac:	b6 01       	movw	r22, r12
 5ae:	90 e0       	ldi	r25, 0x00	; 0
 5b0:	0e 94 7f 06 	call	0xcfe	; 0xcfe <fputc>
 5b4:	81 2f       	mov	r24, r17
 5b6:	10 13       	cpse	r17, r16
 5b8:	f0 cf       	rjmp	.-32     	; 0x59a <__LOCK_REGION_LENGTH__+0x19a>
 5ba:	e2 cf       	rjmp	.-60     	; 0x580 <__LOCK_REGION_LENGTH__+0x180>
 5bc:	85 e4       	ldi	r24, 0x45	; 69
 5be:	90 e0       	ldi	r25, 0x00	; 0
 5c0:	b6 01       	movw	r22, r12
 5c2:	0e 94 7f 06 	call	0xcfe	; 0xcfe <fputc>
 5c6:	b7 fc       	sbrc	r11, 7
 5c8:	05 c0       	rjmp	.+10     	; 0x5d4 <__LOCK_REGION_LENGTH__+0x1d4>
 5ca:	a1 14       	cp	r10, r1
 5cc:	b1 04       	cpc	r11, r1
 5ce:	39 f4       	brne	.+14     	; 0x5de <__LOCK_REGION_LENGTH__+0x1de>
 5d0:	54 fe       	sbrs	r5, 4
 5d2:	05 c0       	rjmp	.+10     	; 0x5de <__LOCK_REGION_LENGTH__+0x1de>
 5d4:	b1 94       	neg	r11
 5d6:	a1 94       	neg	r10
 5d8:	b1 08       	sbc	r11, r1
 5da:	8d e2       	ldi	r24, 0x2D	; 45
 5dc:	01 c0       	rjmp	.+2      	; 0x5e0 <__LOCK_REGION_LENGTH__+0x1e0>
 5de:	8b e2       	ldi	r24, 0x2B	; 43
 5e0:	b6 01       	movw	r22, r12
 5e2:	90 e0       	ldi	r25, 0x00	; 0
 5e4:	0e 94 7f 06 	call	0xcfe	; 0xcfe <fputc>
 5e8:	80 e3       	ldi	r24, 0x30	; 48
 5ea:	ea e0       	ldi	r30, 0x0A	; 10
 5ec:	ae 16       	cp	r10, r30
 5ee:	b1 04       	cpc	r11, r1
 5f0:	2c f0       	brlt	.+10     	; 0x5fc <__LOCK_REGION_LENGTH__+0x1fc>
 5f2:	8f 5f       	subi	r24, 0xFF	; 255
 5f4:	aa e0       	ldi	r26, 0x0A	; 10
 5f6:	aa 1a       	sub	r10, r26
 5f8:	b1 08       	sbc	r11, r1
 5fa:	f7 cf       	rjmp	.-18     	; 0x5ea <__LOCK_REGION_LENGTH__+0x1ea>
 5fc:	b6 01       	movw	r22, r12
 5fe:	90 e0       	ldi	r25, 0x00	; 0
 600:	0e 94 7f 06 	call	0xcfe	; 0xcfe <fputc>
 604:	b6 01       	movw	r22, r12
 606:	c5 01       	movw	r24, r10
 608:	c0 96       	adiw	r24, 0x30	; 48
 60a:	0e 94 7f 06 	call	0xcfe	; 0xcfe <fputc>
 60e:	72 c1       	rjmp	.+740    	; 0x8f4 <__EEPROM_REGION_LENGTH__+0xf4>
 610:	83 36       	cpi	r24, 0x63	; 99
 612:	31 f0       	breq	.+12     	; 0x620 <__LOCK_REGION_LENGTH__+0x220>
 614:	83 37       	cpi	r24, 0x73	; 115
 616:	91 f0       	breq	.+36     	; 0x63c <__LOCK_REGION_LENGTH__+0x23c>
 618:	83 35       	cpi	r24, 0x53	; 83
 61a:	09 f0       	breq	.+2      	; 0x61e <__LOCK_REGION_LENGTH__+0x21e>
 61c:	5d c0       	rjmp	.+186    	; 0x6d8 <__LOCK_REGION_LENGTH__+0x2d8>
 61e:	24 c0       	rjmp	.+72     	; 0x668 <__LOCK_REGION_LENGTH__+0x268>
 620:	c5 01       	movw	r24, r10
 622:	02 96       	adiw	r24, 0x02	; 2
 624:	9f 87       	std	Y+15, r25	; 0x0f
 626:	8e 87       	std	Y+14, r24	; 0x0e
 628:	f5 01       	movw	r30, r10
 62a:	80 81       	ld	r24, Z
 62c:	89 83       	std	Y+1, r24	; 0x01
 62e:	6a 88       	ldd	r6, Y+18	; 0x12
 630:	7b 88       	ldd	r7, Y+19	; 0x13
 632:	8c 88       	ldd	r8, Y+20	; 0x14
 634:	aa 24       	eor	r10, r10
 636:	a3 94       	inc	r10
 638:	b1 2c       	mov	r11, r1
 63a:	14 c0       	rjmp	.+40     	; 0x664 <__LOCK_REGION_LENGTH__+0x264>
 63c:	c5 01       	movw	r24, r10
 63e:	03 96       	adiw	r24, 0x03	; 3
 640:	9f 87       	std	Y+15, r25	; 0x0f
 642:	8e 87       	std	Y+14, r24	; 0x0e
 644:	f5 01       	movw	r30, r10
 646:	60 80       	ld	r6, Z
 648:	71 80       	ldd	r7, Z+1	; 0x01
 64a:	82 80       	ldd	r8, Z+2	; 0x02
 64c:	06 ff       	sbrs	r16, 6
 64e:	03 c0       	rjmp	.+6      	; 0x656 <__LOCK_REGION_LENGTH__+0x256>
 650:	41 2f       	mov	r20, r17
 652:	50 e0       	ldi	r21, 0x00	; 0
 654:	02 c0       	rjmp	.+4      	; 0x65a <__LOCK_REGION_LENGTH__+0x25a>
 656:	4f ef       	ldi	r20, 0xFF	; 255
 658:	5f ef       	ldi	r21, 0xFF	; 255
 65a:	88 2d       	mov	r24, r8
 65c:	b3 01       	movw	r22, r6
 65e:	0e 94 1a 08 	call	0x1034	; 0x1034 <strnlen>
 662:	5c 01       	movw	r10, r24
 664:	0f 77       	andi	r16, 0x7F	; 127
 666:	15 c0       	rjmp	.+42     	; 0x692 <__LOCK_REGION_LENGTH__+0x292>
 668:	c5 01       	movw	r24, r10
 66a:	03 96       	adiw	r24, 0x03	; 3
 66c:	9f 87       	std	Y+15, r25	; 0x0f
 66e:	8e 87       	std	Y+14, r24	; 0x0e
 670:	f5 01       	movw	r30, r10
 672:	60 80       	ld	r6, Z
 674:	71 80       	ldd	r7, Z+1	; 0x01
 676:	82 80       	ldd	r8, Z+2	; 0x02
 678:	06 ff       	sbrs	r16, 6
 67a:	03 c0       	rjmp	.+6      	; 0x682 <__LOCK_REGION_LENGTH__+0x282>
 67c:	41 2f       	mov	r20, r17
 67e:	50 e0       	ldi	r21, 0x00	; 0
 680:	02 c0       	rjmp	.+4      	; 0x686 <__LOCK_REGION_LENGTH__+0x286>
 682:	4f ef       	ldi	r20, 0xFF	; 255
 684:	5f ef       	ldi	r21, 0xFF	; 255
 686:	88 2d       	mov	r24, r8
 688:	b3 01       	movw	r22, r6
 68a:	0e 94 1a 08 	call	0x1034	; 0x1034 <strnlen>
 68e:	5c 01       	movw	r10, r24
 690:	00 68       	ori	r16, 0x80	; 128
 692:	03 fd       	sbrc	r16, 3
 694:	1d c0       	rjmp	.+58     	; 0x6d0 <__LOCK_REGION_LENGTH__+0x2d0>
 696:	8f 2d       	mov	r24, r15
 698:	90 e0       	ldi	r25, 0x00	; 0
 69a:	a8 16       	cp	r10, r24
 69c:	b9 06       	cpc	r11, r25
 69e:	c0 f4       	brcc	.+48     	; 0x6d0 <__LOCK_REGION_LENGTH__+0x2d0>
 6a0:	b6 01       	movw	r22, r12
 6a2:	80 e2       	ldi	r24, 0x20	; 32
 6a4:	90 e0       	ldi	r25, 0x00	; 0
 6a6:	0e 94 7f 06 	call	0xcfe	; 0xcfe <fputc>
 6aa:	fa 94       	dec	r15
 6ac:	f4 cf       	rjmp	.-24     	; 0x696 <__LOCK_REGION_LENGTH__+0x296>
 6ae:	f3 01       	movw	r30, r6
 6b0:	84 91       	lpm	r24, Z
 6b2:	87 fc       	sbrc	r8, 7
 6b4:	80 81       	ld	r24, Z
 6b6:	ff ef       	ldi	r31, 0xFF	; 255
 6b8:	6f 1a       	sub	r6, r31
 6ba:	7f 0a       	sbc	r7, r31
 6bc:	8f 0a       	sbc	r8, r31
 6be:	b6 01       	movw	r22, r12
 6c0:	90 e0       	ldi	r25, 0x00	; 0
 6c2:	0e 94 7f 06 	call	0xcfe	; 0xcfe <fputc>
 6c6:	f1 10       	cpse	r15, r1
 6c8:	fa 94       	dec	r15
 6ca:	21 e0       	ldi	r18, 0x01	; 1
 6cc:	a2 1a       	sub	r10, r18
 6ce:	b1 08       	sbc	r11, r1
 6d0:	a1 14       	cp	r10, r1
 6d2:	b1 04       	cpc	r11, r1
 6d4:	61 f7       	brne	.-40     	; 0x6ae <__LOCK_REGION_LENGTH__+0x2ae>
 6d6:	0e c1       	rjmp	.+540    	; 0x8f4 <__EEPROM_REGION_LENGTH__+0xf4>
 6d8:	84 36       	cpi	r24, 0x64	; 100
 6da:	11 f0       	breq	.+4      	; 0x6e0 <__LOCK_REGION_LENGTH__+0x2e0>
 6dc:	89 36       	cpi	r24, 0x69	; 105
 6de:	79 f5       	brne	.+94     	; 0x73e <__LOCK_REGION_LENGTH__+0x33e>
 6e0:	c5 01       	movw	r24, r10
 6e2:	07 ff       	sbrs	r16, 7
 6e4:	09 c0       	rjmp	.+18     	; 0x6f8 <__LOCK_REGION_LENGTH__+0x2f8>
 6e6:	04 96       	adiw	r24, 0x04	; 4
 6e8:	9f 87       	std	Y+15, r25	; 0x0f
 6ea:	8e 87       	std	Y+14, r24	; 0x0e
 6ec:	f5 01       	movw	r30, r10
 6ee:	60 81       	ld	r22, Z
 6f0:	71 81       	ldd	r23, Z+1	; 0x01
 6f2:	82 81       	ldd	r24, Z+2	; 0x02
 6f4:	93 81       	ldd	r25, Z+3	; 0x03
 6f6:	0a c0       	rjmp	.+20     	; 0x70c <__LOCK_REGION_LENGTH__+0x30c>
 6f8:	02 96       	adiw	r24, 0x02	; 2
 6fa:	9f 87       	std	Y+15, r25	; 0x0f
 6fc:	8e 87       	std	Y+14, r24	; 0x0e
 6fe:	f5 01       	movw	r30, r10
 700:	60 81       	ld	r22, Z
 702:	71 81       	ldd	r23, Z+1	; 0x01
 704:	07 2e       	mov	r0, r23
 706:	00 0c       	add	r0, r0
 708:	88 0b       	sbc	r24, r24
 70a:	99 0b       	sbc	r25, r25
 70c:	0f 76       	andi	r16, 0x6F	; 111
 70e:	e0 2e       	mov	r14, r16
 710:	97 ff       	sbrs	r25, 7
 712:	0a c0       	rjmp	.+20     	; 0x728 <__LOCK_REGION_LENGTH__+0x328>
 714:	90 95       	com	r25
 716:	80 95       	com	r24
 718:	70 95       	com	r23
 71a:	61 95       	neg	r22
 71c:	7f 4f       	sbci	r23, 0xFF	; 255
 71e:	8f 4f       	sbci	r24, 0xFF	; 255
 720:	9f 4f       	sbci	r25, 0xFF	; 255
 722:	f0 2f       	mov	r31, r16
 724:	f0 68       	ori	r31, 0x80	; 128
 726:	ef 2e       	mov	r14, r31
 728:	2a e0       	ldi	r18, 0x0A	; 10
 72a:	30 e0       	ldi	r19, 0x00	; 0
 72c:	ae 01       	movw	r20, r28
 72e:	4f 5f       	subi	r20, 0xFF	; 255
 730:	5f 4f       	sbci	r21, 0xFF	; 255
 732:	0e 94 90 05 	call	0xb20	; 0xb20 <__ultoa_invert>
 736:	a8 2e       	mov	r10, r24
 738:	2c 85       	ldd	r18, Y+12	; 0x0c
 73a:	a2 1a       	sub	r10, r18
 73c:	4b c0       	rjmp	.+150    	; 0x7d4 <__LOCK_REGION_LENGTH__+0x3d4>
 73e:	85 37       	cpi	r24, 0x75	; 117
 740:	29 f4       	brne	.+10     	; 0x74c <__LOCK_REGION_LENGTH__+0x34c>
 742:	0f 7e       	andi	r16, 0xEF	; 239
 744:	e0 2e       	mov	r14, r16
 746:	2a e0       	ldi	r18, 0x0A	; 10
 748:	30 e0       	ldi	r19, 0x00	; 0
 74a:	25 c0       	rjmp	.+74     	; 0x796 <__LOCK_REGION_LENGTH__+0x396>
 74c:	90 2f       	mov	r25, r16
 74e:	99 7f       	andi	r25, 0xF9	; 249
 750:	e9 2e       	mov	r14, r25
 752:	8f 36       	cpi	r24, 0x6F	; 111
 754:	c1 f0       	breq	.+48     	; 0x786 <__LOCK_REGION_LENGTH__+0x386>
 756:	18 f4       	brcc	.+6      	; 0x75e <__LOCK_REGION_LENGTH__+0x35e>
 758:	88 35       	cpi	r24, 0x58	; 88
 75a:	79 f0       	breq	.+30     	; 0x77a <__LOCK_REGION_LENGTH__+0x37a>
 75c:	d5 c0       	rjmp	.+426    	; 0x908 <__EEPROM_REGION_LENGTH__+0x108>
 75e:	80 37       	cpi	r24, 0x70	; 112
 760:	19 f0       	breq	.+6      	; 0x768 <__LOCK_REGION_LENGTH__+0x368>
 762:	88 37       	cpi	r24, 0x78	; 120
 764:	21 f0       	breq	.+8      	; 0x76e <__LOCK_REGION_LENGTH__+0x36e>
 766:	d0 c0       	rjmp	.+416    	; 0x908 <__EEPROM_REGION_LENGTH__+0x108>
 768:	a9 2f       	mov	r26, r25
 76a:	a0 61       	ori	r26, 0x10	; 16
 76c:	ea 2e       	mov	r14, r26
 76e:	e4 fe       	sbrs	r14, 4
 770:	0d c0       	rjmp	.+26     	; 0x78c <__LOCK_REGION_LENGTH__+0x38c>
 772:	ee 2d       	mov	r30, r14
 774:	e4 60       	ori	r30, 0x04	; 4
 776:	ee 2e       	mov	r14, r30
 778:	09 c0       	rjmp	.+18     	; 0x78c <__LOCK_REGION_LENGTH__+0x38c>
 77a:	04 ff       	sbrs	r16, 4
 77c:	0a c0       	rjmp	.+20     	; 0x792 <__LOCK_REGION_LENGTH__+0x392>
 77e:	f9 2f       	mov	r31, r25
 780:	f6 60       	ori	r31, 0x06	; 6
 782:	ef 2e       	mov	r14, r31
 784:	06 c0       	rjmp	.+12     	; 0x792 <__LOCK_REGION_LENGTH__+0x392>
 786:	28 e0       	ldi	r18, 0x08	; 8
 788:	30 e0       	ldi	r19, 0x00	; 0
 78a:	05 c0       	rjmp	.+10     	; 0x796 <__LOCK_REGION_LENGTH__+0x396>
 78c:	20 e1       	ldi	r18, 0x10	; 16
 78e:	30 e0       	ldi	r19, 0x00	; 0
 790:	02 c0       	rjmp	.+4      	; 0x796 <__LOCK_REGION_LENGTH__+0x396>
 792:	20 e1       	ldi	r18, 0x10	; 16
 794:	32 e0       	ldi	r19, 0x02	; 2
 796:	c5 01       	movw	r24, r10
 798:	e7 fe       	sbrs	r14, 7
 79a:	09 c0       	rjmp	.+18     	; 0x7ae <__LOCK_REGION_LENGTH__+0x3ae>
 79c:	04 96       	adiw	r24, 0x04	; 4
 79e:	9f 87       	std	Y+15, r25	; 0x0f
 7a0:	8e 87       	std	Y+14, r24	; 0x0e
 7a2:	f5 01       	movw	r30, r10
 7a4:	60 81       	ld	r22, Z
 7a6:	71 81       	ldd	r23, Z+1	; 0x01
 7a8:	82 81       	ldd	r24, Z+2	; 0x02
 7aa:	93 81       	ldd	r25, Z+3	; 0x03
 7ac:	08 c0       	rjmp	.+16     	; 0x7be <__LOCK_REGION_LENGTH__+0x3be>
 7ae:	02 96       	adiw	r24, 0x02	; 2
 7b0:	9f 87       	std	Y+15, r25	; 0x0f
 7b2:	8e 87       	std	Y+14, r24	; 0x0e
 7b4:	f5 01       	movw	r30, r10
 7b6:	60 81       	ld	r22, Z
 7b8:	71 81       	ldd	r23, Z+1	; 0x01
 7ba:	80 e0       	ldi	r24, 0x00	; 0
 7bc:	90 e0       	ldi	r25, 0x00	; 0
 7be:	ae 01       	movw	r20, r28
 7c0:	4f 5f       	subi	r20, 0xFF	; 255
 7c2:	5f 4f       	sbci	r21, 0xFF	; 255
 7c4:	0e 94 90 05 	call	0xb20	; 0xb20 <__ultoa_invert>
 7c8:	a8 2e       	mov	r10, r24
 7ca:	fc 85       	ldd	r31, Y+12	; 0x0c
 7cc:	af 1a       	sub	r10, r31
 7ce:	2e 2d       	mov	r18, r14
 7d0:	2f 77       	andi	r18, 0x7F	; 127
 7d2:	e2 2e       	mov	r14, r18
 7d4:	e6 fe       	sbrs	r14, 6
 7d6:	0b c0       	rjmp	.+22     	; 0x7ee <__LOCK_REGION_LENGTH__+0x3ee>
 7d8:	0e 2d       	mov	r16, r14
 7da:	0e 7f       	andi	r16, 0xFE	; 254
 7dc:	a1 16       	cp	r10, r17
 7de:	50 f4       	brcc	.+20     	; 0x7f4 <__LOCK_REGION_LENGTH__+0x3f4>
 7e0:	e4 fe       	sbrs	r14, 4
 7e2:	0a c0       	rjmp	.+20     	; 0x7f8 <__LOCK_REGION_LENGTH__+0x3f8>
 7e4:	e2 fc       	sbrc	r14, 2
 7e6:	08 c0       	rjmp	.+16     	; 0x7f8 <__LOCK_REGION_LENGTH__+0x3f8>
 7e8:	0e 2d       	mov	r16, r14
 7ea:	0e 7e       	andi	r16, 0xEE	; 238
 7ec:	05 c0       	rjmp	.+10     	; 0x7f8 <__LOCK_REGION_LENGTH__+0x3f8>
 7ee:	ba 2c       	mov	r11, r10
 7f0:	0e 2d       	mov	r16, r14
 7f2:	03 c0       	rjmp	.+6      	; 0x7fa <__LOCK_REGION_LENGTH__+0x3fa>
 7f4:	ba 2c       	mov	r11, r10
 7f6:	01 c0       	rjmp	.+2      	; 0x7fa <__LOCK_REGION_LENGTH__+0x3fa>
 7f8:	b1 2e       	mov	r11, r17
 7fa:	04 ff       	sbrs	r16, 4
 7fc:	0d c0       	rjmp	.+26     	; 0x818 <__EEPROM_REGION_LENGTH__+0x18>
 7fe:	fe 01       	movw	r30, r28
 800:	ea 0d       	add	r30, r10
 802:	f1 1d       	adc	r31, r1
 804:	80 81       	ld	r24, Z
 806:	80 33       	cpi	r24, 0x30	; 48
 808:	11 f4       	brne	.+4      	; 0x80e <__EEPROM_REGION_LENGTH__+0xe>
 80a:	09 7e       	andi	r16, 0xE9	; 233
 80c:	09 c0       	rjmp	.+18     	; 0x820 <__EEPROM_REGION_LENGTH__+0x20>
 80e:	02 ff       	sbrs	r16, 2
 810:	06 c0       	rjmp	.+12     	; 0x81e <__EEPROM_REGION_LENGTH__+0x1e>
 812:	b3 94       	inc	r11
 814:	b3 94       	inc	r11
 816:	04 c0       	rjmp	.+8      	; 0x820 <__EEPROM_REGION_LENGTH__+0x20>
 818:	80 2f       	mov	r24, r16
 81a:	86 78       	andi	r24, 0x86	; 134
 81c:	09 f0       	breq	.+2      	; 0x820 <__EEPROM_REGION_LENGTH__+0x20>
 81e:	b3 94       	inc	r11
 820:	03 fd       	sbrc	r16, 3
 822:	11 c0       	rjmp	.+34     	; 0x846 <__EEPROM_REGION_LENGTH__+0x46>
 824:	00 ff       	sbrs	r16, 0
 826:	06 c0       	rjmp	.+12     	; 0x834 <__EEPROM_REGION_LENGTH__+0x34>
 828:	bf 14       	cp	r11, r15
 82a:	88 f4       	brcc	.+34     	; 0x84e <__EEPROM_REGION_LENGTH__+0x4e>
 82c:	fa 0c       	add	r15, r10
 82e:	1f 2d       	mov	r17, r15
 830:	1b 19       	sub	r17, r11
 832:	0e c0       	rjmp	.+28     	; 0x850 <__EEPROM_REGION_LENGTH__+0x50>
 834:	bf 14       	cp	r11, r15
 836:	60 f4       	brcc	.+24     	; 0x850 <__EEPROM_REGION_LENGTH__+0x50>
 838:	b6 01       	movw	r22, r12
 83a:	80 e2       	ldi	r24, 0x20	; 32
 83c:	90 e0       	ldi	r25, 0x00	; 0
 83e:	0e 94 7f 06 	call	0xcfe	; 0xcfe <fputc>
 842:	b3 94       	inc	r11
 844:	f7 cf       	rjmp	.-18     	; 0x834 <__EEPROM_REGION_LENGTH__+0x34>
 846:	bf 14       	cp	r11, r15
 848:	18 f4       	brcc	.+6      	; 0x850 <__EEPROM_REGION_LENGTH__+0x50>
 84a:	fb 18       	sub	r15, r11
 84c:	02 c0       	rjmp	.+4      	; 0x852 <__EEPROM_REGION_LENGTH__+0x52>
 84e:	1a 2d       	mov	r17, r10
 850:	f1 2c       	mov	r15, r1
 852:	04 ff       	sbrs	r16, 4
 854:	10 c0       	rjmp	.+32     	; 0x876 <__EEPROM_REGION_LENGTH__+0x76>
 856:	b6 01       	movw	r22, r12
 858:	80 e3       	ldi	r24, 0x30	; 48
 85a:	90 e0       	ldi	r25, 0x00	; 0
 85c:	0e 94 7f 06 	call	0xcfe	; 0xcfe <fputc>
 860:	02 ff       	sbrs	r16, 2
 862:	17 c0       	rjmp	.+46     	; 0x892 <__EEPROM_REGION_LENGTH__+0x92>
 864:	01 fd       	sbrc	r16, 1
 866:	03 c0       	rjmp	.+6      	; 0x86e <__EEPROM_REGION_LENGTH__+0x6e>
 868:	88 e7       	ldi	r24, 0x78	; 120
 86a:	90 e0       	ldi	r25, 0x00	; 0
 86c:	02 c0       	rjmp	.+4      	; 0x872 <__EEPROM_REGION_LENGTH__+0x72>
 86e:	88 e5       	ldi	r24, 0x58	; 88
 870:	90 e0       	ldi	r25, 0x00	; 0
 872:	b6 01       	movw	r22, r12
 874:	0c c0       	rjmp	.+24     	; 0x88e <__EEPROM_REGION_LENGTH__+0x8e>
 876:	80 2f       	mov	r24, r16
 878:	86 78       	andi	r24, 0x86	; 134
 87a:	59 f0       	breq	.+22     	; 0x892 <__EEPROM_REGION_LENGTH__+0x92>
 87c:	01 ff       	sbrs	r16, 1
 87e:	02 c0       	rjmp	.+4      	; 0x884 <__EEPROM_REGION_LENGTH__+0x84>
 880:	8b e2       	ldi	r24, 0x2B	; 43
 882:	01 c0       	rjmp	.+2      	; 0x886 <__EEPROM_REGION_LENGTH__+0x86>
 884:	80 e2       	ldi	r24, 0x20	; 32
 886:	07 fd       	sbrc	r16, 7
 888:	8d e2       	ldi	r24, 0x2D	; 45
 88a:	b6 01       	movw	r22, r12
 88c:	90 e0       	ldi	r25, 0x00	; 0
 88e:	0e 94 7f 06 	call	0xcfe	; 0xcfe <fputc>
 892:	a1 16       	cp	r10, r17
 894:	38 f4       	brcc	.+14     	; 0x8a4 <__EEPROM_REGION_LENGTH__+0xa4>
 896:	b6 01       	movw	r22, r12
 898:	80 e3       	ldi	r24, 0x30	; 48
 89a:	90 e0       	ldi	r25, 0x00	; 0
 89c:	0e 94 7f 06 	call	0xcfe	; 0xcfe <fputc>
 8a0:	11 50       	subi	r17, 0x01	; 1
 8a2:	f7 cf       	rjmp	.-18     	; 0x892 <__EEPROM_REGION_LENGTH__+0x92>
 8a4:	aa 94       	dec	r10
 8a6:	e1 e0       	ldi	r30, 0x01	; 1
 8a8:	f0 e0       	ldi	r31, 0x00	; 0
 8aa:	ec 0f       	add	r30, r28
 8ac:	fd 1f       	adc	r31, r29
 8ae:	ea 0d       	add	r30, r10
 8b0:	f1 1d       	adc	r31, r1
 8b2:	80 81       	ld	r24, Z
 8b4:	b6 01       	movw	r22, r12
 8b6:	90 e0       	ldi	r25, 0x00	; 0
 8b8:	0e 94 7f 06 	call	0xcfe	; 0xcfe <fputc>
 8bc:	a1 10       	cpse	r10, r1
 8be:	f2 cf       	rjmp	.-28     	; 0x8a4 <__EEPROM_REGION_LENGTH__+0xa4>
 8c0:	19 c0       	rjmp	.+50     	; 0x8f4 <__EEPROM_REGION_LENGTH__+0xf4>
 8c2:	f4 e0       	ldi	r31, 0x04	; 4
 8c4:	ff 15       	cp	r31, r15
 8c6:	80 f5       	brcc	.+96     	; 0x928 <__EEPROM_REGION_LENGTH__+0x128>
 8c8:	84 e0       	ldi	r24, 0x04	; 4
 8ca:	f8 1a       	sub	r15, r24
 8cc:	73 fe       	sbrs	r7, 3
 8ce:	23 c0       	rjmp	.+70     	; 0x916 <__EEPROM_REGION_LENGTH__+0x116>
 8d0:	01 11       	cpse	r16, r1
 8d2:	2b c0       	rjmp	.+86     	; 0x92a <__EEPROM_REGION_LENGTH__+0x12a>
 8d4:	53 fe       	sbrs	r5, 3
 8d6:	2f c0       	rjmp	.+94     	; 0x936 <__EEPROM_REGION_LENGTH__+0x136>
 8d8:	58 e2       	ldi	r21, 0x28	; 40
 8da:	85 2e       	mov	r8, r21
 8dc:	52 e0       	ldi	r21, 0x02	; 2
 8de:	95 2e       	mov	r9, r21
 8e0:	50 e0       	ldi	r21, 0x00	; 0
 8e2:	a5 2e       	mov	r10, r21
 8e4:	07 2d       	mov	r16, r7
 8e6:	00 71       	andi	r16, 0x10	; 16
 8e8:	f4 01       	movw	r30, r8
 8ea:	84 91       	lpm	r24, Z
 8ec:	a7 fc       	sbrc	r10, 7
 8ee:	80 81       	ld	r24, Z
 8f0:	81 11       	cpse	r24, r1
 8f2:	28 c0       	rjmp	.+80     	; 0x944 <__EEPROM_REGION_LENGTH__+0x144>
 8f4:	ff 20       	and	r15, r15
 8f6:	09 f4       	brne	.+2      	; 0x8fa <__EEPROM_REGION_LENGTH__+0xfa>
 8f8:	d2 cc       	rjmp	.-1628   	; 0x29e <vfprintf+0x72>
 8fa:	b6 01       	movw	r22, r12
 8fc:	80 e2       	ldi	r24, 0x20	; 32
 8fe:	90 e0       	ldi	r25, 0x00	; 0
 900:	0e 94 7f 06 	call	0xcfe	; 0xcfe <fputc>
 904:	fa 94       	dec	r15
 906:	f6 cf       	rjmp	.-20     	; 0x8f4 <__EEPROM_REGION_LENGTH__+0xf4>
 908:	f6 01       	movw	r30, r12
 90a:	87 81       	ldd	r24, Z+7	; 0x07
 90c:	90 85       	ldd	r25, Z+8	; 0x08
 90e:	2c c0       	rjmp	.+88     	; 0x968 <__EEPROM_REGION_LENGTH__+0x168>
 910:	8f ef       	ldi	r24, 0xFF	; 255
 912:	9f ef       	ldi	r25, 0xFF	; 255
 914:	29 c0       	rjmp	.+82     	; 0x968 <__EEPROM_REGION_LENGTH__+0x168>
 916:	b6 01       	movw	r22, r12
 918:	80 e2       	ldi	r24, 0x20	; 32
 91a:	90 e0       	ldi	r25, 0x00	; 0
 91c:	0e 94 7f 06 	call	0xcfe	; 0xcfe <fputc>
 920:	fa 94       	dec	r15
 922:	f1 10       	cpse	r15, r1
 924:	f8 cf       	rjmp	.-16     	; 0x916 <__EEPROM_REGION_LENGTH__+0x116>
 926:	d4 cf       	rjmp	.-88     	; 0x8d0 <__EEPROM_REGION_LENGTH__+0xd0>
 928:	f1 2c       	mov	r15, r1
 92a:	b6 01       	movw	r22, r12
 92c:	80 2f       	mov	r24, r16
 92e:	90 e0       	ldi	r25, 0x00	; 0
 930:	0e 94 7f 06 	call	0xcfe	; 0xcfe <fputc>
 934:	cf cf       	rjmp	.-98     	; 0x8d4 <__EEPROM_REGION_LENGTH__+0xd4>
 936:	44 e2       	ldi	r20, 0x24	; 36
 938:	84 2e       	mov	r8, r20
 93a:	42 e0       	ldi	r20, 0x02	; 2
 93c:	94 2e       	mov	r9, r20
 93e:	40 e0       	ldi	r20, 0x00	; 0
 940:	a4 2e       	mov	r10, r20
 942:	d0 cf       	rjmp	.-96     	; 0x8e4 <__EEPROM_REGION_LENGTH__+0xe4>
 944:	01 11       	cpse	r16, r1
 946:	80 52       	subi	r24, 0x20	; 32
 948:	b6 01       	movw	r22, r12
 94a:	90 e0       	ldi	r25, 0x00	; 0
 94c:	0e 94 7f 06 	call	0xcfe	; 0xcfe <fputc>
 950:	ff ef       	ldi	r31, 0xFF	; 255
 952:	8f 1a       	sub	r8, r31
 954:	9f 0a       	sbc	r9, r31
 956:	af 0a       	sbc	r10, r31
 958:	c7 cf       	rjmp	.-114    	; 0x8e8 <__EEPROM_REGION_LENGTH__+0xe8>
 95a:	23 e0       	ldi	r18, 0x03	; 3
 95c:	2f 15       	cp	r18, r15
 95e:	10 f4       	brcc	.+4      	; 0x964 <__EEPROM_REGION_LENGTH__+0x164>
 960:	83 e0       	ldi	r24, 0x03	; 3
 962:	b3 cf       	rjmp	.-154    	; 0x8ca <__EEPROM_REGION_LENGTH__+0xca>
 964:	f1 2c       	mov	r15, r1
 966:	b6 cf       	rjmp	.-148    	; 0x8d4 <__EEPROM_REGION_LENGTH__+0xd4>
 968:	64 96       	adiw	r28, 0x14	; 20
 96a:	e2 e1       	ldi	r30, 0x12	; 18
 96c:	0c 94 ff 07 	jmp	0xffe	; 0xffe <__epilogue_restores__>

Disassembly of section .text.libgcc.prologue:

00000fc6 <__prologue_saves__>:
 fc6:	2f 92       	push	r2
 fc8:	3f 92       	push	r3
 fca:	4f 92       	push	r4
 fcc:	5f 92       	push	r5
 fce:	6f 92       	push	r6
 fd0:	7f 92       	push	r7
 fd2:	8f 92       	push	r8
 fd4:	9f 92       	push	r9
 fd6:	af 92       	push	r10
 fd8:	bf 92       	push	r11
 fda:	cf 92       	push	r12
 fdc:	df 92       	push	r13
 fde:	ef 92       	push	r14
 fe0:	ff 92       	push	r15
 fe2:	0f 93       	push	r16
 fe4:	1f 93       	push	r17
 fe6:	cf 93       	push	r28
 fe8:	df 93       	push	r29
 fea:	cd b7       	in	r28, 0x3d	; 61
 fec:	de b7       	in	r29, 0x3e	; 62
 fee:	ca 1b       	sub	r28, r26
 ff0:	db 0b       	sbc	r29, r27
 ff2:	0f b6       	in	r0, 0x3f	; 63
 ff4:	f8 94       	cli
 ff6:	de bf       	out	0x3e, r29	; 62
 ff8:	0f be       	out	0x3f, r0	; 63
 ffa:	cd bf       	out	0x3d, r28	; 61
 ffc:	09 94       	ijmp

Disassembly of section .text.libgcc.prologue:

00000ffe <__epilogue_restores__>:
     ffe:	2a 88       	ldd	r2, Y+18	; 0x12
    1000:	39 88       	ldd	r3, Y+17	; 0x11
    1002:	48 88       	ldd	r4, Y+16	; 0x10
    1004:	5f 84       	ldd	r5, Y+15	; 0x0f
    1006:	6e 84       	ldd	r6, Y+14	; 0x0e
    1008:	7d 84       	ldd	r7, Y+13	; 0x0d
    100a:	8c 84       	ldd	r8, Y+12	; 0x0c
    100c:	9b 84       	ldd	r9, Y+11	; 0x0b
    100e:	aa 84       	ldd	r10, Y+10	; 0x0a
    1010:	b9 84       	ldd	r11, Y+9	; 0x09
    1012:	c8 84       	ldd	r12, Y+8	; 0x08
    1014:	df 80       	ldd	r13, Y+7	; 0x07
    1016:	ee 80       	ldd	r14, Y+6	; 0x06
    1018:	fd 80       	ldd	r15, Y+5	; 0x05
    101a:	0c 81       	ldd	r16, Y+4	; 0x04
    101c:	1b 81       	ldd	r17, Y+3	; 0x03
    101e:	aa 81       	ldd	r26, Y+2	; 0x02
    1020:	b9 81       	ldd	r27, Y+1	; 0x01
    1022:	ce 0f       	add	r28, r30
    1024:	d1 1d       	adc	r29, r1
    1026:	0f b6       	in	r0, 0x3f	; 63
    1028:	f8 94       	cli
    102a:	de bf       	out	0x3e, r29	; 62
    102c:	0f be       	out	0x3f, r0	; 63
    102e:	cd bf       	out	0x3d, r28	; 61
    1030:	ed 01       	movw	r28, r26
    1032:	08 95       	ret

Disassembly of section .text.avrlibc:

00000970 <__ftoa_engine>:
 970:	28 30       	cpi	r18, 0x08	; 8
 972:	08 f0       	brcs	.+2      	; 0x976 <__ftoa_engine+0x6>
 974:	27 e0       	ldi	r18, 0x07	; 7
 976:	33 27       	eor	r19, r19
 978:	da 01       	movw	r26, r20
 97a:	99 0f       	add	r25, r25
 97c:	31 1d       	adc	r19, r1
 97e:	87 fd       	sbrc	r24, 7
 980:	91 60       	ori	r25, 0x01	; 1
 982:	00 96       	adiw	r24, 0x00	; 0
 984:	61 05       	cpc	r22, r1
 986:	71 05       	cpc	r23, r1
 988:	39 f4       	brne	.+14     	; 0x998 <__ftoa_engine+0x28>
 98a:	32 60       	ori	r19, 0x02	; 2
 98c:	2e 5f       	subi	r18, 0xFE	; 254
 98e:	3d 93       	st	X+, r19
 990:	30 e3       	ldi	r19, 0x30	; 48
 992:	2a 95       	dec	r18
 994:	e1 f7       	brne	.-8      	; 0x98e <__ftoa_engine+0x1e>
 996:	08 95       	ret
 998:	9f 3f       	cpi	r25, 0xFF	; 255
 99a:	30 f0       	brcs	.+12     	; 0x9a8 <__ftoa_engine+0x38>
 99c:	80 38       	cpi	r24, 0x80	; 128
 99e:	71 05       	cpc	r23, r1
 9a0:	61 05       	cpc	r22, r1
 9a2:	09 f0       	breq	.+2      	; 0x9a6 <__ftoa_engine+0x36>
 9a4:	3c 5f       	subi	r19, 0xFC	; 252
 9a6:	3c 5f       	subi	r19, 0xFC	; 252
 9a8:	3d 93       	st	X+, r19
 9aa:	91 30       	cpi	r25, 0x01	; 1
 9ac:	08 f0       	brcs	.+2      	; 0x9b0 <__ftoa_engine+0x40>
 9ae:	80 68       	ori	r24, 0x80	; 128
 9b0:	91 1d       	adc	r25, r1
 9b2:	df 93       	push	r29
 9b4:	cf 93       	push	r28
 9b6:	1f 93       	push	r17
 9b8:	0f 93       	push	r16
 9ba:	ff 92       	push	r15
 9bc:	ef 92       	push	r14
 9be:	19 2f       	mov	r17, r25
 9c0:	98 7f       	andi	r25, 0xF8	; 248
 9c2:	96 95       	lsr	r25
 9c4:	e9 2f       	mov	r30, r25
 9c6:	96 95       	lsr	r25
 9c8:	96 95       	lsr	r25
 9ca:	e9 0f       	add	r30, r25
 9cc:	ff 27       	eor	r31, r31
 9ce:	e4 52       	subi	r30, 0x24	; 36
 9d0:	ff 4f       	sbci	r31, 0xFF	; 255
 9d2:	99 27       	eor	r25, r25
 9d4:	33 27       	eor	r19, r19
 9d6:	ee 24       	eor	r14, r14
 9d8:	ff 24       	eor	r15, r15
 9da:	a7 01       	movw	r20, r14
 9dc:	e7 01       	movw	r28, r14
 9de:	05 90       	lpm	r0, Z+
 9e0:	08 94       	sec
 9e2:	07 94       	ror	r0
 9e4:	28 f4       	brcc	.+10     	; 0x9f0 <__ftoa_engine+0x80>
 9e6:	36 0f       	add	r19, r22
 9e8:	e7 1e       	adc	r14, r23
 9ea:	f8 1e       	adc	r15, r24
 9ec:	49 1f       	adc	r20, r25
 9ee:	51 1d       	adc	r21, r1
 9f0:	66 0f       	add	r22, r22
 9f2:	77 1f       	adc	r23, r23
 9f4:	88 1f       	adc	r24, r24
 9f6:	99 1f       	adc	r25, r25
 9f8:	06 94       	lsr	r0
 9fa:	a1 f7       	brne	.-24     	; 0x9e4 <__ftoa_engine+0x74>
 9fc:	05 90       	lpm	r0, Z+
 9fe:	07 94       	ror	r0
 a00:	28 f4       	brcc	.+10     	; 0xa0c <__ftoa_engine+0x9c>
 a02:	e7 0e       	add	r14, r23
 a04:	f8 1e       	adc	r15, r24
 a06:	49 1f       	adc	r20, r25
 a08:	56 1f       	adc	r21, r22
 a0a:	c1 1d       	adc	r28, r1
 a0c:	77 0f       	add	r23, r23
 a0e:	88 1f       	adc	r24, r24
 a10:	99 1f       	adc	r25, r25
 a12:	66 1f       	adc	r22, r22
 a14:	06 94       	lsr	r0
 a16:	a1 f7       	brne	.-24     	; 0xa00 <__ftoa_engine+0x90>
 a18:	05 90       	lpm	r0, Z+
 a1a:	07 94       	ror	r0
 a1c:	28 f4       	brcc	.+10     	; 0xa28 <__ftoa_engine+0xb8>
 a1e:	f8 0e       	add	r15, r24
 a20:	49 1f       	adc	r20, r25
 a22:	56 1f       	adc	r21, r22
 a24:	c7 1f       	adc	r28, r23
 a26:	d1 1d       	adc	r29, r1
 a28:	88 0f       	add	r24, r24
 a2a:	99 1f       	adc	r25, r25
 a2c:	66 1f       	adc	r22, r22
 a2e:	77 1f       	adc	r23, r23
 a30:	06 94       	lsr	r0
 a32:	a1 f7       	brne	.-24     	; 0xa1c <__ftoa_engine+0xac>
 a34:	05 90       	lpm	r0, Z+
 a36:	07 94       	ror	r0
 a38:	20 f4       	brcc	.+8      	; 0xa42 <__ftoa_engine+0xd2>
 a3a:	49 0f       	add	r20, r25
 a3c:	56 1f       	adc	r21, r22
 a3e:	c7 1f       	adc	r28, r23
 a40:	d8 1f       	adc	r29, r24
 a42:	99 0f       	add	r25, r25
 a44:	66 1f       	adc	r22, r22
 a46:	77 1f       	adc	r23, r23
 a48:	88 1f       	adc	r24, r24
 a4a:	06 94       	lsr	r0
 a4c:	a9 f7       	brne	.-22     	; 0xa38 <__ftoa_engine+0xc8>
 a4e:	84 91       	lpm	r24, Z
 a50:	10 95       	com	r17
 a52:	17 70       	andi	r17, 0x07	; 7
 a54:	41 f0       	breq	.+16     	; 0xa66 <__ftoa_engine+0xf6>
 a56:	d6 95       	lsr	r29
 a58:	c7 95       	ror	r28
 a5a:	57 95       	ror	r21
 a5c:	47 95       	ror	r20
 a5e:	f7 94       	ror	r15
 a60:	e7 94       	ror	r14
 a62:	1a 95       	dec	r17
 a64:	c1 f7       	brne	.-16     	; 0xa56 <__ftoa_engine+0xe6>
 a66:	e2 e8       	ldi	r30, 0x82	; 130
 a68:	f0 e0       	ldi	r31, 0x00	; 0
 a6a:	68 94       	set
 a6c:	15 90       	lpm	r1, Z+
 a6e:	15 91       	lpm	r17, Z+
 a70:	35 91       	lpm	r19, Z+
 a72:	65 91       	lpm	r22, Z+
 a74:	95 91       	lpm	r25, Z+
 a76:	05 90       	lpm	r0, Z+
 a78:	7f e2       	ldi	r23, 0x2F	; 47
 a7a:	73 95       	inc	r23
 a7c:	e1 18       	sub	r14, r1
 a7e:	f1 0a       	sbc	r15, r17
 a80:	43 0b       	sbc	r20, r19
 a82:	56 0b       	sbc	r21, r22
 a84:	c9 0b       	sbc	r28, r25
 a86:	d0 09       	sbc	r29, r0
 a88:	c0 f7       	brcc	.-16     	; 0xa7a <__ftoa_engine+0x10a>
 a8a:	e1 0c       	add	r14, r1
 a8c:	f1 1e       	adc	r15, r17
 a8e:	43 1f       	adc	r20, r19
 a90:	56 1f       	adc	r21, r22
 a92:	c9 1f       	adc	r28, r25
 a94:	d0 1d       	adc	r29, r0
 a96:	7e f4       	brtc	.+30     	; 0xab6 <__ftoa_engine+0x146>
 a98:	70 33       	cpi	r23, 0x30	; 48
 a9a:	11 f4       	brne	.+4      	; 0xaa0 <__ftoa_engine+0x130>
 a9c:	8a 95       	dec	r24
 a9e:	e6 cf       	rjmp	.-52     	; 0xa6c <__ftoa_engine+0xfc>
 aa0:	e8 94       	clt
 aa2:	01 50       	subi	r16, 0x01	; 1
 aa4:	30 f0       	brcs	.+12     	; 0xab2 <__ftoa_engine+0x142>
 aa6:	08 0f       	add	r16, r24
 aa8:	0a f4       	brpl	.+2      	; 0xaac <__ftoa_engine+0x13c>
 aaa:	00 27       	eor	r16, r16
 aac:	02 17       	cp	r16, r18
 aae:	08 f4       	brcc	.+2      	; 0xab2 <__ftoa_engine+0x142>
 ab0:	20 2f       	mov	r18, r16
 ab2:	23 95       	inc	r18
 ab4:	02 2f       	mov	r16, r18
 ab6:	7a 33       	cpi	r23, 0x3A	; 58
 ab8:	28 f0       	brcs	.+10     	; 0xac4 <__ftoa_engine+0x154>
 aba:	79 e3       	ldi	r23, 0x39	; 57
 abc:	7d 93       	st	X+, r23
 abe:	2a 95       	dec	r18
 ac0:	e9 f7       	brne	.-6      	; 0xabc <__ftoa_engine+0x14c>
 ac2:	10 c0       	rjmp	.+32     	; 0xae4 <__ftoa_engine+0x174>
 ac4:	7d 93       	st	X+, r23
 ac6:	2a 95       	dec	r18
 ac8:	89 f6       	brne	.-94     	; 0xa6c <__ftoa_engine+0xfc>
 aca:	06 94       	lsr	r0
 acc:	97 95       	ror	r25
 ace:	67 95       	ror	r22
 ad0:	37 95       	ror	r19
 ad2:	17 95       	ror	r17
 ad4:	17 94       	ror	r1
 ad6:	e1 18       	sub	r14, r1
 ad8:	f1 0a       	sbc	r15, r17
 ada:	43 0b       	sbc	r20, r19
 adc:	56 0b       	sbc	r21, r22
 ade:	c9 0b       	sbc	r28, r25
 ae0:	d0 09       	sbc	r29, r0
 ae2:	98 f0       	brcs	.+38     	; 0xb0a <__ftoa_engine+0x19a>
 ae4:	23 95       	inc	r18
 ae6:	7e 91       	ld	r23, -X
 ae8:	73 95       	inc	r23
 aea:	7a 33       	cpi	r23, 0x3A	; 58
 aec:	08 f0       	brcs	.+2      	; 0xaf0 <__ftoa_engine+0x180>
 aee:	70 e3       	ldi	r23, 0x30	; 48
 af0:	7c 93       	st	X, r23
 af2:	20 13       	cpse	r18, r16
 af4:	b8 f7       	brcc	.-18     	; 0xae4 <__ftoa_engine+0x174>
 af6:	7e 91       	ld	r23, -X
 af8:	70 61       	ori	r23, 0x10	; 16
 afa:	7d 93       	st	X+, r23
 afc:	30 f0       	brcs	.+12     	; 0xb0a <__ftoa_engine+0x19a>
 afe:	83 95       	inc	r24
 b00:	71 e3       	ldi	r23, 0x31	; 49
 b02:	7d 93       	st	X+, r23
 b04:	70 e3       	ldi	r23, 0x30	; 48
 b06:	2a 95       	dec	r18
 b08:	e1 f7       	brne	.-8      	; 0xb02 <__ftoa_engine+0x192>
 b0a:	11 24       	eor	r1, r1
 b0c:	ef 90       	pop	r14
 b0e:	ff 90       	pop	r15
 b10:	0f 91       	pop	r16
 b12:	1f 91       	pop	r17
 b14:	cf 91       	pop	r28
 b16:	df 91       	pop	r29
 b18:	99 27       	eor	r25, r25
 b1a:	87 fd       	sbrc	r24, 7
 b1c:	90 95       	com	r25
 b1e:	08 95       	ret

Disassembly of section .text.avrlibc:

0000106a <strlen>:
    106a:	cf 92       	push	r12
    106c:	df 92       	push	r13
    106e:	ef 92       	push	r14
    1070:	6b 01       	movw	r12, r22
    1072:	e8 2e       	mov	r14, r24
    1074:	a8 2f       	mov	r26, r24
    1076:	cb 01       	movw	r24, r22
    1078:	fc 01       	movw	r30, r24
    107a:	24 91       	lpm	r18, Z
    107c:	a7 fd       	sbrc	r26, 7
    107e:	20 81       	ld	r18, Z
    1080:	22 23       	and	r18, r18
    1082:	19 f0       	breq	.+6      	; 0x108a <strlen+0x20>
    1084:	01 96       	adiw	r24, 0x01	; 1
    1086:	a1 1d       	adc	r26, r1
    1088:	f7 cf       	rjmp	.-18     	; 0x1078 <strlen+0xe>
    108a:	8c 19       	sub	r24, r12
    108c:	9d 09       	sbc	r25, r13
    108e:	ef 90       	pop	r14
    1090:	df 90       	pop	r13
    1092:	cf 90       	pop	r12
    1094:	08 95       	ret

Disassembly of section .text.avrlibc:

00001034 <strnlen>:
    1034:	cf 92       	push	r12
    1036:	df 92       	push	r13
    1038:	ef 92       	push	r14
    103a:	6b 01       	movw	r12, r22
    103c:	e8 2e       	mov	r14, r24
    103e:	a8 2f       	mov	r26, r24
    1040:	cb 01       	movw	r24, r22
    1042:	41 15       	cp	r20, r1
    1044:	51 05       	cpc	r21, r1
    1046:	31 f4       	brne	.+12     	; 0x1054 <strnlen+0x20>
    1048:	8c 19       	sub	r24, r12
    104a:	9d 09       	sbc	r25, r13
    104c:	ef 90       	pop	r14
    104e:	df 90       	pop	r13
    1050:	cf 90       	pop	r12
    1052:	08 95       	ret
    1054:	fc 01       	movw	r30, r24
    1056:	24 91       	lpm	r18, Z
    1058:	a7 fd       	sbrc	r26, 7
    105a:	20 81       	ld	r18, Z
    105c:	22 23       	and	r18, r18
    105e:	a1 f3       	breq	.-24     	; 0x1048 <strnlen+0x14>
    1060:	01 96       	adiw	r24, 0x01	; 1
    1062:	a1 1d       	adc	r26, r1
    1064:	41 50       	subi	r20, 0x01	; 1
    1066:	51 09       	sbc	r21, r1
    1068:	ec cf       	rjmp	.-40     	; 0x1042 <strnlen+0xe>

Disassembly of section .text.avrlibc:

00000cfe <fputc>:
 cfe:	0f 93       	push	r16
 d00:	1f 93       	push	r17
 d02:	cf 93       	push	r28
 d04:	df 93       	push	r29
 d06:	fb 01       	movw	r30, r22
 d08:	24 81       	ldd	r18, Z+4	; 0x04
 d0a:	21 fd       	sbrc	r18, 1
 d0c:	03 c0       	rjmp	.+6      	; 0xd14 <fputc+0x16>
 d0e:	8f ef       	ldi	r24, 0xFF	; 255
 d10:	9f ef       	ldi	r25, 0xFF	; 255
 d12:	2c c0       	rjmp	.+88     	; 0xd6c <fputc+0x6e>
 d14:	22 ff       	sbrs	r18, 2
 d16:	16 c0       	rjmp	.+44     	; 0xd44 <fputc+0x46>
 d18:	47 81       	ldd	r20, Z+7	; 0x07
 d1a:	50 85       	ldd	r21, Z+8	; 0x08
 d1c:	25 81       	ldd	r18, Z+5	; 0x05
 d1e:	36 81       	ldd	r19, Z+6	; 0x06
 d20:	42 17       	cp	r20, r18
 d22:	53 07       	cpc	r21, r19
 d24:	44 f4       	brge	.+16     	; 0xd36 <fputc+0x38>
 d26:	a0 81       	ld	r26, Z
 d28:	b1 81       	ldd	r27, Z+1	; 0x01
 d2a:	9d 01       	movw	r18, r26
 d2c:	2f 5f       	subi	r18, 0xFF	; 255
 d2e:	3f 4f       	sbci	r19, 0xFF	; 255
 d30:	31 83       	std	Z+1, r19	; 0x01
 d32:	20 83       	st	Z, r18
 d34:	8c 93       	st	X, r24
 d36:	27 81       	ldd	r18, Z+7	; 0x07
 d38:	30 85       	ldd	r19, Z+8	; 0x08
 d3a:	2f 5f       	subi	r18, 0xFF	; 255
 d3c:	3f 4f       	sbci	r19, 0xFF	; 255
 d3e:	30 87       	std	Z+8, r19	; 0x08
 d40:	27 83       	std	Z+7, r18	; 0x07
 d42:	14 c0       	rjmp	.+40     	; 0xd6c <fputc+0x6e>
 d44:	8b 01       	movw	r16, r22
 d46:	ec 01       	movw	r28, r24
 d48:	fb 01       	movw	r30, r22
 d4a:	01 84       	ldd	r0, Z+9	; 0x09
 d4c:	f2 85       	ldd	r31, Z+10	; 0x0a
 d4e:	e0 2d       	mov	r30, r0
 d50:	09 95       	icall
 d52:	89 2b       	or	r24, r25
 d54:	e1 f6       	brne	.-72     	; 0xd0e <fputc+0x10>
 d56:	d8 01       	movw	r26, r16
 d58:	17 96       	adiw	r26, 0x07	; 7
 d5a:	8d 91       	ld	r24, X+
 d5c:	9c 91       	ld	r25, X
 d5e:	18 97       	sbiw	r26, 0x08	; 8
 d60:	01 96       	adiw	r24, 0x01	; 1
 d62:	18 96       	adiw	r26, 0x08	; 8
 d64:	9c 93       	st	X, r25
 d66:	8e 93       	st	-X, r24
 d68:	17 97       	sbiw	r26, 0x07	; 7
 d6a:	ce 01       	movw	r24, r28
 d6c:	df 91       	pop	r29
 d6e:	cf 91       	pop	r28
 d70:	1f 91       	pop	r17
 d72:	0f 91       	pop	r16
 d74:	08 95       	ret

Disassembly of section .text.avrlibc:

00000b20 <__ultoa_invert>:
 b20:	fa 01       	movw	r30, r20
 b22:	aa 27       	eor	r26, r26
 b24:	28 30       	cpi	r18, 0x08	; 8
 b26:	51 f1       	breq	.+84     	; 0xb7c <__ultoa_invert+0x5c>
 b28:	20 31       	cpi	r18, 0x10	; 16
 b2a:	81 f1       	breq	.+96     	; 0xb8c <__ultoa_invert+0x6c>
 b2c:	e8 94       	clt
 b2e:	6f 93       	push	r22
 b30:	6e 7f       	andi	r22, 0xFE	; 254
 b32:	6e 5f       	subi	r22, 0xFE	; 254
 b34:	7f 4f       	sbci	r23, 0xFF	; 255
 b36:	8f 4f       	sbci	r24, 0xFF	; 255
 b38:	9f 4f       	sbci	r25, 0xFF	; 255
 b3a:	af 4f       	sbci	r26, 0xFF	; 255
 b3c:	b1 e0       	ldi	r27, 0x01	; 1
 b3e:	3e d0       	rcall	.+124    	; 0xbbc <__ultoa_invert+0x9c>
 b40:	b4 e0       	ldi	r27, 0x04	; 4
 b42:	3c d0       	rcall	.+120    	; 0xbbc <__ultoa_invert+0x9c>
 b44:	67 0f       	add	r22, r23
 b46:	78 1f       	adc	r23, r24
 b48:	89 1f       	adc	r24, r25
 b4a:	9a 1f       	adc	r25, r26
 b4c:	a1 1d       	adc	r26, r1
 b4e:	68 0f       	add	r22, r24
 b50:	79 1f       	adc	r23, r25
 b52:	8a 1f       	adc	r24, r26
 b54:	91 1d       	adc	r25, r1
 b56:	a1 1d       	adc	r26, r1
 b58:	6a 0f       	add	r22, r26
 b5a:	71 1d       	adc	r23, r1
 b5c:	81 1d       	adc	r24, r1
 b5e:	91 1d       	adc	r25, r1
 b60:	a1 1d       	adc	r26, r1
 b62:	20 d0       	rcall	.+64     	; 0xba4 <__ultoa_invert+0x84>
 b64:	09 f4       	brne	.+2      	; 0xb68 <__ultoa_invert+0x48>
 b66:	68 94       	set
 b68:	3f 91       	pop	r19
 b6a:	2a e0       	ldi	r18, 0x0A	; 10
 b6c:	26 9f       	mul	r18, r22
 b6e:	11 24       	eor	r1, r1
 b70:	30 19       	sub	r19, r0
 b72:	30 5d       	subi	r19, 0xD0	; 208
 b74:	31 93       	st	Z+, r19
 b76:	de f6       	brtc	.-74     	; 0xb2e <__ultoa_invert+0xe>
 b78:	cf 01       	movw	r24, r30
 b7a:	08 95       	ret
 b7c:	46 2f       	mov	r20, r22
 b7e:	47 70       	andi	r20, 0x07	; 7
 b80:	40 5d       	subi	r20, 0xD0	; 208
 b82:	41 93       	st	Z+, r20
 b84:	b3 e0       	ldi	r27, 0x03	; 3
 b86:	0f d0       	rcall	.+30     	; 0xba6 <__ultoa_invert+0x86>
 b88:	c9 f7       	brne	.-14     	; 0xb7c <__ultoa_invert+0x5c>
 b8a:	f6 cf       	rjmp	.-20     	; 0xb78 <__ultoa_invert+0x58>
 b8c:	46 2f       	mov	r20, r22
 b8e:	4f 70       	andi	r20, 0x0F	; 15
 b90:	40 5d       	subi	r20, 0xD0	; 208
 b92:	4a 33       	cpi	r20, 0x3A	; 58
 b94:	18 f0       	brcs	.+6      	; 0xb9c <__ultoa_invert+0x7c>
 b96:	49 5d       	subi	r20, 0xD9	; 217
 b98:	31 fd       	sbrc	r19, 1
 b9a:	40 52       	subi	r20, 0x20	; 32
 b9c:	41 93       	st	Z+, r20
 b9e:	02 d0       	rcall	.+4      	; 0xba4 <__ultoa_invert+0x84>
 ba0:	a9 f7       	brne	.-22     	; 0xb8c <__ultoa_invert+0x6c>
 ba2:	ea cf       	rjmp	.-44     	; 0xb78 <__ultoa_invert+0x58>
 ba4:	b4 e0       	ldi	r27, 0x04	; 4
 ba6:	a6 95       	lsr	r26
 ba8:	97 95       	ror	r25
 baa:	87 95       	ror	r24
 bac:	77 95       	ror	r23
 bae:	67 95       	ror	r22
 bb0:	ba 95       	dec	r27
 bb2:	c9 f7       	brne	.-14     	; 0xba6 <__ultoa_invert+0x86>
 bb4:	00 97       	sbiw	r24, 0x00	; 0
 bb6:	61 05       	cpc	r22, r1
 bb8:	71 05       	cpc	r23, r1
 bba:	08 95       	ret
 bbc:	9b 01       	movw	r18, r22
 bbe:	ac 01       	movw	r20, r24
 bc0:	0a 2e       	mov	r0, r26
 bc2:	06 94       	lsr	r0
 bc4:	57 95       	ror	r21
 bc6:	47 95       	ror	r20
 bc8:	37 95       	ror	r19
 bca:	27 95       	ror	r18
 bcc:	ba 95       	dec	r27
 bce:	c9 f7       	brne	.-14     	; 0xbc2 <__ultoa_invert+0xa2>
 bd0:	62 0f       	add	r22, r18
 bd2:	73 1f       	adc	r23, r19
 bd4:	84 1f       	adc	r24, r20
 bd6:	95 1f       	adc	r25, r21
 bd8:	a0 1d       	adc	r26, r0
 bda:	08 95       	ret
