
methane_sensor_v1.elf:     file format elf32-avr

Sections:
Idx Name          Size      VMA       LMA       File off  Algn
  0 .data         00000000  00800100  00800100  00003222  2**0
                  ALLOC, LOAD, DATA
  1 .text         0000013e  00000000  00000000  000000f4  2**1
                  CONTENTS, ALLOC, LOAD, READONLY, CODE
  2 .bss          000005b4  00800100  00800100  00003222  2**0
                  ALLOC
  3 .comment      0000005b  00000000  00000000  00003222  2**0
                  CONTENTS, READONLY
  4 .debug_aranges 00000778  00000000  00000000  0000327d  2**0
                  CONTENTS, READONLY, DEBUGGING
  5 .debug_info   0000b4ed  00000000  00000000  000039f5  2**0
                  CONTENTS, READONLY, DEBUGGING
  6 .debug_abbrev 000025e9  00000000  00000000  0000eee2  2**0
                  CONTENTS, READONLY, DEBUGGING
  7 .debug_line   0000400e  00000000  00000000  000114cb  2**0
                  CONTENTS, READONLY, DEBUGGING
  8 .debug_frame  00001420  00000000  00000000  000154dc  2**2
                  CONTENTS, READONLY, DEBUGGING
  9 .debug_str    00000c4d  00000000  00000000  000168fc  2**0
                  CONTENTS, READONLY, DEBUGGING
 10 .debug_loc    00004a2f  00000000  00000000  00017549  2**0
                  CONTENTS, READONLY, DEBUGGING
 11 .debug_ranges 00000690  00000000  00000000  0001bf78  2**0
                  CONTENTS, READONLY, DEBUGGING
 12 .text         00000004  00003116  00003116  0000320a  2**1
                  CONTENTS, ALLOC, LOAD, READONLY, CODE
 13 .note.gnu.avr.deviceinfo 00000040  00000000  00000000  0001c608  2**2
                  CONTENTS, READONLY, DEBUGGING
 14 .text.PM_HAL_adc_power_init 0000000e  00002fe2  00002fe2  000030d6  2**1
                  CONTENTS, ALLOC, LOAD, READONLY, CODE
 15 .text.PM_HAL_meth_power_init 0000000e  00002ff0  00002ff0  000030e4  2**1
                  CONTENTS, ALLOC, LOAD, READONLY, CODE
 16 .text.PM_HAL_meth_power 00000014  00002f26  00002f26  0000301a  2**1
                  CONTENTS, ALLOC, LOAD, READONLY, CODE
 17 .text.PM_HAL_SCD30_power_init 0000000e  00002ffe  00002ffe  000030f2  2**1
                  CONTENTS, ALLOC, LOAD, READONLY, CODE
 18 .text.PM_HAL_SCD30_power 00000014  00002f3a  00002f3a  0000302e  2**1
                  CONTENTS, ALLOC, LOAD, READONLY, CODE
 19 .text.PM_HAL_BC_power_init 0000000e  0000300c  0000300c  00003100  2**1
                  CONTENTS, ALLOC, LOAD, READONLY, CODE
 20 .text.PM_HAL_enter_power_down 00000042  000025b2  000025b2  000026a6  2**1
                  CONTENTS, ALLOC, LOAD, READONLY, CODE
 21 .text.__vector_3 00000014  00002f4e  00002f4e  00003042  2**1
                  CONTENTS, ALLOC, LOAD, READONLY, CODE
 22 .text.rn2483_reset_active 00000008  000030c0  000030c0  000031b4  2**1
                  CONTENTS, ALLOC, LOAD, READONLY, CODE
 23 .text.rn2483_reset_deactive 00000008  000030c8  000030c8  000031bc  2**1
                  CONTENTS, ALLOC, LOAD, READONLY, CODE
 24 .text.SCD30_HAL_init 0000000e  0000301a  0000301a  0000310e  2**1
                  CONTENTS, ALLOC, LOAD, READONLY, CODE
 25 .text.SCD30_HAL_data_ready 0000000a  00003098  00003098  0000318c  2**1
                  CONTENTS, ALLOC, LOAD, READONLY, CODE
 26 .text.TC0_HAL_init 00000020  00002cfc  00002cfc  00002df0  2**1
                  CONTENTS, ALLOC, LOAD, READONLY, CODE
 27 .text.TC0_HAL_start 00000006  000030e0  000030e0  000031d4  2**1
                  CONTENTS, ALLOC, LOAD, READONLY, CODE
 28 .text.TC0_HAL_stop 00000004  0000311a  0000311a  0000320e  2**1
                  CONTENTS, ALLOC, LOAD, READONLY, CODE
 29 .text.__vector_16 0000004e  0000208a  0000208a  0000217e  2**1
                  CONTENTS, ALLOC, LOAD, READONLY, CODE
 30 .bss._cb      00000002  00800924  00800924  00003222  2**0
                  ALLOC
 31 .text.TC1_HAL_init 00000034  0000292e  0000292e  00002a22  2**1
                  CONTENTS, ALLOC, LOAD, READONLY, CODE
 32 .text.TC1_HAL_start 0000000c  00003044  00003044  00003138  2**1
                  CONTENTS, ALLOC, LOAD, READONLY, CODE
 33 .text.TC1_HAL_stop 0000000c  00003050  00003050  00003144  2**1
                  CONTENTS, ALLOC, LOAD, READONLY, CODE
 34 .text.__vector_13 0000004e  000020d8  000020d8  000021cc  2**1
                  CONTENTS, ALLOC, LOAD, READONLY, CODE
 35 .bss._cb      00000002  00800926  00800926  00003222  2**0
                  ALLOC
 36 .text.start_timer 00000008  000030d0  000030d0  000031c4  2**1
                  CONTENTS, ALLOC, LOAD, READONLY, CODE
 37 .text.stop_timer 00000006  000030e6  000030e6  000031da  2**1
                  CONTENTS, ALLOC, LOAD, READONLY, CODE
 38 .text.TC2_HAL_init 00000020  00002d1c  00002d1c  00002e10  2**1
                  CONTENTS, ALLOC, LOAD, READONLY, CODE
 39 .text.TC2_HAL_subscribe 00000054  00001f94  00001f94  00002088  2**1
                  CONTENTS, ALLOC, LOAD, READONLY, CODE
 40 .text.TC2_HAL_cancel 0000003a  000027ac  000027ac  000028a0  2**1
                  CONTENTS, ALLOC, LOAD, READONLY, CODE
 41 .text.__vector_9 00000098  000017e4  000017e4  000018d8  2**1
                  CONTENTS, ALLOC, LOAD, READONLY, CODE
 42 .bss.cnt      00000001  0080092a  0080092a  00003222  2**0
                  ALLOC
 43 .bss.cbCounter 00000001  0080092b  0080092b  00003222  2**0
                  ALLOC
 44 .bss.callbacks 0000000a  0080090c  0080090c  00003222  2**0
                  ALLOC
 45 .text.start_and_write_data 0000004c  000021c2  000021c2  000022b6  2**1
                  CONTENTS, ALLOC, LOAD, READONLY, CODE
 46 .text.read_and_stop 0000005a  00001ee2  00001ee2  00001fd6  2**1
                  CONTENTS, ALLOC, LOAD, READONLY, CODE
 47 .text.TWI_API_write_data 00000006  000030ec  000030ec  000031e0  2**1
                  CONTENTS, ALLOC, LOAD, READONLY, CODE
 48 .text.TWI_API_write_data_stop 00000010  00002fc2  00002fc2  000030b6  2**1
                  CONTENTS, ALLOC, LOAD, READONLY, CODE
 49 .text.TWI_API_read_data_ack_end_nack_stop 00000024  00002c2e  00002c2e  00002d22  2**1
                  CONTENTS, ALLOC, LOAD, READONLY, CODE
 50 .text.TWI_API_repeat_read_data_stop 00000022  00002c52  00002c52  00002d46  2**1
                  CONTENTS, ALLOC, LOAD, READONLY, CODE
 51 .text.TWI_HAL_init 00000012  00002f9e  00002f9e  00003092  2**1
                  CONTENTS, ALLOC, LOAD, READONLY, CODE
 52 .text.TWI_HAL_start 00000048  00002338  00002338  0000242c  2**1
                  CONTENTS, ALLOC, LOAD, READONLY, CODE
 53 .text.TWI_HAL_repeated_start 00000042  000025f4  000025f4  000026e8  2**1
                  CONTENTS, ALLOC, LOAD, READONLY, CODE
 54 .text.TWI_HAL_write_byte 00000020  00002d3c  00002d3c  00002e30  2**1
                  CONTENTS, ALLOC, LOAD, READONLY, CODE
 55 .text.TWI_HAL_read_byte_ack 00000014  00002f62  00002f62  00003056  2**1
                  CONTENTS, ALLOC, LOAD, READONLY, CODE
 56 .text.TWI_HAL_read_byte_nack 00000014  00002f76  00002f76  0000306a  2**1
                  CONTENTS, ALLOC, LOAD, READONLY, CODE
 57 .text.TWI_HAL_stop 00000010  00002fd2  00002fd2  000030c6  2**1
                  CONTENTS, ALLOC, LOAD, READONLY, CODE
 58 .text.copy_buffer 0000002e  00002b54  00002b54  00002c48  2**1
                  CONTENTS, ALLOC, LOAD, READONLY, CODE
 59 .text.uart0_hal_init 0000003c  00002734  00002734  00002828  2**1
                  CONTENTS, ALLOC, LOAD, READONLY, CODE
 60 .text.uart0_hal_send_message 00000034  00002962  00002962  00002a56  2**1
                  CONTENTS, ALLOC, LOAD, READONLY, CODE
 61 .text.uart0_hal_send_string 0000006a  00001cf4  00001cf4  00001de8  2**1
                  CONTENTS, ALLOC, LOAD, READONLY, CODE
 62 .text.uart0_hal_message_ready 0000000e  00003028  00003028  0000311c  2**1
                  CONTENTS, ALLOC, LOAD, READONLY, CODE
 63 .text.uart0_hal_clear_rx_buffer 0000000a  000030a2  000030a2  00003196  2**1
                  CONTENTS, ALLOC, LOAD, READONLY, CODE
 64 .text.uart0_hal_read_message_as_str 00000028  00002c06  00002c06  00002cfa  2**1
                  CONTENTS, ALLOC, LOAD, READONLY, CODE
 65 .text.uart0_hal_send_break 00000046  00002458  00002458  0000254c  2**1
                  CONTENTS, ALLOC, LOAD, READONLY, CODE
 66 .text.__vector_22 0000004a  0000225a  0000225a  0000234e  2**1
                  CONTENTS, ALLOC, LOAD, READONLY, CODE
 67 .text.__vector_20 00000074  00001ba0  00001ba0  00001c94  2**1
                  CONTENTS, ALLOC, LOAD, READONLY, CODE
 68 .bss.rx_buffer_has_message 00000001  0080092c  0080092c  00003222  2**0
                  ALLOC
 69 .bss.rx_buffer_data_len 00000001  0080092d  0080092d  00003222  2**0
                  ALLOC
 70 .bss.tx_buffer_cursor 00000001  0080092e  0080092e  00003222  2**0
                  ALLOC
 71 .bss.tx_buffer_data_len 00000001  0080092f  0080092f  00003222  2**0
                  ALLOC
 72 .text.uart1_hal_init 0000003c  00002770  00002770  00002864  2**1
                  CONTENTS, ALLOC, LOAD, READONLY, CODE
 73 .text.__vector_30 0000004a  000022a4  000022a4  00002398  2**1
                  CONTENTS, ALLOC, LOAD, READONLY, CODE
 74 .text.__vector_28 00000070  00001c14  00001c14  00001d08  2**1
                  CONTENTS, ALLOC, LOAD, READONLY, CODE
 75 .bss.rx_buffer_has_message 00000001  00800930  00800930  00003222  2**0
                  ALLOC
 76 .bss.rx_buffer_data_len 00000001  00800931  00800931  00003222  2**0
                  ALLOC
 77 .bss.rx_buffer 00000064  008008a8  008008a8  00003222  2**0
                  ALLOC
 78 .bss.tx_buffer_cursor 00000001  00800932  00800932  00003222  2**0
                  ALLOC
 79 .bss.tx_buffer_data_len 00000001  00800933  00800933  00003222  2**0
                  ALLOC
 80 .bss.tx_buffer 0000012c  008006b4  008006b4  00003222  2**0
                  ALLOC
 81 .text.main    00000018  00002e98  00002e98  00002f8c  2**1
                  CONTENTS, ALLOC, LOAD, READONLY, CODE
 82 .text.vect_ADC_heat_timeout 00000018  00002eb0  00002eb0  00002fa4  2**1
                  CONTENTS, ALLOC, LOAD, READONLY, CODE
 83 .text.ADC_meth_sens_power_on 00000020  00002d5c  00002d5c  00002e50  2**1
                  CONTENTS, ALLOC, LOAD, READONLY, CODE
 84 .text.ADC_meth_sens_ready 00000012  00002fb0  00002fb0  000030a4  2**1
                  CONTENTS, ALLOC, LOAD, READONLY, CODE
 85 .bss.cntPowerUpTime 00000001  00800934  00800934  00003222  2**0
                  ALLOC
 86 .bss._powerUpTime 00000001  00800935  00800935  00003222  2**0
                  ALLOC
 87 .progmemx.data 00000038  00000283  00000283  00000377  2**0
                  CONTENTS, ALLOC, LOAD, READONLY, PROGMEMX
 88 .text.JN_join_network 00000296  0000075a  0000075a  0000084e  2**1
                  CONTENTS, ALLOC, LOAD, READONLY, CODE
 89 .text.set_block_uplink 00000018  00002ec8  00002ec8  00002fbc  2**1
                  CONTENTS, ALLOC, LOAD, READONLY, CODE
 90 .text.block_uplink 0000001c  00002dd8  00002dd8  00002ecc  2**1
                  CONTENTS, ALLOC, LOAD, READONLY, CODE
 91 .text.LM_join_network 00000006  000030f2  000030f2  000031e6  2**1
                  CONTENTS, ALLOC, LOAD, READONLY, CODE
 92 .text.LM_send_uplink 0000002e  00002b82  00002b82  00002c76  2**1
                  CONTENTS, ALLOC, LOAD, READONLY, CODE
 93 .text.LM_put_to_sleep 00000006  000030f8  000030f8  000031ec  2**1
                  CONTENTS, ALLOC, LOAD, READONLY, CODE
 94 .text.LM_wake_up 00000006  000030fe  000030fe  000031f2  2**1
                  CONTENTS, ALLOC, LOAD, READONLY, CODE
 95 .text.LM_is_free 0000000a  000030ac  000030ac  000031a0  2**1
                  CONTENTS, ALLOC, LOAD, READONLY, CODE
 96 .bss.subPointer 00000001  00800936  00800936  00003222  2**0
                  ALLOC
 97 .bss.busy     00000001  00800937  00800937  00003222  2**0
                  ALLOC
 98 .bss.cnt      00000001  00800938  00800938  00003222  2**0
                  ALLOC
 99 .progmemx.data 00000073  00000210  00000210  00000304  2**0
                  CONTENTS, ALLOC, LOAD, READONLY, PROGMEMX
100 .text.tohex   00000084  00001a2a  00001a2a  00001b1e  2**1
                  CONTENTS, ALLOC, LOAD, READONLY, CODE
101 .text.attach_ending 0000001c  00002df4  00002df4  00002ee8  2**1
                  CONTENTS, ALLOC, LOAD, READONLY, CODE
102 .text.cmd_with_ending 00000032  000029ca  000029ca  00002abe  2**1
                  CONTENTS, ALLOC, LOAD, READONLY, CODE
103 .text.sys_sleep_cmd 0000005e  00001dc8  00001dc8  00001ebc  2**1
                  CONTENTS, ALLOC, LOAD, READONLY, CODE
104 .text.mac_set_parameter 0000004e  00002126  00002126  0000221a  2**1
                  CONTENTS, ALLOC, LOAD, READONLY, CODE
105 .text.mac_set_deveui 00000048  00002380  00002380  00002474  2**1
                  CONTENTS, ALLOC, LOAD, READONLY, CODE
106 .text.mac_set_appeui 00000048  000023c8  000023c8  000024bc  2**1
                  CONTENTS, ALLOC, LOAD, READONLY, CODE
107 .text.mac_set_appkey 00000048  00002410  00002410  00002504  2**1
                  CONTENTS, ALLOC, LOAD, READONLY, CODE
108 .text.mac_set_ADR 00000030  00002ac4  00002ac4  00002bb8  2**1
                  CONTENTS, ALLOC, LOAD, READONLY, CODE
109 .text.mac_tx_confirmed 000000ac  000014b6  000014b6  000015aa  2**1
                  CONTENTS, ALLOC, LOAD, READONLY, CODE
110 .text.beginsWidth 0000004a  000022ee  000022ee  000023e2  2**1
                  CONTENTS, ALLOC, LOAD, READONLY, CODE
111 .progmemx.data 00000027  000002bb  000002bb  000003af  2**0
                  CONTENTS, ALLOC, LOAD, READONLY, PROGMEMX
112 .text.decode_tx_response 00000052  00001fe8  00001fe8  000020dc  2**1
                  CONTENTS, ALLOC, LOAD, READONLY, CODE
113 .text.SU_send_uplink 000000f8  00001166  00001166  0000125a  2**1
                  CONTENTS, ALLOC, LOAD, READONLY, CODE
114 .progmemx.data 00000003  0000030c  0000030c  00000400  2**0
                  CONTENTS, ALLOC, LOAD, READONLY, PROGMEMX
115 .text.SC_put_to_sleep 0000004c  0000220e  0000220e  00002302  2**1
                  CONTENTS, ALLOC, LOAD, READONLY, CODE
116 .text.SC_wake_up 00000032  000029fc  000029fc  00002af0  2**1
                  CONTENTS, ALLOC, LOAD, READONLY, CODE
117 .text.LM_strbeginswith 00000044  0000252a  0000252a  0000261e  2**1
                  CONTENTS, ALLOC, LOAD, READONLY, CODE
118 .text.util_setPendingStates 0000000c  0000305c  0000305c  00003150  2**1
                  CONTENTS, ALLOC, LOAD, READONLY, CODE
119 .text.util_setMatchCase 0000000c  00003068  00003068  0000315c  2**1
                  CONTENTS, ALLOC, LOAD, READONLY, CODE
120 .text.util_matchMessage 0000005e  00001e26  00001e26  00001f1a  2**1
                  CONTENTS, ALLOC, LOAD, READONLY, CODE
121 .text.util_transmit_msg 0000001c  00002e10  00002e10  00002f04  2**1
                  CONTENTS, ALLOC, LOAD, READONLY, CODE
122 .text.util_read_msg 00000006  00003104  00003104  000031f8  2**1
                  CONTENTS, ALLOC, LOAD, READONLY, CODE
123 .progmemx.data 00000020  000002e2  000002e2  000003d6  2**0
                  CONTENTS, ALLOC, LOAD, READONLY, PROGMEMX
124 .text.util_parse_err 00000058  00001f3c  00001f3c  00002030  2**1
                  CONTENTS, ALLOC, LOAD, READONLY, CODE
125 .text.get_group_id 00000006  0000310a  0000310a  000031fe  2**1
                  CONTENTS, ALLOC, LOAD, READONLY, CODE
126 .text.set_group_id 00000006  00003110  00003110  00003204  2**1
                  CONTENTS, ALLOC, LOAD, READONLY, CODE
127 .text.MRPP_init_group 00000032  00002a2e  00002a2e  00002b22  2**1
                  CONTENTS, ALLOC, LOAD, READONLY, CODE
128 .text.MRPP_add_collection_data_INT16 00000070  00001c84  00001c84  00001d78  2**1
                  CONTENTS, ALLOC, LOAD, READONLY, CODE
129 .text.MRPP_is_body_package_ready 00000022  00002c74  00002c74  00002d68  2**1
                  CONTENTS, ALLOC, LOAD, READONLY, CODE
130 .text.MRPP_get_ready_body_package 00000096  0000187c  0000187c  00001970  2**1
                  CONTENTS, ALLOC, LOAD, READONLY, CODE
131 .text.MRPP_set_body_sent 0000000c  00003074  00003074  00003168  2**1
                  CONTENTS, ALLOC, LOAD, READONLY, CODE
132 .text.MRPP_get_header_package 00000022  00002c96  00002c96  00002d8a  2**1
                  CONTENTS, ALLOC, LOAD, READONLY, CODE
133 .text.MRPP_get_tail_package 00000022  00002cb8  00002cb8  00002dac  2**1
                  CONTENTS, ALLOC, LOAD, READONLY, CODE
134 .text.MRPP_all_body_package_sent 0000000a  000030b6  000030b6  000031aa  2**1
                  CONTENTS, ALLOC, LOAD, READONLY, CODE
135 .bss._groupId 00000001  00800939  00800939  00003222  2**0
                  ALLOC
136 .text.mrpp_data_add_int16 00000092  00001912  00001912  00001a06  2**1
                  CONTENTS, ALLOC, LOAD, READONLY, CODE
137 .text.mrpp_data_get 00000030  00002af4  00002af4  00002be8  2**1
                  CONTENTS, ALLOC, LOAD, READONLY, CODE
138 .text.add_data_types 000000d8  0000125e  0000125e  00001352  2**1
                  CONTENTS, ALLOC, LOAD, READONLY, CODE
139 .text.update_bodies 00000162  00000daa  00000daa  00000e9e  2**1
                  CONTENTS, ALLOC, LOAD, READONLY, CODE
140 .text.mrpp_state_init 000001be  00000bec  00000bec  00000ce0  2**1
                  CONTENTS, ALLOC, LOAD, READONLY, CODE
141 .text.mrpp_state_get_header 000000a2  00001606  00001606  000016fa  2**1
                  CONTENTS, ALLOC, LOAD, READONLY, CODE
142 .text.mrpp_state_get_tail 000000a4  00001562  00001562  00001656  2**1
                  CONTENTS, ALLOC, LOAD, READONLY, CODE
143 .text.mrpp_state_set_collection 00000086  000019a4  000019a4  00001a98  2**1
                  CONTENTS, ALLOC, LOAD, READONLY, CODE
144 .text.mrpp_state_is_body_ready 00000030  00002b24  00002b24  00002c18  2**1
                  CONTENTS, ALLOC, LOAD, READONLY, CODE
145 .text.mrpp_state_all_bodies_sent 0000002a  00002bdc  00002bdc  00002cd0  2**1
                  CONTENTS, ALLOC, LOAD, READONLY, CODE
146 .text.mrpp_state_get_ready_body 0000011a  0000104c  0000104c  00001140  2**1
                  CONTENTS, ALLOC, LOAD, READONLY, CODE
147 .text.mrpp_state_set_body_sent 00000020  00002d7c  00002d7c  00002e70  2**1
                  CONTENTS, ALLOC, LOAD, READONLY, CODE
148 .text.mrpp_state_get_collection_address 00000036  00002856  00002856  0000294a  2**1
                  CONTENTS, ALLOC, LOAD, READONLY, CODE
149 .text.RTC_set_clock_out 00000050  0000203a  0000203a  0000212e  2**1
                  CONTENTS, ALLOC, LOAD, READONLY, CODE
150 .text.RTC_clear_wake_up_interrupt 00000034  00002996  00002996  00002a8a  2**1
                  CONTENTS, ALLOC, LOAD, READONLY, CODE
151 .text.RTC_get_current_time 00000140  00000f0c  00000f0c  00001000  2**1
                  CONTENTS, ALLOC, LOAD, READONLY, CODE
152 .rodata       00000005  00800916  0000311e  00003212  2**0
                  CONTENTS, ALLOC, LOAD, DATA
153 .text.RTC_set_wake_up_interrupt_minutes 000000c4  00001336  00001336  0000142a  2**1
                  CONTENTS, ALLOC, LOAD, READONLY, CODE
154 .progmemx.data.CMD_READ_TIME_POINTER 00000001  00000311  00000311  00000405  2**0
                  CONTENTS, ALLOC, LOAD, READONLY, PROGMEMX
155 .text.bytes_2_uint 0000001a  00002e64  00002e64  00002f58  2**1
                  CONTENTS, ALLOC, LOAD, READONLY, CODE
156 .text.init_measurement 00000038  000027e6  000027e6  000028da  2**1
                  CONTENTS, ALLOC, LOAD, READONLY, CODE
157 .text.validate_data 00000032  00002a60  00002a60  00002b54  2**1
                  CONTENTS, ALLOC, LOAD, READONLY, CODE
158 .text.read_value 000000a2  000016a8  000016a8  0000179c  2**1
                  CONTENTS, ALLOC, LOAD, READONLY, CODE
159 .text.vect_SCD_do_sample 00000046  0000249e  0000249e  00002592  2**1
                  CONTENTS, ALLOC, LOAD, READONLY, CODE
160 .text.SCD30_init_sampling 0000004e  00002174  00002174  00002268  2**1
                  CONTENTS, ALLOC, LOAD, READONLY, CODE
161 .text.SCD30_deinit 00000014  00002f8a  00002f8a  0000307e  2**1
                  CONTENTS, ALLOC, LOAD, READONLY, CODE
162 .text.SCD30_start_sampling 0000000c  00003080  00003080  00003174  2**1
                  CONTENTS, ALLOC, LOAD, READONLY, CODE
163 .text.SCD30_is_sampling_done 0000001c  00002e2c  00002e2c  00002f20  2**1
                  CONTENTS, ALLOC, LOAD, READONLY, CODE
164 .progmemx.data.READ_DATA_CMD 00000002  0000030f  0000030f  00000403  2**0
                  CONTENTS, ALLOC, LOAD, READONLY, PROGMEMX
165 .progmemx.data.SET_MEASUREMENT_INTERVAL 00000005  00000302  00000302  000003f6  2**0
                  CONTENTS, ALLOC, LOAD, READONLY, PROGMEMX
166 .progmemx.data.TRIGGER_CONT_MEASUREMENT 00000005  00000307  00000307  000003fb  2**0
                  CONTENTS, ALLOC, LOAD, READONLY, PROGMEMX
167 .text.decode_stage_response 00000016  00002f10  00002f10  00003004  2**1
                  CONTENTS, ALLOC, LOAD, READONLY, CODE
168 .text.decode_join_response 0000001c  00002e48  00002e48  00002f3c  2**1
                  CONTENTS, ALLOC, LOAD, READONLY, CODE
169 .text.decode_header_tail_response 00000018  00002ee0  00002ee0  00002fd4  2**1
                  CONTENTS, ALLOC, LOAD, READONLY, CODE
170 .progmemx.data 000000d2  0000013e  0000013e  00000232  2**0
                  CONTENTS, ALLOC, LOAD, READONLY, PROGMEMX
171 .text.join_lora 0000007a  00001aae  00001aae  00001ba2  2**1
                  CONTENTS, ALLOC, LOAD, READONLY, CODE
172 .text.set_wakeup 00000008  000030d8  000030d8  000031cc  2**1
                  CONTENTS, ALLOC, LOAD, READONLY, CODE
173 .text.send_header 0000003e  000026b8  000026b8  000027ac  2**1
                  CONTENTS, ALLOC, LOAD, READONLY, CODE
174 .text.stage_0 0000009a  0000174a  0000174a  0000183e  2**1
                  CONTENTS, ALLOC, LOAD, READONLY, CODE
175 .text.send_body 00000040  00002678  00002678  0000276c  2**1
                  CONTENTS, ALLOC, LOAD, READONLY, CODE
176 .text.decode_body_response 00000022  00002cda  00002cda  00002dce  2**1
                  CONTENTS, ALLOC, LOAD, READONLY, CODE
177 .text.send_tail 0000003e  000026f6  000026f6  000027ea  2**1
                  CONTENTS, ALLOC, LOAD, READONLY, CODE
178 .text.send_msg 00000018  00002ef8  00002ef8  00002fec  2**1
                  CONTENTS, ALLOC, LOAD, READONLY, CODE
179 .text.MAINPG_start 000001fc  000009f0  000009f0  00000ae4  2**1
                  CONTENTS, ALLOC, LOAD, READONLY, CODE
180 .data.fakeTS  00000004  00800920  00003128  0000321c  2**0
                  CONTENTS, ALLOC, LOAD, DATA
181 .bss.co2_data 000000c8  008007e0  008007e0  00003222  2**0
                  ALLOC
182 .data.bodyIndex 00000002  00800928  0000312c  00003220  2**0
                  CONTENTS, ALLOC, LOAD, DATA
183 .data.collections 00000005  0080091b  00003123  00003217  2**0
                  CONTENTS, ALLOC, LOAD, DATA
184 .bss.state_s0 00000001  0080093a  0080093a  00003222  2**0
                  ALLOC
185 .text.calc_crc8 00000036  0000288c  0000288c  00002980  2**1
                  CONTENTS, ALLOC, LOAD, READONLY, CODE
186 .text.avrlibc.fplib 0000005e  00001e84  00001e84  00001f78  2**1
                  CONTENTS, ALLOC, LOAD, READONLY, CODE
187 .text.avrlibc.fplib 00000044  0000256e  0000256e  00002662  2**1
                  CONTENTS, ALLOC, LOAD, READONLY, CODE
188 .text.avrlibc.fplib 0000000e  00003036  00003036  0000312a  2**1
                  CONTENTS, ALLOC, LOAD, READONLY, CODE
189 .text.libgcc  0000000c  0000308c  0000308c  00003180  2**1
                  CONTENTS, ALLOC, LOAD, READONLY, CODE
190 .text.libgcc.mul 0000001e  00002d9c  00002d9c  00002e90  2**1
                  CONTENTS, ALLOC, LOAD, READONLY, CODE
191 .text.libgcc  0000001a  00002e7e  00002e7e  00002f72  2**1
                  CONTENTS, ALLOC, LOAD, READONLY, CODE
192 .text.avrlibc 00000032  00002a92  00002a92  00002b86  2**1
                  CONTENTS, ALLOC, LOAD, READONLY, CODE
193 .text.avrlibc 00000042  00002636  00002636  0000272a  2**1
                  CONTENTS, ALLOC, LOAD, READONLY, CODE
194 .text.avrlibc 0000006a  00001d5e  00001d5e  00001e52  2**1
                  CONTENTS, ALLOC, LOAD, READONLY, CODE
195 .text.avrlibc 0000002c  00002bb0  00002bb0  00002ca4  2**1
                  CONTENTS, ALLOC, LOAD, READONLY, CODE
196 .text.avrlibc 0000001e  00002dba  00002dba  00002eae  2**1
                  CONTENTS, ALLOC, LOAD, READONLY, CODE
197 .text.avrlibc 00000046  000024e4  000024e4  000025d8  2**1
                  CONTENTS, ALLOC, LOAD, READONLY, CODE
198 .text.avrlibc 00000448  00000312  00000312  00000406  2**1
                  CONTENTS, ALLOC, LOAD, READONLY, CODE
199 .text.avrlibc 00000036  000028c2  000028c2  000029b6  2**1
                  CONTENTS, ALLOC, LOAD, READONLY, CODE
200 .text.avrlibc 00000078  00001b28  00001b28  00001c1c  2**1
                  CONTENTS, ALLOC, LOAD, READONLY, CODE
201 .text.avrlibc 000000bc  000013fa  000013fa  000014ee  2**1
                  CONTENTS, ALLOC, LOAD, READONLY, CODE
202 .text.libgcc.prologue 00000038  0000281e  0000281e  00002912  2**1
                  CONTENTS, ALLOC, LOAD, READONLY, CODE
203 .text.libgcc.prologue 00000036  000028f8  000028f8  000029ec  2**1
                  CONTENTS, ALLOC, LOAD, READONLY, CODE

Disassembly of section .text:

00000000 <__vectors>:
   0:	0c 94 75 00 	jmp	0xea	; 0xea <__ctors_end>
   4:	0c 94 8b 18 	jmp	0x3116	; 0x3116 <__bad_interrupt>
   8:	0c 94 8b 18 	jmp	0x3116	; 0x3116 <__bad_interrupt>
   c:	0c 94 a7 17 	jmp	0x2f4e	; 0x2f4e <__vector_3>
  10:	0c 94 8b 18 	jmp	0x3116	; 0x3116 <__bad_interrupt>
  14:	0c 94 8b 18 	jmp	0x3116	; 0x3116 <__bad_interrupt>
  18:	0c 94 8b 18 	jmp	0x3116	; 0x3116 <__bad_interrupt>
  1c:	0c 94 8b 18 	jmp	0x3116	; 0x3116 <__bad_interrupt>
  20:	0c 94 8b 18 	jmp	0x3116	; 0x3116 <__bad_interrupt>
  24:	0c 94 f2 0b 	jmp	0x17e4	; 0x17e4 <__vector_9>
  28:	0c 94 8b 18 	jmp	0x3116	; 0x3116 <__bad_interrupt>
  2c:	0c 94 8b 18 	jmp	0x3116	; 0x3116 <__bad_interrupt>
  30:	0c 94 8b 18 	jmp	0x3116	; 0x3116 <__bad_interrupt>
  34:	0c 94 6c 10 	jmp	0x20d8	; 0x20d8 <__vector_13>
  38:	0c 94 8b 18 	jmp	0x3116	; 0x3116 <__bad_interrupt>
  3c:	0c 94 8b 18 	jmp	0x3116	; 0x3116 <__bad_interrupt>
  40:	0c 94 45 10 	jmp	0x208a	; 0x208a <__vector_16>
  44:	0c 94 8b 18 	jmp	0x3116	; 0x3116 <__bad_interrupt>
  48:	0c 94 8b 18 	jmp	0x3116	; 0x3116 <__bad_interrupt>
  4c:	0c 94 8b 18 	jmp	0x3116	; 0x3116 <__bad_interrupt>
  50:	0c 94 d0 0d 	jmp	0x1ba0	; 0x1ba0 <__vector_20>
  54:	0c 94 8b 18 	jmp	0x3116	; 0x3116 <__bad_interrupt>
  58:	0c 94 2d 11 	jmp	0x225a	; 0x225a <__vector_22>
  5c:	0c 94 8b 18 	jmp	0x3116	; 0x3116 <__bad_interrupt>
  60:	0c 94 8b 18 	jmp	0x3116	; 0x3116 <__bad_interrupt>
  64:	0c 94 8b 18 	jmp	0x3116	; 0x3116 <__bad_interrupt>
  68:	0c 94 8b 18 	jmp	0x3116	; 0x3116 <__bad_interrupt>
  6c:	0c 94 8b 18 	jmp	0x3116	; 0x3116 <__bad_interrupt>
  70:	0c 94 0a 0e 	jmp	0x1c14	; 0x1c14 <__vector_28>
  74:	0c 94 8b 18 	jmp	0x3116	; 0x3116 <__bad_interrupt>
  78:	0c 94 52 11 	jmp	0x22a4	; 0x22a4 <__vector_30>
  7c:	cb 03       	fmulsu	r20, r19
  7e:	d4 04       	cpc	r13, r4
  80:	ea 03       	fmulsu	r22, r18
  82:	07 04       	cpc	r0, r7
  84:	26 04       	cpc	r2, r6
  86:	45 04       	cpc	r4, r5
  88:	64 04       	cpc	r6, r4
  8a:	83 04       	cpc	r8, r3
  8c:	a0 04       	cpc	r10, r0
  8e:	bd 04       	cpc	r11, r13
  90:	cf 04       	cpc	r12, r15
  92:	e5 04       	cpc	r14, r5
  94:	e7 04       	cpc	r14, r7
  96:	cf 08       	sbc	r12, r15
  98:	02 09       	sbc	r16, r2
  9a:	f0 08       	sbc	r15, r0
  9c:	1e 09       	sbc	r17, r14
  9e:	1e 09       	sbc	r17, r14
  a0:	0d 09       	sbc	r16, r13
  a2:	0b 09       	sbc	r16, r11
  a4:	20 09       	sbc	r18, r0
  a6:	09 09       	sbc	r16, r9
  a8:	17 05       	cpc	r17, r7
  aa:	31 05       	cpc	r19, r1
  ac:	47 05       	cpc	r20, r7
  ae:	57 05       	cpc	r21, r7
  b0:	3c 05       	cpc	r19, r12
  b2:	5e 05       	cpc	r21, r14
  b4:	75 05       	cpc	r23, r5
  b6:	6a 05       	cpc	r22, r10
  b8:	80 05       	cpc	r24, r0
  ba:	99 05       	cpc	r25, r9
  bc:	a1 05       	cpc	r26, r1
  be:	bd 05       	cpc	r27, r13
  c0:	8c 05       	cpc	r24, r12
  c2:	c4 05       	cpc	r28, r4
  c4:	d1 05       	cpc	r29, r1
  c6:	d8 05       	cpc	r29, r8
  c8:	e6 05       	cpc	r30, r6
  ca:	ed 05       	cpc	r30, r13

000000cc <.dinit>:
  cc:	01 00       	.word	0x0001	; ????
  ce:	09 16       	cp	r0, r25
  d0:	80 09       	sbc	r24, r0
  d2:	16 09       	sbc	r17, r6
  d4:	24 00       	.word	0x0024	; ????
  d6:	31 1e       	adc	r3, r17
  d8:	09 24       	eor	r0, r9
  da:	09 28       	or	r0, r9
  dc:	80 09       	sbc	r24, r0
  de:	28 09       	sbc	r18, r8
  e0:	2a 00       	.word	0x002a	; ????
  e2:	31 2c       	mov	r3, r1
  e4:	09 2a       	or	r0, r25
  e6:	09 3b       	cpi	r16, 0xB9	; 185
  e8:	80 00       	.word	0x0080	; ????

000000ea <__ctors_end>:
  ea:	11 24       	eor	r1, r1
  ec:	1f be       	out	0x3f, r1	; 63
  ee:	cf ef       	ldi	r28, 0xFF	; 255
  f0:	d0 e1       	ldi	r29, 0x10	; 16
  f2:	de bf       	out	0x3e, r29	; 62
  f4:	cd bf       	out	0x3d, r28	; 61

000000f6 <__do_copy_data>:
  f6:	ec ec       	ldi	r30, 0xCC	; 204
  f8:	f0 e0       	ldi	r31, 0x00	; 0
  fa:	40 e0       	ldi	r20, 0x00	; 0
  fc:	17 c0       	rjmp	.+46     	; 0x12c <__do_clear_bss+0x8>
  fe:	b5 91       	lpm	r27, Z+
 100:	a5 91       	lpm	r26, Z+
 102:	35 91       	lpm	r19, Z+
 104:	25 91       	lpm	r18, Z+
 106:	05 91       	lpm	r16, Z+
 108:	07 fd       	sbrc	r16, 7
 10a:	0c c0       	rjmp	.+24     	; 0x124 <__do_clear_bss>
 10c:	95 91       	lpm	r25, Z+
 10e:	85 91       	lpm	r24, Z+
 110:	ef 01       	movw	r28, r30
 112:	f9 2f       	mov	r31, r25
 114:	e8 2f       	mov	r30, r24
 116:	05 90       	lpm	r0, Z+
 118:	0d 92       	st	X+, r0
 11a:	a2 17       	cp	r26, r18
 11c:	b3 07       	cpc	r27, r19
 11e:	d9 f7       	brne	.-10     	; 0x116 <__do_copy_data+0x20>
 120:	fe 01       	movw	r30, r28
 122:	04 c0       	rjmp	.+8      	; 0x12c <__do_clear_bss+0x8>

00000124 <__do_clear_bss>:
 124:	1d 92       	st	X+, r1
 126:	a2 17       	cp	r26, r18
 128:	b3 07       	cpc	r27, r19
 12a:	e1 f7       	brne	.-8      	; 0x124 <__do_clear_bss>
 12c:	e9 3e       	cpi	r30, 0xE9	; 233
 12e:	f4 07       	cpc	r31, r20
 130:	31 f7       	brne	.-52     	; 0xfe <__do_copy_data+0x8>
 132:	0e 94 4c 17 	call	0x2e98	; 0x2e98 <main>
 136:	0c 94 9d 00 	jmp	0x13a	; 0x13a <_exit>

0000013a <_exit>:
 13a:	f8 94       	cli

0000013c <__stop_program>:
 13c:	ff cf       	rjmp	.-2      	; 0x13c <__stop_program>

Disassembly of section .text:

00003116 <__bad_interrupt>:
    3116:	0c 94 00 00 	jmp	0	; 0x0 <__TEXT_REGION_ORIGIN__>

Disassembly of section .text.PM_HAL_adc_power_init:

00002fe2 <PM_HAL_adc_power_init>:

void PM_HAL_adc_power(bool on){
	if(on){
		set_bit(PORTA, 3);
	}else{
		clear_bit(PORTA, 3);
    2fe2:	81 b1       	in	r24, 0x01	; 1
    2fe4:	88 60       	ori	r24, 0x08	; 8
    2fe6:	81 b9       	out	0x01, r24	; 1
    2fe8:	82 b1       	in	r24, 0x02	; 2
    2fea:	87 7f       	andi	r24, 0xF7	; 247
    2fec:	82 b9       	out	0x02, r24	; 2
    2fee:	08 95       	ret

Disassembly of section .text.PM_HAL_meth_power_init:

00002ff0 <PM_HAL_meth_power_init>:
	}
}

void PM_HAL_meth_power_init(){
	set_bit(DDRA, 5);
    2ff0:	81 b1       	in	r24, 0x01	; 1
    2ff2:	80 62       	ori	r24, 0x20	; 32
    2ff4:	81 b9       	out	0x01, r24	; 1
	clear_bit(PORTA, 5);
    2ff6:	82 b1       	in	r24, 0x02	; 2
    2ff8:	8f 7d       	andi	r24, 0xDF	; 223
    2ffa:	82 b9       	out	0x02, r24	; 2
    2ffc:	08 95       	ret

Disassembly of section .text.PM_HAL_meth_power:

00002f26 <PM_HAL_meth_power>:

void PM_HAL_adc_power(bool on){
	if(on){
		set_bit(PORTA, 3);
	}else{
		clear_bit(PORTA, 3);
    2f26:	88 23       	and	r24, r24
    2f28:	21 f0       	breq	.+8      	; 0x2f32 <PM_HAL_meth_power+0xc>
    2f2a:	82 b1       	in	r24, 0x02	; 2
    2f2c:	80 62       	ori	r24, 0x20	; 32
    2f2e:	82 b9       	out	0x02, r24	; 2
    2f30:	08 95       	ret
    2f32:	82 b1       	in	r24, 0x02	; 2
    2f34:	8f 7d       	andi	r24, 0xDF	; 223
    2f36:	82 b9       	out	0x02, r24	; 2
    2f38:	08 95       	ret

Disassembly of section .text.PM_HAL_SCD30_power_init:

00002ffe <PM_HAL_SCD30_power_init>:
		clear_bit(PORTA, 5);
	}
}

void PM_HAL_SCD30_power_init(){
	set_bit(DDRA, 4);
    2ffe:	81 b1       	in	r24, 0x01	; 1
    3000:	80 61       	ori	r24, 0x10	; 16
    3002:	81 b9       	out	0x01, r24	; 1
	clear_bit(PORTA, 4);
    3004:	82 b1       	in	r24, 0x02	; 2
    3006:	8f 7e       	andi	r24, 0xEF	; 239
    3008:	82 b9       	out	0x02, r24	; 2
    300a:	08 95       	ret

Disassembly of section .text.PM_HAL_SCD30_power:

00002f3a <PM_HAL_SCD30_power>:

void PM_HAL_adc_power(bool on){
	if(on){
		set_bit(PORTA, 3);
	}else{
		clear_bit(PORTA, 3);
    2f3a:	88 23       	and	r24, r24
    2f3c:	21 f0       	breq	.+8      	; 0x2f46 <PM_HAL_SCD30_power+0xc>
    2f3e:	82 b1       	in	r24, 0x02	; 2
    2f40:	80 61       	ori	r24, 0x10	; 16
    2f42:	82 b9       	out	0x02, r24	; 2
    2f44:	08 95       	ret
    2f46:	82 b1       	in	r24, 0x02	; 2
    2f48:	8f 7e       	andi	r24, 0xEF	; 239
    2f4a:	82 b9       	out	0x02, r24	; 2
    2f4c:	08 95       	ret

Disassembly of section .text.PM_HAL_BC_power_init:

0000300c <PM_HAL_BC_power_init>:
		clear_bit(PORTA, 4);
	}
}

void PM_HAL_BC_power_init(){
	set_bit(DDRD, 4);
    300c:	8a b1       	in	r24, 0x0a	; 10
    300e:	80 61       	ori	r24, 0x10	; 16
    3010:	8a b9       	out	0x0a, r24	; 10
	clear_bit(PORTD, 4);
    3012:	8b b1       	in	r24, 0x0b	; 11
    3014:	8f 7e       	andi	r24, 0xEF	; 239
    3016:	8b b9       	out	0x0b, r24	; 11
    3018:	08 95       	ret

Disassembly of section .text.PM_HAL_enter_power_down:

000025b2 <PM_HAL_enter_power_down>:

void PM_HAL_adc_power(bool on){
	if(on){
		set_bit(PORTA, 3);
	}else{
		clear_bit(PORTA, 3);
    25b2:	84 b1       	in	r24, 0x04	; 4
    25b4:	8b 7f       	andi	r24, 0xFB	; 251
    25b6:	84 b9       	out	0x04, r24	; 4
    25b8:	85 b1       	in	r24, 0x05	; 5
    25ba:	84 60       	ori	r24, 0x04	; 4
    25bc:	85 b9       	out	0x05, r24	; 5
    25be:	e9 e6       	ldi	r30, 0x69	; 105
    25c0:	f0 e0       	ldi	r31, 0x00	; 0
    25c2:	80 81       	ld	r24, Z
    25c4:	8f 7e       	andi	r24, 0xEF	; 239
    25c6:	80 83       	st	Z, r24
    25c8:	80 81       	ld	r24, Z
    25ca:	80 62       	ori	r24, 0x20	; 32
    25cc:	80 83       	st	Z, r24
    25ce:	8d b3       	in	r24, 0x1d	; 29
    25d0:	84 60       	ori	r24, 0x04	; 4
    25d2:	8d bb       	out	0x1d, r24	; 29
    25d4:	83 b7       	in	r24, 0x33	; 51
    25d6:	81 7f       	andi	r24, 0xF1	; 241
    25d8:	84 60       	ori	r24, 0x04	; 4
    25da:	83 bf       	out	0x33, r24	; 51
    25dc:	83 b7       	in	r24, 0x33	; 51
    25de:	81 60       	ori	r24, 0x01	; 1
    25e0:	83 bf       	out	0x33, r24	; 51
    25e2:	78 94       	sei
    25e4:	88 95       	sleep
    25e6:	83 b7       	in	r24, 0x33	; 51
    25e8:	8e 7f       	andi	r24, 0xFE	; 254
    25ea:	83 bf       	out	0x33, r24	; 51
    25ec:	8d b3       	in	r24, 0x1d	; 29
    25ee:	8b 7f       	andi	r24, 0xFB	; 251
    25f0:	8d bb       	out	0x1d, r24	; 29
    25f2:	08 95       	ret

Disassembly of section .text.__vector_3:

00002f4e <__vector_3>:
    2f4e:	1f 92       	push	r1
    2f50:	0f 92       	push	r0
    2f52:	0f b6       	in	r0, 0x3f	; 63
    2f54:	0f 92       	push	r0
    2f56:	11 24       	eor	r1, r1
    2f58:	0f 90       	pop	r0
    2f5a:	0f be       	out	0x3f, r0	; 63
    2f5c:	0f 90       	pop	r0
    2f5e:	1f 90       	pop	r1
    2f60:	18 95       	reti

Disassembly of section .text.rn2483_reset_active:

000030c0 <rn2483_reset_active>:
void rn2483_init(){
	set_bit(RN2483_DDR, RN2483_PIN);
}

void rn2483_reset_active(){
	clear_bit(RN2483_PORT, RN2483_PIN);
    30c0:	85 b1       	in	r24, 0x05	; 5
    30c2:	8f 7e       	andi	r24, 0xEF	; 239
    30c4:	85 b9       	out	0x05, r24	; 5
    30c6:	08 95       	ret

Disassembly of section .text.rn2483_reset_deactive:

000030c8 <rn2483_reset_deactive>:
}

void rn2483_reset_deactive(){
	set_bit(RN2483_PORT, RN2483_PIN);
    30c8:	85 b1       	in	r24, 0x05	; 5
    30ca:	80 61       	ori	r24, 0x10	; 16
    30cc:	85 b9       	out	0x05, r24	; 5
    30ce:	08 95       	ret

Disassembly of section .text.SCD30_HAL_init:

0000301a <SCD30_HAL_init>:
#include <xc.h>
#include "../../util/bit_operators.h"
#include <stdbool.h>

void SCD30_HAL_init(){
	clear_bit(DDRC, 6);
    301a:	87 b1       	in	r24, 0x07	; 7
    301c:	8f 7b       	andi	r24, 0xBF	; 191
    301e:	87 b9       	out	0x07, r24	; 7
	clear_bit(PORTC, 6);
    3020:	88 b1       	in	r24, 0x08	; 8
    3022:	8f 7b       	andi	r24, 0xBF	; 191
    3024:	88 b9       	out	0x08, r24	; 8
    3026:	08 95       	ret

Disassembly of section .text.SCD30_HAL_data_ready:

00003098 <SCD30_HAL_data_ready>:
}

bool SCD30_HAL_data_ready(){
	return get_bit(PINC, 6);
    3098:	86 b1       	in	r24, 0x06	; 6
    309a:	86 fb       	bst	r24, 6
    309c:	88 27       	eor	r24, r24
    309e:	80 f9       	bld	r24, 0
    30a0:	08 95       	ret

Disassembly of section .text.TC0_HAL_init:

00002cfc <TC0_HAL_init>:

static callback_ptr _cb;


void TC0_HAL_init(uint8_t match, callback_ptr cb){
	TCCR0A = 0b00000010; //Set CTC mode
    2cfc:	92 e0       	ldi	r25, 0x02	; 2
    2cfe:	94 bd       	out	0x24, r25	; 36
	TCCR0B= 0x00; //No clock (disabled)
    2d00:	15 bc       	out	0x25, r1	; 37
	
	OCR0A=match; //Set match value
    2d02:	87 bd       	out	0x27, r24	; 39
	TCNT0 = 0; //Set counter to 0
    2d04:	16 bc       	out	0x26, r1	; 38
	
	set_bit(TIMSK0, 1); //enable compare interrupt
    2d06:	ee e6       	ldi	r30, 0x6E	; 110
    2d08:	f0 e0       	ldi	r31, 0x00	; 0
    2d0a:	80 81       	ld	r24, Z
    2d0c:	82 60       	ori	r24, 0x02	; 2
    2d0e:	80 83       	st	Z, r24
	sei(); //Enable global interrupt
    2d10:	78 94       	sei
	
	//Set callback
	_cb=cb;
    2d12:	70 93 25 09 	sts	0x0925, r23	; 0x800925 <_cb+0x1>
    2d16:	60 93 24 09 	sts	0x0924, r22	; 0x800924 <_cb>
    2d1a:	08 95       	ret

Disassembly of section .text.TC0_HAL_start:

000030e0 <TC0_HAL_start>:
	
}


void TC0_HAL_start(){
	TCCR0B=0b00000110; 
    30e0:	86 e0       	ldi	r24, 0x06	; 6
    30e2:	85 bd       	out	0x25, r24	; 37
    30e4:	08 95       	ret

Disassembly of section .text.TC0_HAL_stop:

0000311a <TC0_HAL_stop>:
}

void TC0_HAL_stop(){
	TCCR0B=0x00; 
    311a:	15 bc       	out	0x25, r1	; 37
    311c:	08 95       	ret

Disassembly of section .text.__vector_16:

0000208a <__vector_16>:
}

ISR(TIMER0_COMPA_vect){
    208a:	1f 92       	push	r1
    208c:	0f 92       	push	r0
    208e:	0f b6       	in	r0, 0x3f	; 63
    2090:	0f 92       	push	r0
    2092:	11 24       	eor	r1, r1
    2094:	2f 93       	push	r18
    2096:	3f 93       	push	r19
    2098:	4f 93       	push	r20
    209a:	5f 93       	push	r21
    209c:	6f 93       	push	r22
    209e:	7f 93       	push	r23
    20a0:	8f 93       	push	r24
    20a2:	9f 93       	push	r25
    20a4:	af 93       	push	r26
    20a6:	bf 93       	push	r27
    20a8:	ef 93       	push	r30
    20aa:	ff 93       	push	r31
	_cb();
    20ac:	e0 91 24 09 	lds	r30, 0x0924	; 0x800924 <_cb>
    20b0:	f0 91 25 09 	lds	r31, 0x0925	; 0x800925 <_cb+0x1>
    20b4:	09 95       	icall
}
    20b6:	ff 91       	pop	r31
    20b8:	ef 91       	pop	r30
    20ba:	bf 91       	pop	r27
    20bc:	af 91       	pop	r26
    20be:	9f 91       	pop	r25
    20c0:	8f 91       	pop	r24
    20c2:	7f 91       	pop	r23
    20c4:	6f 91       	pop	r22
    20c6:	5f 91       	pop	r21
    20c8:	4f 91       	pop	r20
    20ca:	3f 91       	pop	r19
    20cc:	2f 91       	pop	r18
    20ce:	0f 90       	pop	r0
    20d0:	0f be       	out	0x3f, r0	; 63
    20d2:	0f 90       	pop	r0
    20d4:	1f 90       	pop	r1
    20d6:	18 95       	reti

Disassembly of section .text.TC1_HAL_init:

0000292e <TC1_HAL_init>:
#include "../../util/bit_operators.h"

static callback_ptr _cb;

void TC1_HAL_init(uint16_t match, callback_ptr cb){
	TCCR1A=0x00;
    292e:	10 92 80 00 	sts	0x0080, r1	; 0x800080 <__TEXT_REGION_LENGTH__+0x7f0080>
	TCCR1B=0b00001000; //Set CTC A mode
    2932:	28 e0       	ldi	r18, 0x08	; 8
    2934:	20 93 81 00 	sts	0x0081, r18	; 0x800081 <__TEXT_REGION_LENGTH__+0x7f0081>
	TCCR1C=0x00;
    2938:	10 92 82 00 	sts	0x0082, r1	; 0x800082 <__TEXT_REGION_LENGTH__+0x7f0082>
	
	OCR1A=match; //Set compare value
    293c:	90 93 89 00 	sts	0x0089, r25	; 0x800089 <__TEXT_REGION_LENGTH__+0x7f0089>
    2940:	80 93 88 00 	sts	0x0088, r24	; 0x800088 <__TEXT_REGION_LENGTH__+0x7f0088>
	TCNT1=0x0000; //Set counter to zero
    2944:	10 92 85 00 	sts	0x0085, r1	; 0x800085 <__TEXT_REGION_LENGTH__+0x7f0085>
    2948:	10 92 84 00 	sts	0x0084, r1	; 0x800084 <__TEXT_REGION_LENGTH__+0x7f0084>
	
	set_bit(TIMSK1, 1); //Enable interrupt on compare
    294c:	ef e6       	ldi	r30, 0x6F	; 111
    294e:	f0 e0       	ldi	r31, 0x00	; 0
    2950:	80 81       	ld	r24, Z
    2952:	82 60       	ori	r24, 0x02	; 2
    2954:	80 83       	st	Z, r24
	sei();
    2956:	78 94       	sei
	
	_cb=cb; //Set callback pointer
    2958:	70 93 27 09 	sts	0x0927, r23	; 0x800927 <_cb+0x1>
    295c:	60 93 26 09 	sts	0x0926, r22	; 0x800926 <_cb>
    2960:	08 95       	ret

Disassembly of section .text.TC1_HAL_start:

00003044 <TC1_HAL_start>:
}

void TC1_HAL_start(){
	set_byte(TCCR1B, 0b00000110);
    3044:	e1 e8       	ldi	r30, 0x81	; 129
    3046:	f0 e0       	ldi	r31, 0x00	; 0
    3048:	80 81       	ld	r24, Z
    304a:	86 60       	ori	r24, 0x06	; 6
    304c:	80 83       	st	Z, r24
    304e:	08 95       	ret

Disassembly of section .text.TC1_HAL_stop:

00003050 <TC1_HAL_stop>:
}

void TC1_HAL_stop(){
	clear_byte(TCCR1B, 0b00000111);
    3050:	e1 e8       	ldi	r30, 0x81	; 129
    3052:	f0 e0       	ldi	r31, 0x00	; 0
    3054:	80 81       	ld	r24, Z
    3056:	88 7f       	andi	r24, 0xF8	; 248
    3058:	80 83       	st	Z, r24
    305a:	08 95       	ret

Disassembly of section .text.__vector_13:

000020d8 <__vector_13>:
}

ISR(TIMER1_COMPA_vect){
    20d8:	1f 92       	push	r1
    20da:	0f 92       	push	r0
    20dc:	0f b6       	in	r0, 0x3f	; 63
    20de:	0f 92       	push	r0
    20e0:	11 24       	eor	r1, r1
    20e2:	2f 93       	push	r18
    20e4:	3f 93       	push	r19
    20e6:	4f 93       	push	r20
    20e8:	5f 93       	push	r21
    20ea:	6f 93       	push	r22
    20ec:	7f 93       	push	r23
    20ee:	8f 93       	push	r24
    20f0:	9f 93       	push	r25
    20f2:	af 93       	push	r26
    20f4:	bf 93       	push	r27
    20f6:	ef 93       	push	r30
    20f8:	ff 93       	push	r31
	_cb();
    20fa:	e0 91 26 09 	lds	r30, 0x0926	; 0x800926 <_cb>
    20fe:	f0 91 27 09 	lds	r31, 0x0927	; 0x800927 <_cb+0x1>
    2102:	09 95       	icall
    2104:	ff 91       	pop	r31
    2106:	ef 91       	pop	r30
    2108:	bf 91       	pop	r27
    210a:	af 91       	pop	r26
    210c:	9f 91       	pop	r25
    210e:	8f 91       	pop	r24
    2110:	7f 91       	pop	r23
    2112:	6f 91       	pop	r22
    2114:	5f 91       	pop	r21
    2116:	4f 91       	pop	r20
    2118:	3f 91       	pop	r19
    211a:	2f 91       	pop	r18
    211c:	0f 90       	pop	r0
    211e:	0f be       	out	0x3f, r0	; 63
    2120:	0f 90       	pop	r0
    2122:	1f 90       	pop	r1
    2124:	18 95       	reti

Disassembly of section .text.start_timer:

000030d0 <start_timer>:
	}
	cbCounter=0;
}

static void start_timer(){
	TCCR2B=0x07;
    30d0:	87 e0       	ldi	r24, 0x07	; 7
    30d2:	80 93 b1 00 	sts	0x00B1, r24	; 0x8000b1 <__TEXT_REGION_LENGTH__+0x7f00b1>
    30d6:	08 95       	ret

Disassembly of section .text.stop_timer:

000030e6 <stop_timer>:
}

static void stop_timer(){
	TCCR2B=0x00;
    30e6:	10 92 b1 00 	sts	0x00B1, r1	; 0x8000b1 <__TEXT_REGION_LENGTH__+0x7f00b1>
    30ea:	08 95       	ret

Disassembly of section .text.TC2_HAL_init:

00002d1c <TC2_HAL_init>:
static void clear_callbacks(){
	for (uint8_t i=0; i<MAX_CALLBACKS; i++)
	{
		callbacks[i]=NULL;
	}
	cbCounter=0;
    2d1c:	82 e0       	ldi	r24, 0x02	; 2
    2d1e:	80 93 b0 00 	sts	0x00B0, r24	; 0x8000b0 <__TEXT_REGION_LENGTH__+0x7f00b0>
    2d22:	10 92 b1 00 	sts	0x00B1, r1	; 0x8000b1 <__TEXT_REGION_LENGTH__+0x7f00b1>
    2d26:	10 92 b6 00 	sts	0x00B6, r1	; 0x8000b6 <__TEXT_REGION_LENGTH__+0x7f00b6>
    2d2a:	10 92 b2 00 	sts	0x00B2, r1	; 0x8000b2 <__TEXT_REGION_LENGTH__+0x7f00b2>
    2d2e:	9b ef       	ldi	r25, 0xFB	; 251
    2d30:	90 93 b3 00 	sts	0x00B3, r25	; 0x8000b3 <__TEXT_REGION_LENGTH__+0x7f00b3>
    2d34:	80 93 70 00 	sts	0x0070, r24	; 0x800070 <__TEXT_REGION_LENGTH__+0x7f0070>
    2d38:	78 94       	sei
    2d3a:	08 95       	ret

Disassembly of section .text.TC2_HAL_subscribe:

00001f94 <TC2_HAL_subscribe>:
    1f94:	cf 93       	push	r28
    1f96:	dc 01       	movw	r26, r24
    1f98:	60 91 2b 09 	lds	r22, 0x092B	; 0x80092b <cbCounter>
    1f9c:	65 30       	cpi	r22, 0x05	; 5
    1f9e:	00 f5       	brcc	.+64     	; 0x1fe0 <TC2_HAL_subscribe+0x4c>
    1fa0:	90 e0       	ldi	r25, 0x00	; 0
    1fa2:	15 c0       	rjmp	.+42     	; 0x1fce <TC2_HAL_subscribe+0x3a>
    1fa4:	29 2f       	mov	r18, r25
    1fa6:	30 e0       	ldi	r19, 0x00	; 0
    1fa8:	f9 01       	movw	r30, r18
    1faa:	ee 0f       	add	r30, r30
    1fac:	ff 1f       	adc	r31, r31
    1fae:	e4 5f       	subi	r30, 0xF4	; 244
    1fb0:	f6 4f       	sbci	r31, 0xF6	; 246
    1fb2:	40 81       	ld	r20, Z
    1fb4:	51 81       	ldd	r21, Z+1	; 0x01
    1fb6:	45 2b       	or	r20, r21
    1fb8:	49 f4       	brne	.+18     	; 0x1fcc <TC2_HAL_subscribe+0x38>
    1fba:	22 0f       	add	r18, r18
    1fbc:	33 1f       	adc	r19, r19
    1fbe:	f9 01       	movw	r30, r18
    1fc0:	e4 5f       	subi	r30, 0xF4	; 244
    1fc2:	f6 4f       	sbci	r31, 0xF6	; 246
    1fc4:	b1 83       	std	Z+1, r27	; 0x01
    1fc6:	a0 83       	st	Z, r26
    1fc8:	c9 2f       	mov	r28, r25
    1fca:	04 c0       	rjmp	.+8      	; 0x1fd4 <TC2_HAL_subscribe+0x40>
    1fcc:	9f 5f       	subi	r25, 0xFF	; 255
    1fce:	95 30       	cpi	r25, 0x05	; 5
    1fd0:	48 f3       	brcs	.-46     	; 0x1fa4 <TC2_HAL_subscribe+0x10>
    1fd2:	cf ef       	ldi	r28, 0xFF	; 255
    1fd4:	6f 5f       	subi	r22, 0xFF	; 255
    1fd6:	60 93 2b 09 	sts	0x092B, r22	; 0x80092b <cbCounter>
    1fda:	0e 94 68 18 	call	0x30d0	; 0x30d0 <start_timer>
    1fde:	01 c0       	rjmp	.+2      	; 0x1fe2 <TC2_HAL_subscribe+0x4e>
    1fe0:	cf ef       	ldi	r28, 0xFF	; 255
    1fe2:	8c 2f       	mov	r24, r28
    1fe4:	cf 91       	pop	r28
    1fe6:	08 95       	ret

Disassembly of section .text.TC2_HAL_cancel:

000027ac <TC2_HAL_cancel>:
    27ac:	08 2e       	mov	r0, r24
    27ae:	00 0c       	add	r0, r0
    27b0:	99 0b       	sbc	r25, r25
    27b2:	fc 01       	movw	r30, r24
    27b4:	ee 0f       	add	r30, r30
    27b6:	ff 1f       	adc	r31, r31
    27b8:	e4 5f       	subi	r30, 0xF4	; 244
    27ba:	f6 4f       	sbci	r31, 0xF6	; 246
    27bc:	20 81       	ld	r18, Z
    27be:	31 81       	ldd	r19, Z+1	; 0x01
    27c0:	23 2b       	or	r18, r19
    27c2:	81 f0       	breq	.+32     	; 0x27e4 <TC2_HAL_cancel+0x38>
    27c4:	88 0f       	add	r24, r24
    27c6:	99 1f       	adc	r25, r25
    27c8:	fc 01       	movw	r30, r24
    27ca:	e4 5f       	subi	r30, 0xF4	; 244
    27cc:	f6 4f       	sbci	r31, 0xF6	; 246
    27ce:	11 82       	std	Z+1, r1	; 0x01
    27d0:	10 82       	st	Z, r1
    27d2:	80 91 2b 09 	lds	r24, 0x092B	; 0x80092b <cbCounter>
    27d6:	81 50       	subi	r24, 0x01	; 1
    27d8:	80 93 2b 09 	sts	0x092B, r24	; 0x80092b <cbCounter>
    27dc:	81 11       	cpse	r24, r1
    27de:	02 c0       	rjmp	.+4      	; 0x27e4 <TC2_HAL_cancel+0x38>
    27e0:	0e 94 73 18 	call	0x30e6	; 0x30e6 <stop_timer>
    27e4:	08 95       	ret

Disassembly of section .text.__vector_9:

000017e4 <__vector_9>:
    17e4:	1f 92       	push	r1
    17e6:	0f 92       	push	r0
    17e8:	0f b6       	in	r0, 0x3f	; 63
    17ea:	0f 92       	push	r0
    17ec:	11 24       	eor	r1, r1
    17ee:	2f 93       	push	r18
    17f0:	3f 93       	push	r19
    17f2:	4f 93       	push	r20
    17f4:	5f 93       	push	r21
    17f6:	6f 93       	push	r22
    17f8:	7f 93       	push	r23
    17fa:	8f 93       	push	r24
    17fc:	9f 93       	push	r25
    17fe:	af 93       	push	r26
    1800:	bf 93       	push	r27
    1802:	cf 93       	push	r28
    1804:	ef 93       	push	r30
    1806:	ff 93       	push	r31
    1808:	90 91 2a 09 	lds	r25, 0x092A	; 0x80092a <cnt>
    180c:	9f 5f       	subi	r25, 0xFF	; 255
    180e:	90 93 2a 09 	sts	0x092A, r25	; 0x80092a <cnt>
    1812:	89 e0       	ldi	r24, 0x09	; 9
    1814:	98 9f       	mul	r25, r24
    1816:	21 2d       	mov	r18, r1
    1818:	11 24       	eor	r1, r1
    181a:	89 2f       	mov	r24, r25
    181c:	82 1b       	sub	r24, r18
    181e:	86 95       	lsr	r24
    1820:	82 0f       	add	r24, r18
    1822:	82 95       	swap	r24
    1824:	8f 70       	andi	r24, 0x0F	; 15
    1826:	2f e1       	ldi	r18, 0x1F	; 31
    1828:	82 9f       	mul	r24, r18
    182a:	90 19       	sub	r25, r0
    182c:	11 24       	eor	r1, r1
    182e:	91 11       	cpse	r25, r1
    1830:	13 c0       	rjmp	.+38     	; 0x1858 <__vector_9+0x74>
    1832:	10 92 2a 09 	sts	0x092A, r1	; 0x80092a <cnt>
    1836:	c0 e0       	ldi	r28, 0x00	; 0
    1838:	0d c0       	rjmp	.+26     	; 0x1854 <__vector_9+0x70>
    183a:	ec 2f       	mov	r30, r28
    183c:	f0 e0       	ldi	r31, 0x00	; 0
    183e:	ee 0f       	add	r30, r30
    1840:	ff 1f       	adc	r31, r31
    1842:	e4 5f       	subi	r30, 0xF4	; 244
    1844:	f6 4f       	sbci	r31, 0xF6	; 246
    1846:	01 90       	ld	r0, Z+
    1848:	f0 81       	ld	r31, Z
    184a:	e0 2d       	mov	r30, r0
    184c:	30 97       	sbiw	r30, 0x00	; 0
    184e:	09 f0       	breq	.+2      	; 0x1852 <__vector_9+0x6e>
    1850:	09 95       	icall
    1852:	cf 5f       	subi	r28, 0xFF	; 255
    1854:	c5 30       	cpi	r28, 0x05	; 5
    1856:	88 f3       	brcs	.-30     	; 0x183a <__vector_9+0x56>
    1858:	ff 91       	pop	r31
    185a:	ef 91       	pop	r30
    185c:	cf 91       	pop	r28
    185e:	bf 91       	pop	r27
    1860:	af 91       	pop	r26
    1862:	9f 91       	pop	r25
    1864:	8f 91       	pop	r24
    1866:	7f 91       	pop	r23
    1868:	6f 91       	pop	r22
    186a:	5f 91       	pop	r21
    186c:	4f 91       	pop	r20
    186e:	3f 91       	pop	r19
    1870:	2f 91       	pop	r18
    1872:	0f 90       	pop	r0
    1874:	0f be       	out	0x3f, r0	; 63
    1876:	0f 90       	pop	r0
    1878:	1f 90       	pop	r1
    187a:	18 95       	reti

Disassembly of section .text.start_and_write_data:

000021c2 <start_and_write_data>:

/************************************************************************/
/* Local function                                                                     */
/************************************************************************/

static uint8_t start_and_write_data(uint8_t slaveAddr, const uint8_t data[], uint8_t length){
    21c2:	cf 92       	push	r12
    21c4:	df 92       	push	r13
    21c6:	ef 92       	push	r14
    21c8:	cf 93       	push	r28
    21ca:	df 93       	push	r29
    21cc:	6a 01       	movw	r12, r20
    21ce:	e6 2e       	mov	r14, r22
    21d0:	d2 2f       	mov	r29, r18
	uint8_t status;
	
	status=TWI_HAL_start(slaveAddr, WRITE);
    21d2:	60 e0       	ldi	r22, 0x00	; 0
    21d4:	0e 94 9c 11 	call	0x2338	; 0x2338 <TWI_HAL_start>
	if(status!=TWI_CODE_SUCCESS) return status;
    21d8:	81 11       	cpse	r24, r1
    21da:	13 c0       	rjmp	.+38     	; 0x2202 <start_and_write_data+0x40>
    21dc:	c0 e0       	ldi	r28, 0x00	; 0
    21de:	0e c0       	rjmp	.+28     	; 0x21fc <start_and_write_data+0x3a>
	
	for (uint8_t i=0; i<length; i++)
	{
		status=TWI_HAL_write_byte(data[i]);
    21e0:	ae 2d       	mov	r26, r14
    21e2:	c6 01       	movw	r24, r12
    21e4:	8c 0f       	add	r24, r28
    21e6:	91 1d       	adc	r25, r1
    21e8:	a1 1d       	adc	r26, r1
    21ea:	fc 01       	movw	r30, r24
    21ec:	84 91       	lpm	r24, Z
    21ee:	a7 fd       	sbrc	r26, 7
    21f0:	80 81       	ld	r24, Z
    21f2:	0e 94 9e 16 	call	0x2d3c	; 0x2d3c <TWI_HAL_write_byte>
		if(status!=TWI_CODE_SUCCESS) return status;
    21f6:	81 11       	cpse	r24, r1
    21f8:	04 c0       	rjmp	.+8      	; 0x2202 <start_and_write_data+0x40>
	uint8_t status;
	
	status=TWI_HAL_start(slaveAddr, WRITE);
	if(status!=TWI_CODE_SUCCESS) return status;
	
	for (uint8_t i=0; i<length; i++)
    21fa:	cf 5f       	subi	r28, 0xFF	; 255
    21fc:	cd 17       	cp	r28, r29
    21fe:	80 f3       	brcs	.-32     	; 0x21e0 <start_and_write_data+0x1e>
	{
		status=TWI_HAL_write_byte(data[i]);
		if(status!=TWI_CODE_SUCCESS) return status;
	}
	return TWI_CODE_SUCCESS;
    2200:	80 e0       	ldi	r24, 0x00	; 0
}
    2202:	df 91       	pop	r29
    2204:	cf 91       	pop	r28
    2206:	ef 90       	pop	r14
    2208:	df 90       	pop	r13
    220a:	cf 90       	pop	r12
    220c:	08 95       	ret

Disassembly of section .text.read_and_stop:

00001ee2 <read_and_stop>:

static uint8_t read_and_stop(uint8_t data[], uint8_t length){
    1ee2:	ef 92       	push	r14
    1ee4:	ff 92       	push	r15
    1ee6:	0f 93       	push	r16
    1ee8:	1f 93       	push	r17
    1eea:	cf 93       	push	r28
    1eec:	df 93       	push	r29
    1eee:	8c 01       	movw	r16, r24
    1ef0:	d6 2f       	mov	r29, r22
	for (uint8_t i=0; i<length-1; i++)
    1ef2:	c0 e0       	ldi	r28, 0x00	; 0
    1ef4:	08 c0       	rjmp	.+16     	; 0x1f06 <read_and_stop+0x24>
	{
		data[i]=TWI_HAL_read_byte_ack();
    1ef6:	78 01       	movw	r14, r16
    1ef8:	ec 0e       	add	r14, r28
    1efa:	f1 1c       	adc	r15, r1
    1efc:	0e 94 b1 17 	call	0x2f62	; 0x2f62 <TWI_HAL_read_byte_ack>
    1f00:	f7 01       	movw	r30, r14
    1f02:	80 83       	st	Z, r24
	}
	return TWI_CODE_SUCCESS;
}

static uint8_t read_and_stop(uint8_t data[], uint8_t length){
	for (uint8_t i=0; i<length-1; i++)
    1f04:	cf 5f       	subi	r28, 0xFF	; 255
    1f06:	2c 2f       	mov	r18, r28
    1f08:	30 e0       	ldi	r19, 0x00	; 0
    1f0a:	8d 2f       	mov	r24, r29
    1f0c:	90 e0       	ldi	r25, 0x00	; 0
    1f0e:	01 97       	sbiw	r24, 0x01	; 1
    1f10:	28 17       	cp	r18, r24
    1f12:	39 07       	cpc	r19, r25
    1f14:	84 f3       	brlt	.-32     	; 0x1ef6 <read_and_stop+0x14>
	{
		data[i]=TWI_HAL_read_byte_ack();
	}
	data[length-1]=TWI_HAL_read_byte_nack();
    1f16:	8d 2f       	mov	r24, r29
    1f18:	90 e0       	ldi	r25, 0x00	; 0
    1f1a:	01 97       	sbiw	r24, 0x01	; 1
    1f1c:	e8 01       	movw	r28, r16
    1f1e:	c8 0f       	add	r28, r24
    1f20:	d9 1f       	adc	r29, r25
    1f22:	0e 94 bb 17 	call	0x2f76	; 0x2f76 <TWI_HAL_read_byte_nack>
    1f26:	88 83       	st	Y, r24
	
	TWI_HAL_stop();
    1f28:	0e 94 e9 17 	call	0x2fd2	; 0x2fd2 <TWI_HAL_stop>
	return TWI_CODE_SUCCESS;
}
    1f2c:	80 e0       	ldi	r24, 0x00	; 0
    1f2e:	df 91       	pop	r29
    1f30:	cf 91       	pop	r28
    1f32:	1f 91       	pop	r17
    1f34:	0f 91       	pop	r16
    1f36:	ff 90       	pop	r15
    1f38:	ef 90       	pop	r14
    1f3a:	08 95       	ret

Disassembly of section .text.TWI_API_write_data:

000030ec <TWI_API_write_data>:

static uint8_t start_and_write_data(uint8_t slaveAddr, const uint8_t data[], uint8_t length);
static uint8_t read_and_stop(uint8_t data[], uint8_t length);

uint8_t TWI_API_write_data(uint8_t slaveAddr, const uint8_t data[], uint8_t length){
	return start_and_write_data(slaveAddr, data, length);
    30ec:	0e 94 e1 10 	call	0x21c2	; 0x21c2 <start_and_write_data>
}
    30f0:	08 95       	ret

Disassembly of section .text.TWI_API_write_data_stop:

00002fc2 <TWI_API_write_data_stop>:

uint8_t TWI_API_write_data_stop(uint8_t slaveAddr, const uint8_t data[], uint8_t length){
	uint8_t status=start_and_write_data(slaveAddr, data, length);
    2fc2:	0e 94 e1 10 	call	0x21c2	; 0x21c2 <start_and_write_data>
	if(status!=TWI_CODE_SUCCESS) return status;
    2fc6:	81 11       	cpse	r24, r1
    2fc8:	03 c0       	rjmp	.+6      	; 0x2fd0 <TWI_API_write_data_stop+0xe>
	TWI_HAL_stop();
    2fca:	0e 94 e9 17 	call	0x2fd2	; 0x2fd2 <TWI_HAL_stop>
	return TWI_CODE_SUCCESS;
    2fce:	80 e0       	ldi	r24, 0x00	; 0
}
    2fd0:	08 95       	ret

Disassembly of section .text.TWI_API_read_data_ack_end_nack_stop:

00002c2e <TWI_API_read_data_ack_end_nack_stop>:

uint8_t TWI_API_read_data_ack_end_nack_stop(uint8_t slaveAddr, uint8_t data[], uint8_t length){
    2c2e:	1f 93       	push	r17
    2c30:	cf 93       	push	r28
    2c32:	df 93       	push	r29
    2c34:	eb 01       	movw	r28, r22
    2c36:	14 2f       	mov	r17, r20
	uint8_t status;
	
	status=TWI_HAL_start(slaveAddr, READ);
    2c38:	61 e0       	ldi	r22, 0x01	; 1
    2c3a:	0e 94 9c 11 	call	0x2338	; 0x2338 <TWI_HAL_start>
	if(status!=TWI_CODE_SUCCESS) return status;
    2c3e:	81 11       	cpse	r24, r1
    2c40:	04 c0       	rjmp	.+8      	; 0x2c4a <TWI_API_read_data_ack_end_nack_stop+0x1c>
	
	return read_and_stop(data, length);
    2c42:	61 2f       	mov	r22, r17
    2c44:	ce 01       	movw	r24, r28
    2c46:	0e 94 71 0f 	call	0x1ee2	; 0x1ee2 <read_and_stop>
	//}
	//data[length-1]=TWI_HAL_read_byte_nack();
	//
	//TWI_HAL_stop();
	//return TWI_CODE_SUCCESS;
}
    2c4a:	df 91       	pop	r29
    2c4c:	cf 91       	pop	r28
    2c4e:	1f 91       	pop	r17
    2c50:	08 95       	ret

Disassembly of section .text.TWI_API_repeat_read_data_stop:

00002c52 <TWI_API_repeat_read_data_stop>:

uint8_t TWI_API_repeat_read_data_stop(uint8_t slaveAddr, uint8_t data[], uint8_t length){
    2c52:	1f 93       	push	r17
    2c54:	cf 93       	push	r28
    2c56:	df 93       	push	r29
    2c58:	eb 01       	movw	r28, r22
    2c5a:	14 2f       	mov	r17, r20
	uint8_t status;
	
	status=TWI_HAL_repeated_start(slaveAddr);
    2c5c:	0e 94 fa 12 	call	0x25f4	; 0x25f4 <TWI_HAL_repeated_start>
	if(status!=TWI_CODE_SUCCESS) return status;
    2c60:	81 11       	cpse	r24, r1
    2c62:	04 c0       	rjmp	.+8      	; 0x2c6c <TWI_API_repeat_read_data_stop+0x1a>
	
	return read_and_stop(data, length);
    2c64:	61 2f       	mov	r22, r17
    2c66:	ce 01       	movw	r24, r28
    2c68:	0e 94 71 0f 	call	0x1ee2	; 0x1ee2 <read_and_stop>
	
}
    2c6c:	df 91       	pop	r29
    2c6e:	cf 91       	pop	r28
    2c70:	1f 91       	pop	r17
    2c72:	08 95       	ret

Disassembly of section .text.TWI_HAL_init:

00002f9e <TWI_HAL_init>:




void TWI_HAL_init(){
	TWBR=TWI_TWBR; //Set bit generator
    2f9e:	80 e2       	ldi	r24, 0x20	; 32
    2fa0:	80 93 b8 00 	sts	0x00B8, r24	; 0x8000b8 <__TEXT_REGION_LENGTH__+0x7f00b8>
	if(TWI_PRESCALE==1)
		clear_byte(TWSR, 0b00000011); //set prescale to 1
    2fa4:	e9 eb       	ldi	r30, 0xB9	; 185
    2fa6:	f0 e0       	ldi	r31, 0x00	; 0
    2fa8:	80 81       	ld	r24, Z
    2faa:	8c 7f       	andi	r24, 0xFC	; 252
    2fac:	80 83       	st	Z, r24
    2fae:	08 95       	ret

Disassembly of section .text.TWI_HAL_start:

00002338 <TWI_HAL_start>:
	
}

uint8_t TWI_HAL_start(uint8_t addr, TWI_HAL_START_TYPE type){
	uint8_t addr_type=(addr<<1) | type;
    2338:	90 e0       	ldi	r25, 0x00	; 0
    233a:	88 0f       	add	r24, r24
    233c:	99 1f       	adc	r25, r25
    233e:	68 2b       	or	r22, r24
	uint8_t status;
	
	TWCR=twi_start_transmission |(1<<TWSTA); //Send start condition
    2340:	84 ea       	ldi	r24, 0xA4	; 164
    2342:	80 93 bc 00 	sts	0x00BC, r24	; 0x8000bc <__TEXT_REGION_LENGTH__+0x7f00bc>
	
	while (!get_bit(TWCR, TWINT)); //Wait to finish job
    2346:	90 91 bc 00 	lds	r25, 0x00BC	; 0x8000bc <__TEXT_REGION_LENGTH__+0x7f00bc>
    234a:	99 23       	and	r25, r25
    234c:	e4 f7       	brge	.-8      	; 0x2346 <TWI_HAL_start+0xe>
	status=twi_read_status(TWSR);
    234e:	80 91 b9 00 	lds	r24, 0x00B9	; 0x8000b9 <__TEXT_REGION_LENGTH__+0x7f00b9>
    2352:	88 7f       	andi	r24, 0xF8	; 248
	
	if(status != TWI_CODE_START) return status; //Check status is success
    2354:	88 30       	cpi	r24, 0x08	; 8
    2356:	99 f4       	brne	.+38     	; 0x237e <TWI_HAL_start+0x46>
	
	TWDR=addr_type; //Set Write addr
    2358:	60 93 bb 00 	sts	0x00BB, r22	; 0x8000bb <__TEXT_REGION_LENGTH__+0x7f00bb>
	TWCR=twi_start_transmission; //Start transmission of addr
    235c:	84 e8       	ldi	r24, 0x84	; 132
    235e:	80 93 bc 00 	sts	0x00BC, r24	; 0x8000bc <__TEXT_REGION_LENGTH__+0x7f00bc>
	
	while (!get_bit(TWCR, TWINT)); //Wait to finish job
    2362:	80 91 bc 00 	lds	r24, 0x00BC	; 0x8000bc <__TEXT_REGION_LENGTH__+0x7f00bc>
    2366:	88 23       	and	r24, r24
    2368:	e4 f7       	brge	.-8      	; 0x2362 <TWI_HAL_start+0x2a>
	status=twi_read_status(TWSR);
    236a:	80 91 b9 00 	lds	r24, 0x00B9	; 0x8000b9 <__TEXT_REGION_LENGTH__+0x7f00b9>
    236e:	88 7f       	andi	r24, 0xF8	; 248
	
	if(status == TWI_CODE_ADDR_W_TRANS_ACK_REC || status==TWI_CODE_ADDR_R_TRANS_ACK_REC) return TWI_CODE_SUCCESS; //Success
    2370:	88 31       	cpi	r24, 0x18	; 24
    2372:	21 f0       	breq	.+8      	; 0x237c <TWI_HAL_start+0x44>
    2374:	80 34       	cpi	r24, 0x40	; 64
    2376:	19 f4       	brne	.+6      	; 0x237e <TWI_HAL_start+0x46>
    2378:	80 e0       	ldi	r24, 0x00	; 0
    237a:	08 95       	ret
    237c:	80 e0       	ldi	r24, 0x00	; 0
	
	return status;
}
    237e:	08 95       	ret

Disassembly of section .text.TWI_HAL_repeated_start:

000025f4 <TWI_HAL_repeated_start>:

uint8_t TWI_HAL_repeated_start(uint8_t addr){
	uint8_t addr_type=(addr<<1) | 1;
    25f4:	90 e0       	ldi	r25, 0x00	; 0
    25f6:	88 0f       	add	r24, r24
    25f8:	99 1f       	adc	r25, r25
    25fa:	28 2f       	mov	r18, r24
    25fc:	21 60       	ori	r18, 0x01	; 1
	uint8_t status;
	
	TWCR=twi_start_transmission |(1<<TWSTA); //Send start condition
    25fe:	84 ea       	ldi	r24, 0xA4	; 164
    2600:	80 93 bc 00 	sts	0x00BC, r24	; 0x8000bc <__TEXT_REGION_LENGTH__+0x7f00bc>
	
	while (!get_bit(TWCR, TWINT)); //Wait to finish job
    2604:	90 91 bc 00 	lds	r25, 0x00BC	; 0x8000bc <__TEXT_REGION_LENGTH__+0x7f00bc>
    2608:	99 23       	and	r25, r25
    260a:	e4 f7       	brge	.-8      	; 0x2604 <TWI_HAL_repeated_start+0x10>
	status=twi_read_status(TWSR);
    260c:	80 91 b9 00 	lds	r24, 0x00B9	; 0x8000b9 <__TEXT_REGION_LENGTH__+0x7f00b9>
    2610:	88 7f       	andi	r24, 0xF8	; 248
	
	if(status != TWI_CODE_REP_START) return status; //Check status is success
    2612:	80 31       	cpi	r24, 0x10	; 16
    2614:	79 f4       	brne	.+30     	; 0x2634 <TWI_HAL_repeated_start+0x40>
	
	TWDR=addr_type; //Set Write addr
    2616:	20 93 bb 00 	sts	0x00BB, r18	; 0x8000bb <__TEXT_REGION_LENGTH__+0x7f00bb>
	TWCR=twi_start_transmission; //Start transmission of addr
    261a:	84 e8       	ldi	r24, 0x84	; 132
    261c:	80 93 bc 00 	sts	0x00BC, r24	; 0x8000bc <__TEXT_REGION_LENGTH__+0x7f00bc>
	
	while (!get_bit(TWCR, TWINT)); //Wait to finish job
    2620:	80 91 bc 00 	lds	r24, 0x00BC	; 0x8000bc <__TEXT_REGION_LENGTH__+0x7f00bc>
    2624:	88 23       	and	r24, r24
    2626:	e4 f7       	brge	.-8      	; 0x2620 <TWI_HAL_repeated_start+0x2c>
	status=twi_read_status(TWSR);
    2628:	80 91 b9 00 	lds	r24, 0x00B9	; 0x8000b9 <__TEXT_REGION_LENGTH__+0x7f00b9>
    262c:	88 7f       	andi	r24, 0xF8	; 248
	
	if(status==TWI_CODE_ADDR_R_TRANS_ACK_REC) return TWI_CODE_SUCCESS;
    262e:	80 34       	cpi	r24, 0x40	; 64
    2630:	09 f4       	brne	.+2      	; 0x2634 <TWI_HAL_repeated_start+0x40>
    2632:	80 e0       	ldi	r24, 0x00	; 0
	
	return status;
}
    2634:	08 95       	ret

Disassembly of section .text.TWI_HAL_write_byte:

00002d3c <TWI_HAL_write_byte>:

uint8_t TWI_HAL_write_byte(uint8_t data){
	uint8_t status;
	
	TWDR=data;	//Set data
    2d3c:	80 93 bb 00 	sts	0x00BB, r24	; 0x8000bb <__TEXT_REGION_LENGTH__+0x7f00bb>
	TWCR=twi_start_transmission;
    2d40:	84 e8       	ldi	r24, 0x84	; 132
    2d42:	80 93 bc 00 	sts	0x00BC, r24	; 0x8000bc <__TEXT_REGION_LENGTH__+0x7f00bc>
	
	while (!get_bit(TWCR, TWINT)); 
    2d46:	80 91 bc 00 	lds	r24, 0x00BC	; 0x8000bc <__TEXT_REGION_LENGTH__+0x7f00bc>
    2d4a:	88 23       	and	r24, r24
    2d4c:	e4 f7       	brge	.-8      	; 0x2d46 <TWI_HAL_write_byte+0xa>
	status=twi_read_status(TWSR);
    2d4e:	80 91 b9 00 	lds	r24, 0x00B9	; 0x8000b9 <__TEXT_REGION_LENGTH__+0x7f00b9>
    2d52:	88 7f       	andi	r24, 0xF8	; 248
	
	if(status==TWI_CODE_DATA_TRANS_ACK_REC) return TWI_CODE_SUCCESS; //Success
    2d54:	88 32       	cpi	r24, 0x28	; 40
    2d56:	09 f4       	brne	.+2      	; 0x2d5a <TWI_HAL_write_byte+0x1e>
    2d58:	80 e0       	ldi	r24, 0x00	; 0
	return status;
}
    2d5a:	08 95       	ret

Disassembly of section .text.TWI_HAL_read_byte_ack:

00002f62 <TWI_HAL_read_byte_ack>:

uint8_t TWI_HAL_read_byte_ack(){
	TWCR=twi_start_transmission|(1<<TWEA);
    2f62:	84 ec       	ldi	r24, 0xC4	; 196
    2f64:	80 93 bc 00 	sts	0x00BC, r24	; 0x8000bc <__TEXT_REGION_LENGTH__+0x7f00bc>
	while (!get_bit(TWCR, TWINT)); 
    2f68:	80 91 bc 00 	lds	r24, 0x00BC	; 0x8000bc <__TEXT_REGION_LENGTH__+0x7f00bc>
    2f6c:	88 23       	and	r24, r24
    2f6e:	e4 f7       	brge	.-8      	; 0x2f68 <TWI_HAL_read_byte_ack+0x6>
	
	return TWDR;
    2f70:	80 91 bb 00 	lds	r24, 0x00BB	; 0x8000bb <__TEXT_REGION_LENGTH__+0x7f00bb>
}
    2f74:	08 95       	ret

Disassembly of section .text.TWI_HAL_read_byte_nack:

00002f76 <TWI_HAL_read_byte_nack>:

uint8_t TWI_HAL_read_byte_nack(){
	TWCR=twi_start_transmission;
    2f76:	84 e8       	ldi	r24, 0x84	; 132
    2f78:	80 93 bc 00 	sts	0x00BC, r24	; 0x8000bc <__TEXT_REGION_LENGTH__+0x7f00bc>
	while (!get_bit(TWCR, TWINT));
    2f7c:	80 91 bc 00 	lds	r24, 0x00BC	; 0x8000bc <__TEXT_REGION_LENGTH__+0x7f00bc>
    2f80:	88 23       	and	r24, r24
    2f82:	e4 f7       	brge	.-8      	; 0x2f7c <TWI_HAL_read_byte_nack+0x6>
	
	return TWDR;
    2f84:	80 91 bb 00 	lds	r24, 0x00BB	; 0x8000bb <__TEXT_REGION_LENGTH__+0x7f00bb>
}
    2f88:	08 95       	ret

Disassembly of section .text.TWI_HAL_stop:

00002fd2 <TWI_HAL_stop>:

void TWI_HAL_stop(){
	 TWCR=twi_start_transmission|(1<<TWSTO);
    2fd2:	84 e9       	ldi	r24, 0x94	; 148
    2fd4:	80 93 bc 00 	sts	0x00BC, r24	; 0x8000bc <__TEXT_REGION_LENGTH__+0x7f00bc>
	 while(TWCR&(1<<TWSTO));
    2fd8:	80 91 bc 00 	lds	r24, 0x00BC	; 0x8000bc <__TEXT_REGION_LENGTH__+0x7f00bc>
    2fdc:	84 fd       	sbrc	r24, 4
    2fde:	fc cf       	rjmp	.-8      	; 0x2fd8 <TWI_HAL_stop+0x6>
}
    2fe0:	08 95       	ret

Disassembly of section .text.copy_buffer:

00002b54 <copy_buffer>:
uint8_t uart0_hal_read_message(uint8_t msg[]){
	copy_buffer(msg);
	uint8_t len= rx_buffer_data_len-2;
	uart0_hal_clear_rx_buffer();
	return len;
}
    2b54:	bc 01       	movw	r22, r24
    2b56:	90 e0       	ldi	r25, 0x00	; 0
    2b58:	09 c0       	rjmp	.+18     	; 0x2b6c <copy_buffer+0x18>
    2b5a:	fb 01       	movw	r30, r22
    2b5c:	e9 0f       	add	r30, r25
    2b5e:	f1 1d       	adc	r31, r1
    2b60:	da 01       	movw	r26, r20
    2b62:	a0 50       	subi	r26, 0x00	; 0
    2b64:	bf 4f       	sbci	r27, 0xFF	; 255
    2b66:	2c 91       	ld	r18, X
    2b68:	20 83       	st	Z, r18
    2b6a:	9f 5f       	subi	r25, 0xFF	; 255
    2b6c:	49 2f       	mov	r20, r25
    2b6e:	50 e0       	ldi	r21, 0x00	; 0
    2b70:	20 91 2d 09 	lds	r18, 0x092D	; 0x80092d <rx_buffer_data_len>
    2b74:	30 e0       	ldi	r19, 0x00	; 0
    2b76:	22 50       	subi	r18, 0x02	; 2
    2b78:	31 09       	sbc	r19, r1
    2b7a:	42 17       	cp	r20, r18
    2b7c:	53 07       	cpc	r21, r19
    2b7e:	6c f3       	brlt	.-38     	; 0x2b5a <copy_buffer+0x6>
    2b80:	08 95       	ret

Disassembly of section .text.uart0_hal_init:

00002734 <uart0_hal_init>:
    2734:	e1 ec       	ldi	r30, 0xC1	; 193
    2736:	f0 e0       	ldi	r31, 0x00	; 0
    2738:	80 81       	ld	r24, Z
    273a:	80 61       	ori	r24, 0x10	; 16
    273c:	80 83       	st	Z, r24
    273e:	80 81       	ld	r24, Z
    2740:	88 60       	ori	r24, 0x08	; 8
    2742:	80 83       	st	Z, r24
    2744:	80 81       	ld	r24, Z
    2746:	80 68       	ori	r24, 0x80	; 128
    2748:	80 83       	st	Z, r24
    274a:	80 81       	ld	r24, Z
    274c:	80 64       	ori	r24, 0x40	; 64
    274e:	80 83       	st	Z, r24
    2750:	e0 ec       	ldi	r30, 0xC0	; 192
    2752:	f0 e0       	ldi	r31, 0x00	; 0
    2754:	80 81       	ld	r24, Z
    2756:	82 60       	ori	r24, 0x02	; 2
    2758:	80 83       	st	Z, r24
    275a:	86 e0       	ldi	r24, 0x06	; 6
    275c:	80 93 c2 00 	sts	0x00C2, r24	; 0x8000c2 <__TEXT_REGION_LENGTH__+0x7f00c2>
    2760:	80 e1       	ldi	r24, 0x10	; 16
    2762:	90 e0       	ldi	r25, 0x00	; 0
    2764:	90 93 c5 00 	sts	0x00C5, r25	; 0x8000c5 <__TEXT_REGION_LENGTH__+0x7f00c5>
    2768:	80 93 c4 00 	sts	0x00C4, r24	; 0x8000c4 <__TEXT_REGION_LENGTH__+0x7f00c4>
    276c:	78 94       	sei
    276e:	08 95       	ret

Disassembly of section .text.uart0_hal_send_message:

00002962 <uart0_hal_send_message>:
    2962:	dc 01       	movw	r26, r24
    2964:	90 e0       	ldi	r25, 0x00	; 0
    2966:	0b c0       	rjmp	.+22     	; 0x297e <uart0_hal_send_message+0x1c>
    2968:	29 2f       	mov	r18, r25
    296a:	30 e0       	ldi	r19, 0x00	; 0
    296c:	fd 01       	movw	r30, r26
    296e:	e2 0f       	add	r30, r18
    2970:	f3 1f       	adc	r31, r19
    2972:	40 81       	ld	r20, Z
    2974:	f9 01       	movw	r30, r18
    2976:	ec 59       	subi	r30, 0x9C	; 156
    2978:	fe 4f       	sbci	r31, 0xFE	; 254
    297a:	40 83       	st	Z, r20
    297c:	9f 5f       	subi	r25, 0xFF	; 255
    297e:	96 17       	cp	r25, r22
    2980:	98 f3       	brcs	.-26     	; 0x2968 <uart0_hal_send_message+0x6>
    2982:	60 93 2f 09 	sts	0x092F, r22	; 0x80092f <tx_buffer_data_len>
    2986:	81 e0       	ldi	r24, 0x01	; 1
    2988:	80 93 2e 09 	sts	0x092E, r24	; 0x80092e <tx_buffer_cursor>
    298c:	80 91 64 01 	lds	r24, 0x0164	; 0x800164 <tx_buffer>
    2990:	80 93 c6 00 	sts	0x00C6, r24	; 0x8000c6 <__TEXT_REGION_LENGTH__+0x7f00c6>
    2994:	08 95       	ret

Disassembly of section .text.uart0_hal_send_string:

00001cf4 <uart0_hal_send_string>:
    1cf4:	cf 92       	push	r12
    1cf6:	df 92       	push	r13
    1cf8:	ef 92       	push	r14
    1cfa:	0f 93       	push	r16
    1cfc:	1f 93       	push	r17
    1cfe:	cf 93       	push	r28
    1d00:	6b 01       	movw	r12, r22
    1d02:	e8 2e       	mov	r14, r24
    1d04:	c0 e0       	ldi	r28, 0x00	; 0
    1d06:	12 c0       	rjmp	.+36     	; 0x1d2c <uart0_hal_send_string+0x38>
    1d08:	8c 2f       	mov	r24, r28
    1d0a:	90 e0       	ldi	r25, 0x00	; 0
    1d0c:	4e 2d       	mov	r20, r14
    1d0e:	96 01       	movw	r18, r12
    1d10:	20 0f       	add	r18, r16
    1d12:	31 1f       	adc	r19, r17
    1d14:	41 1d       	adc	r20, r1
    1d16:	17 fd       	sbrc	r17, 7
    1d18:	4a 95       	dec	r20
    1d1a:	f9 01       	movw	r30, r18
    1d1c:	24 91       	lpm	r18, Z
    1d1e:	47 fd       	sbrc	r20, 7
    1d20:	20 81       	ld	r18, Z
    1d22:	fc 01       	movw	r30, r24
    1d24:	ec 59       	subi	r30, 0x9C	; 156
    1d26:	fe 4f       	sbci	r31, 0xFE	; 254
    1d28:	20 83       	st	Z, r18
    1d2a:	cf 5f       	subi	r28, 0xFF	; 255
    1d2c:	0c 2f       	mov	r16, r28
    1d2e:	10 e0       	ldi	r17, 0x00	; 0
    1d30:	8e 2d       	mov	r24, r14
    1d32:	b6 01       	movw	r22, r12
    1d34:	0e 94 d8 15 	call	0x2bb0	; 0x2bb0 <strlen>
    1d38:	08 17       	cp	r16, r24
    1d3a:	19 07       	cpc	r17, r25
    1d3c:	28 f3       	brcs	.-54     	; 0x1d08 <uart0_hal_send_string+0x14>
    1d3e:	80 93 2f 09 	sts	0x092F, r24	; 0x80092f <tx_buffer_data_len>
    1d42:	81 e0       	ldi	r24, 0x01	; 1
    1d44:	80 93 2e 09 	sts	0x092E, r24	; 0x80092e <tx_buffer_cursor>
    1d48:	80 91 64 01 	lds	r24, 0x0164	; 0x800164 <tx_buffer>
    1d4c:	80 93 c6 00 	sts	0x00C6, r24	; 0x8000c6 <__TEXT_REGION_LENGTH__+0x7f00c6>
    1d50:	cf 91       	pop	r28
    1d52:	1f 91       	pop	r17
    1d54:	0f 91       	pop	r16
    1d56:	ef 90       	pop	r14
    1d58:	df 90       	pop	r13
    1d5a:	cf 90       	pop	r12
    1d5c:	08 95       	ret

Disassembly of section .text.uart0_hal_message_ready:

00003028 <uart0_hal_message_ready>:
	tx_buffer_cursor=1;
	UDR0=tx_buffer[0];
}

bool uart0_hal_message_ready(){
	return rx_buffer_has_message>0;
    3028:	90 91 2c 09 	lds	r25, 0x092C	; 0x80092c <rx_buffer_has_message>
    302c:	81 e0       	ldi	r24, 0x01	; 1
    302e:	91 11       	cpse	r25, r1
    3030:	01 c0       	rjmp	.+2      	; 0x3034 <uart0_hal_message_ready+0xc>
    3032:	80 e0       	ldi	r24, 0x00	; 0
}
    3034:	08 95       	ret

Disassembly of section .text.uart0_hal_clear_rx_buffer:

000030a2 <uart0_hal_clear_rx_buffer>:
	uart0_hal_clear_rx_buffer();
	return len;
}

void uart0_hal_clear_rx_buffer(){
	rx_buffer_has_message=0;
    30a2:	10 92 2c 09 	sts	0x092C, r1	; 0x80092c <rx_buffer_has_message>
	rx_buffer_data_len=0;
    30a6:	10 92 2d 09 	sts	0x092D, r1	; 0x80092d <rx_buffer_data_len>
    30aa:	08 95       	ret

Disassembly of section .text.uart0_hal_read_message_as_str:

00002c06 <uart0_hal_read_message_as_str>:
	return len;
}



uint8_t uart0_hal_read_message_as_str(uint8_t msg[]){
    2c06:	0f 93       	push	r16
    2c08:	1f 93       	push	r17
    2c0a:	cf 93       	push	r28
    2c0c:	8c 01       	movw	r16, r24
	copy_buffer(msg);
    2c0e:	0e 94 aa 15 	call	0x2b54	; 0x2b54 <copy_buffer>
	uint8_t len= rx_buffer_data_len-2;
    2c12:	c0 91 2d 09 	lds	r28, 0x092D	; 0x80092d <rx_buffer_data_len>
    2c16:	c2 50       	subi	r28, 0x02	; 2
	msg[len]='\0';
    2c18:	f8 01       	movw	r30, r16
    2c1a:	ec 0f       	add	r30, r28
    2c1c:	f1 1d       	adc	r31, r1
    2c1e:	10 82       	st	Z, r1
	uart0_hal_clear_rx_buffer();
    2c20:	0e 94 51 18 	call	0x30a2	; 0x30a2 <uart0_hal_clear_rx_buffer>
	return len;
}
    2c24:	8c 2f       	mov	r24, r28
    2c26:	cf 91       	pop	r28
    2c28:	1f 91       	pop	r17
    2c2a:	0f 91       	pop	r16
    2c2c:	08 95       	ret

Disassembly of section .text.uart0_hal_send_break:

00002458 <uart0_hal_send_break>:
uint8_t uart0_hal_read_message(uint8_t msg[]){
	copy_buffer(msg);
	uint8_t len= rx_buffer_data_len-2;
	uart0_hal_clear_rx_buffer();
	return len;
}
    2458:	cf 93       	push	r28
    245a:	df 93       	push	r29
    245c:	1f 92       	push	r1
    245e:	cd b7       	in	r28, 0x3d	; 61
    2460:	de b7       	in	r29, 0x3e	; 62
    2462:	9a b1       	in	r25, 0x0a	; 10
    2464:	92 60       	ori	r25, 0x02	; 2
    2466:	9a b9       	out	0x0a, r25	; 10
    2468:	e1 ec       	ldi	r30, 0xC1	; 193
    246a:	f0 e0       	ldi	r31, 0x00	; 0
    246c:	90 81       	ld	r25, Z
    246e:	97 7f       	andi	r25, 0xF7	; 247
    2470:	90 83       	st	Z, r25
    2472:	9b b1       	in	r25, 0x0b	; 11
    2474:	9d 7f       	andi	r25, 0xFD	; 253
    2476:	9b b9       	out	0x0b, r25	; 11
    2478:	af e9       	ldi	r26, 0x9F	; 159
    247a:	bf e0       	ldi	r27, 0x0F	; 15
    247c:	11 97       	sbiw	r26, 0x01	; 1
    247e:	f1 f7       	brne	.-4      	; 0x247c <uart0_hal_send_break+0x24>
    2480:	00 c0       	rjmp	.+0      	; 0x2482 <uart0_hal_send_break+0x2a>
    2482:	00 00       	nop
    2484:	90 81       	ld	r25, Z
    2486:	98 60       	ori	r25, 0x08	; 8
    2488:	90 83       	st	Z, r25
    248a:	89 83       	std	Y+1, r24	; 0x01
    248c:	61 e0       	ldi	r22, 0x01	; 1
    248e:	ce 01       	movw	r24, r28
    2490:	01 96       	adiw	r24, 0x01	; 1
    2492:	0e 94 b1 14 	call	0x2962	; 0x2962 <uart0_hal_send_message>
    2496:	0f 90       	pop	r0
    2498:	df 91       	pop	r29
    249a:	cf 91       	pop	r28
    249c:	08 95       	ret

Disassembly of section .text.__vector_22:

0000225a <__vector_22>:
    225a:	1f 92       	push	r1
    225c:	0f 92       	push	r0
    225e:	0f b6       	in	r0, 0x3f	; 63
    2260:	0f 92       	push	r0
    2262:	11 24       	eor	r1, r1
    2264:	8f 93       	push	r24
    2266:	ef 93       	push	r30
    2268:	ff 93       	push	r31
    226a:	e0 91 2e 09 	lds	r30, 0x092E	; 0x80092e <tx_buffer_cursor>
    226e:	80 91 2f 09 	lds	r24, 0x092F	; 0x80092f <tx_buffer_data_len>
    2272:	e8 17       	cp	r30, r24
    2274:	58 f4       	brcc	.+22     	; 0x228c <__vector_22+0x32>
    2276:	81 e0       	ldi	r24, 0x01	; 1
    2278:	8e 0f       	add	r24, r30
    227a:	80 93 2e 09 	sts	0x092E, r24	; 0x80092e <tx_buffer_cursor>
    227e:	f0 e0       	ldi	r31, 0x00	; 0
    2280:	ec 59       	subi	r30, 0x9C	; 156
    2282:	fe 4f       	sbci	r31, 0xFE	; 254
    2284:	80 81       	ld	r24, Z
    2286:	80 93 c6 00 	sts	0x00C6, r24	; 0x8000c6 <__TEXT_REGION_LENGTH__+0x7f00c6>
    228a:	04 c0       	rjmp	.+8      	; 0x2294 <__vector_22+0x3a>
    228c:	10 92 2e 09 	sts	0x092E, r1	; 0x80092e <tx_buffer_cursor>
    2290:	10 92 2f 09 	sts	0x092F, r1	; 0x80092f <tx_buffer_data_len>
    2294:	ff 91       	pop	r31
    2296:	ef 91       	pop	r30
    2298:	8f 91       	pop	r24
    229a:	0f 90       	pop	r0
    229c:	0f be       	out	0x3f, r0	; 63
    229e:	0f 90       	pop	r0
    22a0:	1f 90       	pop	r1
    22a2:	18 95       	reti

Disassembly of section .text.__vector_20:

00001ba0 <__vector_20>:
    1ba0:	1f 92       	push	r1
    1ba2:	0f 92       	push	r0
    1ba4:	0f b6       	in	r0, 0x3f	; 63
    1ba6:	0f 92       	push	r0
    1ba8:	11 24       	eor	r1, r1
    1baa:	2f 93       	push	r18
    1bac:	8f 93       	push	r24
    1bae:	9f 93       	push	r25
    1bb0:	ef 93       	push	r30
    1bb2:	ff 93       	push	r31
    1bb4:	80 91 2c 09 	lds	r24, 0x092C	; 0x80092c <rx_buffer_has_message>
    1bb8:	81 11       	cpse	r24, r1
    1bba:	0e c0       	rjmp	.+28     	; 0x1bd8 <__vector_20+0x38>
    1bbc:	e0 91 2d 09 	lds	r30, 0x092D	; 0x80092d <rx_buffer_data_len>
    1bc0:	e4 36       	cpi	r30, 0x64	; 100
    1bc2:	50 f4       	brcc	.+20     	; 0x1bd8 <__vector_20+0x38>
    1bc4:	81 e0       	ldi	r24, 0x01	; 1
    1bc6:	8e 0f       	add	r24, r30
    1bc8:	80 93 2d 09 	sts	0x092D, r24	; 0x80092d <rx_buffer_data_len>
    1bcc:	f0 e0       	ldi	r31, 0x00	; 0
    1bce:	80 91 c6 00 	lds	r24, 0x00C6	; 0x8000c6 <__TEXT_REGION_LENGTH__+0x7f00c6>
    1bd2:	e0 50       	subi	r30, 0x00	; 0
    1bd4:	ff 4f       	sbci	r31, 0xFF	; 255
    1bd6:	80 83       	st	Z, r24
    1bd8:	80 91 2d 09 	lds	r24, 0x092D	; 0x80092d <rx_buffer_data_len>
    1bdc:	83 30       	cpi	r24, 0x03	; 3
    1bde:	80 f0       	brcs	.+32     	; 0x1c00 <__vector_20+0x60>
    1be0:	90 e0       	ldi	r25, 0x00	; 0
    1be2:	fc 01       	movw	r30, r24
    1be4:	e1 50       	subi	r30, 0x01	; 1
    1be6:	ff 4f       	sbci	r31, 0xFF	; 255
    1be8:	20 81       	ld	r18, Z
    1bea:	2a 30       	cpi	r18, 0x0A	; 10
    1bec:	49 f4       	brne	.+18     	; 0x1c00 <__vector_20+0x60>
    1bee:	fc 01       	movw	r30, r24
    1bf0:	e2 50       	subi	r30, 0x02	; 2
    1bf2:	ff 4f       	sbci	r31, 0xFF	; 255
    1bf4:	80 81       	ld	r24, Z
    1bf6:	8d 30       	cpi	r24, 0x0D	; 13
    1bf8:	19 f4       	brne	.+6      	; 0x1c00 <__vector_20+0x60>
    1bfa:	81 e0       	ldi	r24, 0x01	; 1
    1bfc:	80 93 2c 09 	sts	0x092C, r24	; 0x80092c <rx_buffer_has_message>
    1c00:	ff 91       	pop	r31
    1c02:	ef 91       	pop	r30
    1c04:	9f 91       	pop	r25
    1c06:	8f 91       	pop	r24
    1c08:	2f 91       	pop	r18
    1c0a:	0f 90       	pop	r0
    1c0c:	0f be       	out	0x3f, r0	; 63
    1c0e:	0f 90       	pop	r0
    1c10:	1f 90       	pop	r1
    1c12:	18 95       	reti

Disassembly of section .text.uart1_hal_init:

00002770 <uart1_hal_init>:
static uint8_t rx_buffer[UART1_RX_BUFF_LENGTH];
static uint8_t rx_buffer_data_len=0;
static uint8_t rx_buffer_has_message=0;

void uart1_hal_init(){
	set_bit(UCSR1B, 4); //Enable Rx
    2770:	e9 ec       	ldi	r30, 0xC9	; 201
    2772:	f0 e0       	ldi	r31, 0x00	; 0
    2774:	80 81       	ld	r24, Z
    2776:	80 61       	ori	r24, 0x10	; 16
    2778:	80 83       	st	Z, r24
	set_bit(UCSR1B, 3); //Enable Tx
    277a:	80 81       	ld	r24, Z
    277c:	88 60       	ori	r24, 0x08	; 8
    277e:	80 83       	st	Z, r24
	set_bit(UCSR1B, 7); //interrupt Rx complete
    2780:	80 81       	ld	r24, Z
    2782:	80 68       	ori	r24, 0x80	; 128
    2784:	80 83       	st	Z, r24
	set_bit(UCSR1B, 6); //interrupt Tx complete
    2786:	80 81       	ld	r24, Z
    2788:	80 64       	ori	r24, 0x40	; 64
    278a:	80 83       	st	Z, r24
	set_bit(UCSR1A, 1); //Set double speed
    278c:	e8 ec       	ldi	r30, 0xC8	; 200
    278e:	f0 e0       	ldi	r31, 0x00	; 0
    2790:	80 81       	ld	r24, Z
    2792:	82 60       	ori	r24, 0x02	; 2
    2794:	80 83       	st	Z, r24
	UCSR1C = 0b00000110; //Async, none parity, 1 stop bit, 8 databit
    2796:	86 e0       	ldi	r24, 0x06	; 6
    2798:	80 93 ca 00 	sts	0x00CA, r24	; 0x8000ca <__TEXT_REGION_LENGTH__+0x7f00ca>
	UBRR1=(8000000/(8*57600))-1; //set baudrate
    279c:	80 e1       	ldi	r24, 0x10	; 16
    279e:	90 e0       	ldi	r25, 0x00	; 0
    27a0:	90 93 cd 00 	sts	0x00CD, r25	; 0x8000cd <__TEXT_REGION_LENGTH__+0x7f00cd>
    27a4:	80 93 cc 00 	sts	0x00CC, r24	; 0x8000cc <__TEXT_REGION_LENGTH__+0x7f00cc>
	sei();
    27a8:	78 94       	sei
    27aa:	08 95       	ret

Disassembly of section .text.__vector_30:

000022a4 <__vector_30>:
static void copy_buffer(uint8_t msg[]){
	for (uint8_t i=0; i<rx_buffer_data_len-2; i++)
	{
		msg[i]=rx_buffer[i];
	}
}
    22a4:	1f 92       	push	r1
    22a6:	0f 92       	push	r0
    22a8:	0f b6       	in	r0, 0x3f	; 63
    22aa:	0f 92       	push	r0
    22ac:	11 24       	eor	r1, r1
    22ae:	8f 93       	push	r24
    22b0:	ef 93       	push	r30
    22b2:	ff 93       	push	r31
    22b4:	e0 91 32 09 	lds	r30, 0x0932	; 0x800932 <tx_buffer_cursor>
    22b8:	80 91 33 09 	lds	r24, 0x0933	; 0x800933 <tx_buffer_data_len>
    22bc:	e8 17       	cp	r30, r24
    22be:	58 f4       	brcc	.+22     	; 0x22d6 <__vector_30+0x32>
    22c0:	81 e0       	ldi	r24, 0x01	; 1
    22c2:	8e 0f       	add	r24, r30
    22c4:	80 93 32 09 	sts	0x0932, r24	; 0x800932 <tx_buffer_cursor>
    22c8:	f0 e0       	ldi	r31, 0x00	; 0
    22ca:	ec 54       	subi	r30, 0x4C	; 76
    22cc:	f9 4f       	sbci	r31, 0xF9	; 249
    22ce:	80 81       	ld	r24, Z
    22d0:	80 93 ce 00 	sts	0x00CE, r24	; 0x8000ce <__TEXT_REGION_LENGTH__+0x7f00ce>
    22d4:	04 c0       	rjmp	.+8      	; 0x22de <__vector_30+0x3a>
    22d6:	10 92 32 09 	sts	0x0932, r1	; 0x800932 <tx_buffer_cursor>
    22da:	10 92 33 09 	sts	0x0933, r1	; 0x800933 <tx_buffer_data_len>
    22de:	ff 91       	pop	r31
    22e0:	ef 91       	pop	r30
    22e2:	8f 91       	pop	r24
    22e4:	0f 90       	pop	r0
    22e6:	0f be       	out	0x3f, r0	; 63
    22e8:	0f 90       	pop	r0
    22ea:	1f 90       	pop	r1
    22ec:	18 95       	reti

Disassembly of section .text.__vector_28:

00001c14 <__vector_28>:
    1c14:	1f 92       	push	r1
    1c16:	0f 92       	push	r0
    1c18:	0f b6       	in	r0, 0x3f	; 63
    1c1a:	0f 92       	push	r0
    1c1c:	11 24       	eor	r1, r1
    1c1e:	2f 93       	push	r18
    1c20:	8f 93       	push	r24
    1c22:	9f 93       	push	r25
    1c24:	ef 93       	push	r30
    1c26:	ff 93       	push	r31
    1c28:	80 91 30 09 	lds	r24, 0x0930	; 0x800930 <rx_buffer_has_message>
    1c2c:	81 11       	cpse	r24, r1
    1c2e:	0e c0       	rjmp	.+28     	; 0x1c4c <__vector_28+0x38>
    1c30:	e0 91 31 09 	lds	r30, 0x0931	; 0x800931 <rx_buffer_data_len>
    1c34:	e4 36       	cpi	r30, 0x64	; 100
    1c36:	50 f4       	brcc	.+20     	; 0x1c4c <__vector_28+0x38>
    1c38:	81 e0       	ldi	r24, 0x01	; 1
    1c3a:	8e 0f       	add	r24, r30
    1c3c:	80 93 31 09 	sts	0x0931, r24	; 0x800931 <rx_buffer_data_len>
    1c40:	f0 e0       	ldi	r31, 0x00	; 0
    1c42:	80 91 ce 00 	lds	r24, 0x00CE	; 0x8000ce <__TEXT_REGION_LENGTH__+0x7f00ce>
    1c46:	e8 55       	subi	r30, 0x58	; 88
    1c48:	f7 4f       	sbci	r31, 0xF7	; 247
    1c4a:	80 83       	st	Z, r24
    1c4c:	80 91 31 09 	lds	r24, 0x0931	; 0x800931 <rx_buffer_data_len>
    1c50:	90 e0       	ldi	r25, 0x00	; 0
    1c52:	fc 01       	movw	r30, r24
    1c54:	e9 55       	subi	r30, 0x59	; 89
    1c56:	f7 4f       	sbci	r31, 0xF7	; 247
    1c58:	20 81       	ld	r18, Z
    1c5a:	2a 30       	cpi	r18, 0x0A	; 10
    1c5c:	49 f4       	brne	.+18     	; 0x1c70 <__vector_28+0x5c>
    1c5e:	fc 01       	movw	r30, r24
    1c60:	ea 55       	subi	r30, 0x5A	; 90
    1c62:	f7 4f       	sbci	r31, 0xF7	; 247
    1c64:	80 81       	ld	r24, Z
    1c66:	8d 30       	cpi	r24, 0x0D	; 13
    1c68:	19 f4       	brne	.+6      	; 0x1c70 <__vector_28+0x5c>
    1c6a:	81 e0       	ldi	r24, 0x01	; 1
    1c6c:	80 93 30 09 	sts	0x0930, r24	; 0x800930 <rx_buffer_has_message>
    1c70:	ff 91       	pop	r31
    1c72:	ef 91       	pop	r30
    1c74:	9f 91       	pop	r25
    1c76:	8f 91       	pop	r24
    1c78:	2f 91       	pop	r18
    1c7a:	0f 90       	pop	r0
    1c7c:	0f be       	out	0x3f, r0	; 63
    1c7e:	0f 90       	pop	r0
    1c80:	1f 90       	pop	r1
    1c82:	18 95       	reti

Disassembly of section .text.main:

00002e98 <main>:
{
	//test_runner();
	
	while(1)
    {
		MAINPG_start();
    2e98:	0e 94 f8 04 	call	0x9f0	; 0x9f0 <MAINPG_start>
	#else
		//round up by default
		__ticks_dc = (uint32_t)(ceil(fabs(__tmp)));
	#endif

	__builtin_avr_delay_cycles(__ticks_dc);
    2e9c:	2f ef       	ldi	r18, 0xFF	; 255
    2e9e:	8d e3       	ldi	r24, 0x3D	; 61
    2ea0:	99 e4       	ldi	r25, 0x49	; 73
    2ea2:	21 50       	subi	r18, 0x01	; 1
    2ea4:	80 40       	sbci	r24, 0x00	; 0
    2ea6:	90 40       	sbci	r25, 0x00	; 0
    2ea8:	e1 f7       	brne	.-8      	; 0x2ea2 <main+0xa>
    2eaa:	00 c0       	rjmp	.+0      	; 0x2eac <main+0x14>
    2eac:	00 00       	nop
    2eae:	f4 cf       	rjmp	.-24     	; 0x2e98 <main>

Disassembly of section .text.vect_ADC_heat_timeout:

00002eb0 <vect_ADC_heat_timeout>:
}

ADC_STATUS ADC_meth_sens_power_off(){
	PM_HAL_meth_power(false);
	return ADC_STATUS_SUCCESS;
}
    2eb0:	80 91 34 09 	lds	r24, 0x0934	; 0x800934 <cntPowerUpTime>
    2eb4:	8f 5f       	subi	r24, 0xFF	; 255
    2eb6:	80 93 34 09 	sts	0x0934, r24	; 0x800934 <cntPowerUpTime>
    2eba:	90 91 35 09 	lds	r25, 0x0935	; 0x800935 <_powerUpTime>
    2ebe:	89 17       	cp	r24, r25
    2ec0:	10 f0       	brcs	.+4      	; 0x2ec6 <vect_ADC_heat_timeout+0x16>
    2ec2:	0e 94 8d 18 	call	0x311a	; 0x311a <TC0_HAL_stop>
    2ec6:	08 95       	ret

Disassembly of section .text.ADC_meth_sens_power_on:

00002d5c <ADC_meth_sens_power_on>:
    2d5c:	80 93 35 09 	sts	0x0935, r24	; 0x800935 <_powerUpTime>
    2d60:	10 92 34 09 	sts	0x0934, r1	; 0x800934 <cntPowerUpTime>
    2d64:	81 e0       	ldi	r24, 0x01	; 1
    2d66:	0e 94 93 17 	call	0x2f26	; 0x2f26 <PM_HAL_meth_power>
    2d6a:	68 e5       	ldi	r22, 0x58	; 88
    2d6c:	77 e1       	ldi	r23, 0x17	; 23
    2d6e:	81 e0       	ldi	r24, 0x01	; 1
    2d70:	0e 94 7e 16 	call	0x2cfc	; 0x2cfc <TC0_HAL_init>
    2d74:	0e 94 70 18 	call	0x30e0	; 0x30e0 <TC0_HAL_start>
    2d78:	80 e0       	ldi	r24, 0x00	; 0
    2d7a:	08 95       	ret

Disassembly of section .text.ADC_meth_sens_ready:

00002fb0 <ADC_meth_sens_ready>:

bool ADC_meth_sens_ready(){
	return cntPowerUpTime>=_powerUpTime;
    2fb0:	20 91 34 09 	lds	r18, 0x0934	; 0x800934 <cntPowerUpTime>
    2fb4:	90 91 35 09 	lds	r25, 0x0935	; 0x800935 <_powerUpTime>
    2fb8:	81 e0       	ldi	r24, 0x01	; 1
    2fba:	29 17       	cp	r18, r25
    2fbc:	08 f4       	brcc	.+2      	; 0x2fc0 <ADC_meth_sens_ready+0x10>
    2fbe:	80 e0       	ldi	r24, 0x00	; 0
}
    2fc0:	08 95       	ret

Disassembly of section .text.JN_join_network:

0000075a <JN_join_network>:
#include "../../../HAL/RN2483/RN2483_HAL.h"
#include "../RN2483_protocol/RN2483_protocol.h"
#include "../../../HAL/UART0/UART0_HAL.h"
#include "../util/util.h"

LM_STATUS JN_join_network(char deveui[], char appeui[], char appkey[]){
 75a:	af 92       	push	r10
 75c:	bf 92       	push	r11
 75e:	cf 92       	push	r12
 760:	df 92       	push	r13
 762:	ef 92       	push	r14
 764:	ff 92       	push	r15
 766:	1f 93       	push	r17
 768:	cf 93       	push	r28
 76a:	df 93       	push	r29
 76c:	cd b7       	in	r28, 0x3d	; 61
 76e:	de b7       	in	r29, 0x3e	; 62
 770:	28 97       	sbiw	r28, 0x08	; 8
 772:	0f b6       	in	r0, 0x3f	; 63
 774:	f8 94       	cli
 776:	de bf       	out	0x3e, r29	; 62
 778:	0f be       	out	0x3f, r0	; 63
 77a:	cd bf       	out	0x3d, r28	; 61
 77c:	5c 01       	movw	r10, r24
 77e:	6b 01       	movw	r12, r22
 780:	7a 01       	movw	r14, r20
	
	JN_STATES state=JN_HW_RESET_RN2483;
 782:	10 e0       	ldi	r17, 0x00	; 0
	LM_STATE_DATA stateData;
	
	
	
	while(1){
		switch(state){
 784:	e1 2f       	mov	r30, r17
 786:	f0 e0       	ldi	r31, 0x00	; 0
 788:	ed 30       	cpi	r30, 0x0D	; 13
 78a:	f1 05       	cpc	r31, r1
 78c:	d8 f7       	brcc	.-10     	; 0x784 <JN_join_network+0x2a>
 78e:	e2 5c       	subi	r30, 0xC2	; 194
 790:	ff 4f       	sbci	r31, 0xFF	; 255
 792:	0c 94 46 18 	jmp	0x308c	; 0x308c <__tablejump2__>
			case JN_HW_RESET_RN2483:
				rn2483_reset_active();
 796:	0e 94 60 18 	call	0x30c0	; 0x30c0 <rn2483_reset_active>
 79a:	2f ef       	ldi	r18, 0xFF	; 255
 79c:	89 e6       	ldi	r24, 0x69	; 105
 79e:	98 e1       	ldi	r25, 0x18	; 24
 7a0:	21 50       	subi	r18, 0x01	; 1
 7a2:	80 40       	sbci	r24, 0x00	; 0
 7a4:	90 40       	sbci	r25, 0x00	; 0
 7a6:	e1 f7       	brne	.-8      	; 0x7a0 <JN_join_network+0x46>
 7a8:	00 c0       	rjmp	.+0      	; 0x7aa <JN_join_network+0x50>
 7aa:	00 00       	nop
				_delay_ms(1000);
				rn2483_reset_deactive();
 7ac:	0e 94 64 18 	call	0x30c8	; 0x30c8 <rn2483_reset_deactive>
				
				util_setPendingStates(&stateData, JN_SOFT_RESET_LORA, JN_JOIN_FATAL_ERROR);
 7b0:	4c e0       	ldi	r20, 0x0C	; 12
 7b2:	50 e0       	ldi	r21, 0x00	; 0
 7b4:	62 e0       	ldi	r22, 0x02	; 2
 7b6:	70 e0       	ldi	r23, 0x00	; 0
 7b8:	ce 01       	movw	r24, r28
 7ba:	01 96       	adiw	r24, 0x01	; 1
 7bc:	0e 94 2e 18 	call	0x305c	; 0x305c <util_setPendingStates>
				util_setMatchCase(&stateData, LM_BEGINS_WITH, RN2483);
 7c0:	23 e8       	ldi	r18, 0x83	; 131
 7c2:	32 e0       	ldi	r19, 0x02	; 2
 7c4:	40 e0       	ldi	r20, 0x00	; 0
 7c6:	61 e0       	ldi	r22, 0x01	; 1
 7c8:	ce 01       	movw	r24, r28
 7ca:	01 96       	adiw	r24, 0x01	; 1
 7cc:	0e 94 34 18 	call	0x3068	; 0x3068 <util_setMatchCase>
				
				state=JN_WAIT_FOR_INCOMMING;
 7d0:	11 e0       	ldi	r17, 0x01	; 1
			break;
 7d2:	d8 cf       	rjmp	.-80     	; 0x784 <JN_join_network+0x2a>
			
			case JN_SOFT_RESET_LORA:
				cmd_with_ending(lm_msg, MAC_RESET_TO_868_BAND);
 7d4:	4a e8       	ldi	r20, 0x8A	; 138
 7d6:	52 e0       	ldi	r21, 0x02	; 2
 7d8:	60 e0       	ldi	r22, 0x00	; 0
 7da:	82 e3       	ldi	r24, 0x32	; 50
 7dc:	92 e0       	ldi	r25, 0x02	; 2
 7de:	0e 94 e5 14 	call	0x29ca	; 0x29ca <cmd_with_ending>
				util_transmit_msg(lm_msg);
 7e2:	82 e3       	ldi	r24, 0x32	; 50
 7e4:	92 e0       	ldi	r25, 0x02	; 2
 7e6:	0e 94 08 17 	call	0x2e10	; 0x2e10 <util_transmit_msg>
				
				util_setPendingStates(&stateData, JN_LOAD_DEVEUI, JN_JOIN_FATAL_ERROR);
 7ea:	4c e0       	ldi	r20, 0x0C	; 12
 7ec:	50 e0       	ldi	r21, 0x00	; 0
 7ee:	63 e0       	ldi	r22, 0x03	; 3
 7f0:	70 e0       	ldi	r23, 0x00	; 0
 7f2:	ce 01       	movw	r24, r28
 7f4:	01 96       	adiw	r24, 0x01	; 1
 7f6:	0e 94 2e 18 	call	0x305c	; 0x305c <util_setPendingStates>
				util_setMatchCase(&stateData, LM_EXACT, OK);
 7fa:	28 e9       	ldi	r18, 0x98	; 152
 7fc:	32 e0       	ldi	r19, 0x02	; 2
 7fe:	40 e0       	ldi	r20, 0x00	; 0
 800:	60 e0       	ldi	r22, 0x00	; 0
 802:	ce 01       	movw	r24, r28
 804:	01 96       	adiw	r24, 0x01	; 1
 806:	0e 94 34 18 	call	0x3068	; 0x3068 <util_setMatchCase>
				state=JN_WAIT_FOR_INCOMMING;
 80a:	11 e0       	ldi	r17, 0x01	; 1
			break;
 80c:	bb cf       	rjmp	.-138    	; 0x784 <JN_join_network+0x2a>
			
			case JN_LOAD_DEVEUI:
				mac_set_deveui(lm_msg, deveui);
 80e:	b5 01       	movw	r22, r10
 810:	82 e3       	ldi	r24, 0x32	; 50
 812:	92 e0       	ldi	r25, 0x02	; 2
 814:	0e 94 c0 11 	call	0x2380	; 0x2380 <mac_set_deveui>
				attach_ending(lm_msg);
 818:	82 e3       	ldi	r24, 0x32	; 50
 81a:	92 e0       	ldi	r25, 0x02	; 2
 81c:	0e 94 fa 16 	call	0x2df4	; 0x2df4 <attach_ending>
				util_transmit_msg(lm_msg);
 820:	82 e3       	ldi	r24, 0x32	; 50
 822:	92 e0       	ldi	r25, 0x02	; 2
 824:	0e 94 08 17 	call	0x2e10	; 0x2e10 <util_transmit_msg>
				
				util_setPendingStates(&stateData, JN_LOAD_APPKEY, JN_JOIN_FATAL_ERROR);
 828:	4c e0       	ldi	r20, 0x0C	; 12
 82a:	50 e0       	ldi	r21, 0x00	; 0
 82c:	64 e0       	ldi	r22, 0x04	; 4
 82e:	70 e0       	ldi	r23, 0x00	; 0
 830:	ce 01       	movw	r24, r28
 832:	01 96       	adiw	r24, 0x01	; 1
 834:	0e 94 2e 18 	call	0x305c	; 0x305c <util_setPendingStates>
				util_setMatchCase(&stateData, LM_EXACT, OK);
 838:	28 e9       	ldi	r18, 0x98	; 152
 83a:	32 e0       	ldi	r19, 0x02	; 2
 83c:	40 e0       	ldi	r20, 0x00	; 0
 83e:	60 e0       	ldi	r22, 0x00	; 0
 840:	ce 01       	movw	r24, r28
 842:	01 96       	adiw	r24, 0x01	; 1
 844:	0e 94 34 18 	call	0x3068	; 0x3068 <util_setMatchCase>
				state=JN_WAIT_FOR_INCOMMING;
 848:	11 e0       	ldi	r17, 0x01	; 1
			break;
 84a:	9c cf       	rjmp	.-200    	; 0x784 <JN_join_network+0x2a>
			
			case JN_LOAD_APPKEY:
				mac_set_appkey(lm_msg, appkey);
 84c:	b7 01       	movw	r22, r14
 84e:	82 e3       	ldi	r24, 0x32	; 50
 850:	92 e0       	ldi	r25, 0x02	; 2
 852:	0e 94 08 12 	call	0x2410	; 0x2410 <mac_set_appkey>
				attach_ending(lm_msg);
 856:	82 e3       	ldi	r24, 0x32	; 50
 858:	92 e0       	ldi	r25, 0x02	; 2
 85a:	0e 94 fa 16 	call	0x2df4	; 0x2df4 <attach_ending>
				util_transmit_msg(lm_msg);
 85e:	82 e3       	ldi	r24, 0x32	; 50
 860:	92 e0       	ldi	r25, 0x02	; 2
 862:	0e 94 08 17 	call	0x2e10	; 0x2e10 <util_transmit_msg>
				
				util_setPendingStates(&stateData, JN_LOAD_APPEUI, JN_JOIN_FATAL_ERROR);
 866:	4c e0       	ldi	r20, 0x0C	; 12
 868:	50 e0       	ldi	r21, 0x00	; 0
 86a:	65 e0       	ldi	r22, 0x05	; 5
 86c:	70 e0       	ldi	r23, 0x00	; 0
 86e:	ce 01       	movw	r24, r28
 870:	01 96       	adiw	r24, 0x01	; 1
 872:	0e 94 2e 18 	call	0x305c	; 0x305c <util_setPendingStates>
				util_setMatchCase(&stateData, LM_EXACT, OK);
 876:	28 e9       	ldi	r18, 0x98	; 152
 878:	32 e0       	ldi	r19, 0x02	; 2
 87a:	40 e0       	ldi	r20, 0x00	; 0
 87c:	60 e0       	ldi	r22, 0x00	; 0
 87e:	ce 01       	movw	r24, r28
 880:	01 96       	adiw	r24, 0x01	; 1
 882:	0e 94 34 18 	call	0x3068	; 0x3068 <util_setMatchCase>
				state=JN_WAIT_FOR_INCOMMING;
 886:	11 e0       	ldi	r17, 0x01	; 1
			break;
 888:	7d cf       	rjmp	.-262    	; 0x784 <JN_join_network+0x2a>
			
			case JN_LOAD_APPEUI:
				mac_set_appeui(lm_msg, appeui);
 88a:	b6 01       	movw	r22, r12
 88c:	82 e3       	ldi	r24, 0x32	; 50
 88e:	92 e0       	ldi	r25, 0x02	; 2
 890:	0e 94 e4 11 	call	0x23c8	; 0x23c8 <mac_set_appeui>
				attach_ending(lm_msg);
 894:	82 e3       	ldi	r24, 0x32	; 50
 896:	92 e0       	ldi	r25, 0x02	; 2
 898:	0e 94 fa 16 	call	0x2df4	; 0x2df4 <attach_ending>
				util_transmit_msg(lm_msg);
 89c:	82 e3       	ldi	r24, 0x32	; 50
 89e:	92 e0       	ldi	r25, 0x02	; 2
 8a0:	0e 94 08 17 	call	0x2e10	; 0x2e10 <util_transmit_msg>
				
				util_setPendingStates(&stateData, JN_LOAD_ADR, JN_JOIN_FATAL_ERROR);
 8a4:	4c e0       	ldi	r20, 0x0C	; 12
 8a6:	50 e0       	ldi	r21, 0x00	; 0
 8a8:	66 e0       	ldi	r22, 0x06	; 6
 8aa:	70 e0       	ldi	r23, 0x00	; 0
 8ac:	ce 01       	movw	r24, r28
 8ae:	01 96       	adiw	r24, 0x01	; 1
 8b0:	0e 94 2e 18 	call	0x305c	; 0x305c <util_setPendingStates>
				util_setMatchCase(&stateData, LM_EXACT, OK);
 8b4:	28 e9       	ldi	r18, 0x98	; 152
 8b6:	32 e0       	ldi	r19, 0x02	; 2
 8b8:	40 e0       	ldi	r20, 0x00	; 0
 8ba:	60 e0       	ldi	r22, 0x00	; 0
 8bc:	ce 01       	movw	r24, r28
 8be:	01 96       	adiw	r24, 0x01	; 1
 8c0:	0e 94 34 18 	call	0x3068	; 0x3068 <util_setMatchCase>
				state=JN_WAIT_FOR_INCOMMING;
 8c4:	11 e0       	ldi	r17, 0x01	; 1
			break;
 8c6:	5e cf       	rjmp	.-324    	; 0x784 <JN_join_network+0x2a>
			
			case JN_LOAD_ADR:
				mac_set_ADR(lm_msg, 1);
 8c8:	61 e0       	ldi	r22, 0x01	; 1
 8ca:	82 e3       	ldi	r24, 0x32	; 50
 8cc:	92 e0       	ldi	r25, 0x02	; 2
 8ce:	0e 94 62 15 	call	0x2ac4	; 0x2ac4 <mac_set_ADR>
				attach_ending(lm_msg);
 8d2:	82 e3       	ldi	r24, 0x32	; 50
 8d4:	92 e0       	ldi	r25, 0x02	; 2
 8d6:	0e 94 fa 16 	call	0x2df4	; 0x2df4 <attach_ending>
				util_transmit_msg(lm_msg);
 8da:	82 e3       	ldi	r24, 0x32	; 50
 8dc:	92 e0       	ldi	r25, 0x02	; 2
 8de:	0e 94 08 17 	call	0x2e10	; 0x2e10 <util_transmit_msg>
				
				util_setPendingStates(&stateData, JN_LOAD_SAVE, JN_JOIN_FATAL_ERROR);
 8e2:	4c e0       	ldi	r20, 0x0C	; 12
 8e4:	50 e0       	ldi	r21, 0x00	; 0
 8e6:	67 e0       	ldi	r22, 0x07	; 7
 8e8:	70 e0       	ldi	r23, 0x00	; 0
 8ea:	ce 01       	movw	r24, r28
 8ec:	01 96       	adiw	r24, 0x01	; 1
 8ee:	0e 94 2e 18 	call	0x305c	; 0x305c <util_setPendingStates>
				util_setMatchCase(&stateData, LM_EXACT, OK);
 8f2:	28 e9       	ldi	r18, 0x98	; 152
 8f4:	32 e0       	ldi	r19, 0x02	; 2
 8f6:	40 e0       	ldi	r20, 0x00	; 0
 8f8:	60 e0       	ldi	r22, 0x00	; 0
 8fa:	ce 01       	movw	r24, r28
 8fc:	01 96       	adiw	r24, 0x01	; 1
 8fe:	0e 94 34 18 	call	0x3068	; 0x3068 <util_setMatchCase>
				state=JN_WAIT_FOR_INCOMMING;
 902:	11 e0       	ldi	r17, 0x01	; 1
			break;
 904:	3f cf       	rjmp	.-386    	; 0x784 <JN_join_network+0x2a>
			
			case JN_LOAD_SAVE:
				cmd_with_ending(lm_msg, MAC_SAVE);
 906:	4b e9       	ldi	r20, 0x9B	; 155
 908:	52 e0       	ldi	r21, 0x02	; 2
 90a:	60 e0       	ldi	r22, 0x00	; 0
 90c:	82 e3       	ldi	r24, 0x32	; 50
 90e:	92 e0       	ldi	r25, 0x02	; 2
 910:	0e 94 e5 14 	call	0x29ca	; 0x29ca <cmd_with_ending>
				util_transmit_msg(lm_msg);
 914:	82 e3       	ldi	r24, 0x32	; 50
 916:	92 e0       	ldi	r25, 0x02	; 2
 918:	0e 94 08 17 	call	0x2e10	; 0x2e10 <util_transmit_msg>
				
				util_setPendingStates(&stateData, JN_JOIN_NETWORK, JN_JOIN_FATAL_ERROR);
 91c:	4c e0       	ldi	r20, 0x0C	; 12
 91e:	50 e0       	ldi	r21, 0x00	; 0
 920:	68 e0       	ldi	r22, 0x08	; 8
 922:	70 e0       	ldi	r23, 0x00	; 0
 924:	ce 01       	movw	r24, r28
 926:	01 96       	adiw	r24, 0x01	; 1
 928:	0e 94 2e 18 	call	0x305c	; 0x305c <util_setPendingStates>
				util_setMatchCase(&stateData, LM_EXACT, OK);
 92c:	28 e9       	ldi	r18, 0x98	; 152
 92e:	32 e0       	ldi	r19, 0x02	; 2
 930:	40 e0       	ldi	r20, 0x00	; 0
 932:	60 e0       	ldi	r22, 0x00	; 0
 934:	ce 01       	movw	r24, r28
 936:	01 96       	adiw	r24, 0x01	; 1
 938:	0e 94 34 18 	call	0x3068	; 0x3068 <util_setMatchCase>
				state=JN_WAIT_FOR_INCOMMING;
 93c:	11 e0       	ldi	r17, 0x01	; 1
			break;
 93e:	22 cf       	rjmp	.-444    	; 0x784 <JN_join_network+0x2a>
			
			case JN_JOIN_NETWORK:
				cmd_with_ending(lm_msg, MAC_JOIN_OTAA);
 940:	44 ea       	ldi	r20, 0xA4	; 164
 942:	52 e0       	ldi	r21, 0x02	; 2
 944:	60 e0       	ldi	r22, 0x00	; 0
 946:	82 e3       	ldi	r24, 0x32	; 50
 948:	92 e0       	ldi	r25, 0x02	; 2
 94a:	0e 94 e5 14 	call	0x29ca	; 0x29ca <cmd_with_ending>
				util_transmit_msg(lm_msg);
 94e:	82 e3       	ldi	r24, 0x32	; 50
 950:	92 e0       	ldi	r25, 0x02	; 2
 952:	0e 94 08 17 	call	0x2e10	; 0x2e10 <util_transmit_msg>
				
				util_setPendingStates(&stateData, JN_JOIN_NETWORK_RES_2, JN_JOIN_NETWORK_FAILED);
 956:	4a e0       	ldi	r20, 0x0A	; 10
 958:	50 e0       	ldi	r21, 0x00	; 0
 95a:	69 e0       	ldi	r22, 0x09	; 9
 95c:	70 e0       	ldi	r23, 0x00	; 0
 95e:	ce 01       	movw	r24, r28
 960:	01 96       	adiw	r24, 0x01	; 1
 962:	0e 94 2e 18 	call	0x305c	; 0x305c <util_setPendingStates>
				util_setMatchCase(&stateData, LM_EXACT, OK);
 966:	28 e9       	ldi	r18, 0x98	; 152
 968:	32 e0       	ldi	r19, 0x02	; 2
 96a:	40 e0       	ldi	r20, 0x00	; 0
 96c:	60 e0       	ldi	r22, 0x00	; 0
 96e:	ce 01       	movw	r24, r28
 970:	01 96       	adiw	r24, 0x01	; 1
 972:	0e 94 34 18 	call	0x3068	; 0x3068 <util_setMatchCase>
				state=JN_WAIT_FOR_INCOMMING;
 976:	11 e0       	ldi	r17, 0x01	; 1
			break;
 978:	05 cf       	rjmp	.-502    	; 0x784 <JN_join_network+0x2a>
			
			case JN_JOIN_NETWORK_RES_2:
				util_setPendingStates(&stateData, JN_JOIN_SUCCESS, JN_JOIN_NETWORK_FAILED);
 97a:	4a e0       	ldi	r20, 0x0A	; 10
 97c:	50 e0       	ldi	r21, 0x00	; 0
 97e:	6b e0       	ldi	r22, 0x0B	; 11
 980:	70 e0       	ldi	r23, 0x00	; 0
 982:	ce 01       	movw	r24, r28
 984:	01 96       	adiw	r24, 0x01	; 1
 986:	0e 94 2e 18 	call	0x305c	; 0x305c <util_setPendingStates>
				util_setMatchCase(&stateData, LM_EXACT, ACCEPTED);
 98a:	22 eb       	ldi	r18, 0xB2	; 178
 98c:	32 e0       	ldi	r19, 0x02	; 2
 98e:	40 e0       	ldi	r20, 0x00	; 0
 990:	60 e0       	ldi	r22, 0x00	; 0
 992:	ce 01       	movw	r24, r28
 994:	01 96       	adiw	r24, 0x01	; 1
 996:	0e 94 34 18 	call	0x3068	; 0x3068 <util_setMatchCase>
				state=JN_WAIT_FOR_INCOMMING;
 99a:	11 e0       	ldi	r17, 0x01	; 1
			break;
 99c:	f3 ce       	rjmp	.-538    	; 0x784 <JN_join_network+0x2a>
				
			case JN_JOIN_FATAL_ERROR:
				return LM_STATUS_FATAL_ERROR;
				
			case JN_JOIN_NETWORK_FAILED:
				return util_parse_err(lm_msg);
 99e:	82 e3       	ldi	r24, 0x32	; 50
 9a0:	92 e0       	ldi	r25, 0x02	; 2
 9a2:	0e 94 9e 0f 	call	0x1f3c	; 0x1f3c <util_parse_err>
 9a6:	14 c0       	rjmp	.+40     	; 0x9d0 <__EEPROM_REGION_LENGTH__+0x1d0>
				
				
			case JN_WAIT_FOR_INCOMMING:
				if(uart0_hal_message_ready()){
 9a8:	0e 94 14 18 	call	0x3028	; 0x3028 <uart0_hal_message_ready>
 9ac:	88 23       	and	r24, r24
 9ae:	09 f4       	brne	.+2      	; 0x9b2 <__EEPROM_REGION_LENGTH__+0x1b2>
 9b0:	e9 ce       	rjmp	.-558    	; 0x784 <JN_join_network+0x2a>
					util_read_msg(lm_msg);
 9b2:	82 e3       	ldi	r24, 0x32	; 50
 9b4:	92 e0       	ldi	r25, 0x02	; 2
 9b6:	0e 94 82 18 	call	0x3104	; 0x3104 <util_read_msg>
					state=util_matchMessage(&stateData, lm_msg);
 9ba:	62 e3       	ldi	r22, 0x32	; 50
 9bc:	72 e0       	ldi	r23, 0x02	; 2
 9be:	ce 01       	movw	r24, r28
 9c0:	01 96       	adiw	r24, 0x01	; 1
 9c2:	0e 94 13 0f 	call	0x1e26	; 0x1e26 <util_matchMessage>
 9c6:	18 2f       	mov	r17, r24
 9c8:	dd ce       	rjmp	.-582    	; 0x784 <JN_join_network+0x2a>
				util_setMatchCase(&stateData, LM_EXACT, ACCEPTED);
				state=JN_WAIT_FOR_INCOMMING;
			break;
				
			case JN_JOIN_SUCCESS:
				return LM_STATUS_SUCCESS;
 9ca:	80 e0       	ldi	r24, 0x00	; 0
 9cc:	01 c0       	rjmp	.+2      	; 0x9d0 <__EEPROM_REGION_LENGTH__+0x1d0>
				
			case JN_JOIN_FATAL_ERROR:
				return LM_STATUS_FATAL_ERROR;
 9ce:	82 e0       	ldi	r24, 0x02	; 2
				}
			break;
		}
	}
	return LM_STATUS_FATAL_ERROR;
}
 9d0:	28 96       	adiw	r28, 0x08	; 8
 9d2:	0f b6       	in	r0, 0x3f	; 63
 9d4:	f8 94       	cli
 9d6:	de bf       	out	0x3e, r29	; 62
 9d8:	0f be       	out	0x3f, r0	; 63
 9da:	cd bf       	out	0x3d, r28	; 61
 9dc:	df 91       	pop	r29
 9de:	cf 91       	pop	r28
 9e0:	1f 91       	pop	r17
 9e2:	ff 90       	pop	r15
 9e4:	ef 90       	pop	r14
 9e6:	df 90       	pop	r13
 9e8:	cf 90       	pop	r12
 9ea:	bf 90       	pop	r11
 9ec:	af 90       	pop	r10
 9ee:	08 95       	ret

Disassembly of section .text.set_block_uplink:

00002ec8 <set_block_uplink>:
bool LM_is_free(){
	return busy==false;
}

static void set_block_uplink(){
	subPointer=TC2_HAL_subscribe(&block_uplink);
    2ec8:	8c ee       	ldi	r24, 0xEC	; 236
    2eca:	96 e1       	ldi	r25, 0x16	; 22
    2ecc:	0e 94 ca 0f 	call	0x1f94	; 0x1f94 <TC2_HAL_subscribe>
    2ed0:	80 93 36 09 	sts	0x0936, r24	; 0x800936 <subPointer>
	busy=true;
    2ed4:	81 e0       	ldi	r24, 0x01	; 1
    2ed6:	80 93 37 09 	sts	0x0937, r24	; 0x800937 <busy>
	cnt=0;
    2eda:	10 92 38 09 	sts	0x0938, r1	; 0x800938 <cnt>
    2ede:	08 95       	ret

Disassembly of section .text.block_uplink:

00002dd8 <block_uplink>:
}

static void block_uplink(){
	cnt++;
    2dd8:	80 91 38 09 	lds	r24, 0x0938	; 0x800938 <cnt>
    2ddc:	8f 5f       	subi	r24, 0xFF	; 255
    2dde:	80 93 38 09 	sts	0x0938, r24	; 0x800938 <cnt>
	if(cnt>LORA_UPLINK_BLOCK_TIME){
    2de2:	86 30       	cpi	r24, 0x06	; 6
    2de4:	30 f0       	brcs	.+12     	; 0x2df2 <block_uplink+0x1a>
		busy=false;
    2de6:	10 92 37 09 	sts	0x0937, r1	; 0x800937 <busy>
		TC2_HAL_cancel(subPointer);
    2dea:	80 91 36 09 	lds	r24, 0x0936	; 0x800936 <subPointer>
    2dee:	0e 94 d6 13 	call	0x27ac	; 0x27ac <TC2_HAL_cancel>
    2df2:	08 95       	ret

Disassembly of section .text.LM_join_network:

000030f2 <LM_join_network>:

static void block_uplink();
static void set_block_uplink();

LM_STATUS LM_join_network(char deveui[], char appeui[], char appkey[]){
	return JN_join_network(deveui, appeui, appkey);
    30f2:	0e 94 ad 03 	call	0x75a	; 0x75a <JN_join_network>
}
    30f6:	08 95       	ret

Disassembly of section .text.LM_send_uplink:

00002b82 <LM_send_uplink>:

LM_STATUS LM_send_uplink(uint8_t data[], uint8_t length){
    2b82:	1f 93       	push	r17
    2b84:	cf 93       	push	r28
    2b86:	df 93       	push	r29
    2b88:	9c 01       	movw	r18, r24
	if(busy) return LM_STATUS_TRY_AGAIN;
    2b8a:	90 91 37 09 	lds	r25, 0x0937	; 0x800937 <busy>
    2b8e:	91 11       	cpse	r25, r1
    2b90:	0a c0       	rjmp	.+20     	; 0x2ba6 <LM_send_uplink+0x24>
    2b92:	16 2f       	mov	r17, r22
    2b94:	e9 01       	movw	r28, r18
	set_block_uplink();
    2b96:	0e 94 64 17 	call	0x2ec8	; 0x2ec8 <set_block_uplink>
	return SU_send_uplink(LORA_PORT, data, length);
    2b9a:	41 2f       	mov	r20, r17
    2b9c:	be 01       	movw	r22, r28
    2b9e:	84 e6       	ldi	r24, 0x64	; 100
    2ba0:	0e 94 b3 08 	call	0x1166	; 0x1166 <SU_send_uplink>
    2ba4:	01 c0       	rjmp	.+2      	; 0x2ba8 <LM_send_uplink+0x26>
LM_STATUS LM_join_network(char deveui[], char appeui[], char appkey[]){
	return JN_join_network(deveui, appeui, appkey);
}

LM_STATUS LM_send_uplink(uint8_t data[], uint8_t length){
	if(busy) return LM_STATUS_TRY_AGAIN;
    2ba6:	83 e0       	ldi	r24, 0x03	; 3
	set_block_uplink();
	return SU_send_uplink(LORA_PORT, data, length);
}
    2ba8:	df 91       	pop	r29
    2baa:	cf 91       	pop	r28
    2bac:	1f 91       	pop	r17
    2bae:	08 95       	ret

Disassembly of section .text.LM_put_to_sleep:

000030f8 <LM_put_to_sleep>:

LM_STATUS LM_put_to_sleep(){
	return SC_put_to_sleep();
    30f8:	0e 94 07 11 	call	0x220e	; 0x220e <SC_put_to_sleep>
}
    30fc:	08 95       	ret

Disassembly of section .text.LM_wake_up:

000030fe <LM_wake_up>:

LM_STATUS LM_wake_up(){
	return SC_wake_up();
    30fe:	0e 94 fe 14 	call	0x29fc	; 0x29fc <SC_wake_up>
}
    3102:	08 95       	ret

Disassembly of section .text.LM_is_free:

000030ac <LM_is_free>:

bool LM_is_free(){
	return busy==false;
    30ac:	90 91 37 09 	lds	r25, 0x0937	; 0x800937 <busy>
}
    30b0:	81 e0       	ldi	r24, 0x01	; 1
    30b2:	89 27       	eor	r24, r25
    30b4:	08 95       	ret

Disassembly of section .text.tohex:

00001a2a <tohex>:
/*************************************************************
 * Auxiliary - local
**************************************************************/

static void tohex(char str[], const uint8_t data[], int bytes)
{
    1a2a:	6f 92       	push	r6
    1a2c:	7f 92       	push	r7
    1a2e:	8f 92       	push	r8
    1a30:	ef 92       	push	r14
    1a32:	ff 92       	push	r15
    1a34:	0f 93       	push	r16
    1a36:	1f 93       	push	r17
    1a38:	cf 93       	push	r28
    1a3a:	df 93       	push	r29
    1a3c:	7c 01       	movw	r14, r24
    1a3e:	3a 01       	movw	r6, r20
    1a40:	86 2e       	mov	r8, r22
    1a42:	89 01       	movw	r16, r18
    for (int i = 0; i < bytes; i++){
    1a44:	c0 e0       	ldi	r28, 0x00	; 0
    1a46:	d0 e0       	ldi	r29, 0x00	; 0
    1a48:	25 c0       	rjmp	.+74     	; 0x1a94 <tohex+0x6a>
        sprintf(str + i * 2, "%02x", data[i]);
    1a4a:	a8 2d       	mov	r26, r8
    1a4c:	c3 01       	movw	r24, r6
    1a4e:	8c 0f       	add	r24, r28
    1a50:	9d 1f       	adc	r25, r29
    1a52:	a1 1d       	adc	r26, r1
    1a54:	d7 fd       	sbrc	r29, 7
    1a56:	aa 95       	dec	r26
    1a58:	fc 01       	movw	r30, r24
    1a5a:	24 91       	lpm	r18, Z
    1a5c:	a7 fd       	sbrc	r26, 7
    1a5e:	20 81       	ld	r18, Z
    1a60:	ce 01       	movw	r24, r28
    1a62:	88 0f       	add	r24, r24
    1a64:	99 1f       	adc	r25, r25
    1a66:	1f 92       	push	r1
    1a68:	2f 93       	push	r18
    1a6a:	20 e1       	ldi	r18, 0x10	; 16
    1a6c:	32 e0       	ldi	r19, 0x02	; 2
    1a6e:	40 e0       	ldi	r20, 0x00	; 0
    1a70:	4f 93       	push	r20
    1a72:	3f 93       	push	r19
    1a74:	2f 93       	push	r18
    1a76:	8e 0d       	add	r24, r14
    1a78:	9f 1d       	adc	r25, r15
    1a7a:	9f 93       	push	r25
    1a7c:	8f 93       	push	r24
    1a7e:	0e 94 72 12 	call	0x24e4	; 0x24e4 <sprintf>
 * Auxiliary - local
**************************************************************/

static void tohex(char str[], const uint8_t data[], int bytes)
{
    for (int i = 0; i < bytes; i++){
    1a82:	21 96       	adiw	r28, 0x01	; 1
    1a84:	8d b7       	in	r24, 0x3d	; 61
    1a86:	9e b7       	in	r25, 0x3e	; 62
    1a88:	07 96       	adiw	r24, 0x07	; 7
    1a8a:	0f b6       	in	r0, 0x3f	; 63
    1a8c:	f8 94       	cli
    1a8e:	9e bf       	out	0x3e, r25	; 62
    1a90:	0f be       	out	0x3f, r0	; 63
    1a92:	8d bf       	out	0x3d, r24	; 61
    1a94:	c0 17       	cp	r28, r16
    1a96:	d1 07       	cpc	r29, r17
    1a98:	c4 f2       	brlt	.-80     	; 0x1a4a <tohex+0x20>
        sprintf(str + i * 2, "%02x", data[i]);
	}
}
    1a9a:	df 91       	pop	r29
    1a9c:	cf 91       	pop	r28
    1a9e:	1f 91       	pop	r17
    1aa0:	0f 91       	pop	r16
    1aa2:	ff 90       	pop	r15
    1aa4:	ef 90       	pop	r14
    1aa6:	8f 90       	pop	r8
    1aa8:	7f 90       	pop	r7
    1aaa:	6f 90       	pop	r6
    1aac:	08 95       	ret

Disassembly of section .text.attach_ending:

00002df4 <attach_ending>:
 * Auxiliary - global
**************************************************************/

void attach_ending(char buffer[])
{
    strcat(buffer, CMD_END_CHARS);
    2df4:	fc 01       	movw	r30, r24
    2df6:	01 90       	ld	r0, Z+
    2df8:	00 20       	and	r0, r0
    2dfa:	e9 f7       	brne	.-6      	; 0x2df6 <attach_ending+0x2>
    2dfc:	cf 01       	movw	r24, r30
    2dfe:	23 e0       	ldi	r18, 0x03	; 3
    2e00:	30 e0       	ldi	r19, 0x00	; 0
    2e02:	45 e1       	ldi	r20, 0x15	; 21
    2e04:	52 e0       	ldi	r21, 0x02	; 2
    2e06:	60 e0       	ldi	r22, 0x00	; 0
    2e08:	01 97       	sbiw	r24, 0x01	; 1
    2e0a:	0e 94 49 15 	call	0x2a92	; 0x2a92 <memcpy>
    2e0e:	08 95       	ret

Disassembly of section .text.cmd_with_ending:

000029ca <cmd_with_ending>:
}

int16_t cmd_with_ending(char buffer[], const char cmd[]){
    29ca:	cf 93       	push	r28
    29cc:	df 93       	push	r29
    29ce:	ec 01       	movw	r28, r24
	strcpy(buffer, cmd);
    29d0:	0e 94 dd 16 	call	0x2dba	; 0x2dba <strcpy>
	strcat(buffer, CMD_END_CHARS);
    29d4:	fe 01       	movw	r30, r28
    29d6:	01 90       	ld	r0, Z+
    29d8:	00 20       	and	r0, r0
    29da:	e9 f7       	brne	.-6      	; 0x29d6 <cmd_with_ending+0xc>
    29dc:	cf 01       	movw	r24, r30
    29de:	23 e0       	ldi	r18, 0x03	; 3
    29e0:	30 e0       	ldi	r19, 0x00	; 0
    29e2:	45 e1       	ldi	r20, 0x15	; 21
    29e4:	52 e0       	ldi	r21, 0x02	; 2
    29e6:	60 e0       	ldi	r22, 0x00	; 0
    29e8:	01 97       	sbiw	r24, 0x01	; 1
    29ea:	0e 94 49 15 	call	0x2a92	; 0x2a92 <memcpy>
	return strlen(buffer);
    29ee:	be 01       	movw	r22, r28
    29f0:	80 e8       	ldi	r24, 0x80	; 128
    29f2:	0e 94 d8 15 	call	0x2bb0	; 0x2bb0 <strlen>
}
    29f6:	df 91       	pop	r29
    29f8:	cf 91       	pop	r28
    29fa:	08 95       	ret

Disassembly of section .text.sys_sleep_cmd:

00001dc8 <sys_sleep_cmd>:
/*************************************************************
 * Sys commands
**************************************************************/

int16_t sys_sleep_cmd(char buffer[], uint32_t time)
{
    1dc8:	cf 93       	push	r28
    1dca:	df 93       	push	r29
    if (time < 100 || time >= 4294967296)
    1dcc:	44 36       	cpi	r20, 0x64	; 100
    1dce:	51 05       	cpc	r21, r1
    1dd0:	61 05       	cpc	r22, r1
    1dd2:	71 05       	cpc	r23, r1
    1dd4:	18 f1       	brcs	.+70     	; 0x1e1c <sys_sleep_cmd+0x54>
    1dd6:	ec 01       	movw	r28, r24
        return -1;

    sprintf(buffer, "%s %ld", SYS_SLEEP, time);
    1dd8:	7f 93       	push	r23
    1dda:	6f 93       	push	r22
    1ddc:	5f 93       	push	r21
    1dde:	4f 93       	push	r20
    1de0:	88 e1       	ldi	r24, 0x18	; 24
    1de2:	92 e0       	ldi	r25, 0x02	; 2
    1de4:	a0 e0       	ldi	r26, 0x00	; 0
    1de6:	af 93       	push	r26
    1de8:	9f 93       	push	r25
    1dea:	8f 93       	push	r24
    1dec:	82 e2       	ldi	r24, 0x22	; 34
    1dee:	92 e0       	ldi	r25, 0x02	; 2
    1df0:	a0 e0       	ldi	r26, 0x00	; 0
    1df2:	af 93       	push	r26
    1df4:	9f 93       	push	r25
    1df6:	8f 93       	push	r24
    1df8:	df 93       	push	r29
    1dfa:	cf 93       	push	r28
    1dfc:	0e 94 72 12 	call	0x24e4	; 0x24e4 <sprintf>
    return strlen(buffer);
    1e00:	be 01       	movw	r22, r28
    1e02:	80 e8       	ldi	r24, 0x80	; 128
    1e04:	0e 94 d8 15 	call	0x2bb0	; 0x2bb0 <strlen>
    1e08:	2d b7       	in	r18, 0x3d	; 61
    1e0a:	3e b7       	in	r19, 0x3e	; 62
    1e0c:	24 5f       	subi	r18, 0xF4	; 244
    1e0e:	3f 4f       	sbci	r19, 0xFF	; 255
    1e10:	0f b6       	in	r0, 0x3f	; 63
    1e12:	f8 94       	cli
    1e14:	3e bf       	out	0x3e, r19	; 62
    1e16:	0f be       	out	0x3f, r0	; 63
    1e18:	2d bf       	out	0x3d, r18	; 61
    1e1a:	02 c0       	rjmp	.+4      	; 0x1e20 <sys_sleep_cmd+0x58>
**************************************************************/

int16_t sys_sleep_cmd(char buffer[], uint32_t time)
{
    if (time < 100 || time >= 4294967296)
        return -1;
    1e1c:	8f ef       	ldi	r24, 0xFF	; 255
    1e1e:	9f ef       	ldi	r25, 0xFF	; 255

    sprintf(buffer, "%s %ld", SYS_SLEEP, time);
    return strlen(buffer);
}
    1e20:	df 91       	pop	r29
    1e22:	cf 91       	pop	r28
    1e24:	08 95       	ret

Disassembly of section .text.mac_set_parameter:

00002126 <mac_set_parameter>:
/*************************************************************
 * Mac commands
**************************************************************/

int16_t mac_set_parameter(char buffer[], const char *cmd, const char *parameter)
{
    2126:	0f 93       	push	r16
    2128:	1f 93       	push	r17
    212a:	cf 93       	push	r28
    212c:	df 93       	push	r29
    212e:	ec 01       	movw	r28, r24
    sprintf(buffer, "%s %s", cmd, parameter);
    2130:	2f 93       	push	r18
    2132:	1f 93       	push	r17
    2134:	0f 93       	push	r16
    2136:	6f 93       	push	r22
    2138:	5f 93       	push	r21
    213a:	4f 93       	push	r20
    213c:	89 e2       	ldi	r24, 0x29	; 41
    213e:	92 e0       	ldi	r25, 0x02	; 2
    2140:	a0 e0       	ldi	r26, 0x00	; 0
    2142:	af 93       	push	r26
    2144:	9f 93       	push	r25
    2146:	8f 93       	push	r24
    2148:	df 93       	push	r29
    214a:	cf 93       	push	r28
    214c:	0e 94 72 12 	call	0x24e4	; 0x24e4 <sprintf>
    return strlen(buffer);
    2150:	be 01       	movw	r22, r28
    2152:	80 e8       	ldi	r24, 0x80	; 128
    2154:	0e 94 d8 15 	call	0x2bb0	; 0x2bb0 <strlen>
    2158:	2d b7       	in	r18, 0x3d	; 61
    215a:	3e b7       	in	r19, 0x3e	; 62
    215c:	25 5f       	subi	r18, 0xF5	; 245
    215e:	3f 4f       	sbci	r19, 0xFF	; 255
    2160:	0f b6       	in	r0, 0x3f	; 63
    2162:	f8 94       	cli
    2164:	3e bf       	out	0x3e, r19	; 62
    2166:	0f be       	out	0x3f, r0	; 63
    2168:	2d bf       	out	0x3d, r18	; 61
}
    216a:	df 91       	pop	r29
    216c:	cf 91       	pop	r28
    216e:	1f 91       	pop	r17
    2170:	0f 91       	pop	r16
    2172:	08 95       	ret

Disassembly of section .text.mac_set_deveui:

00002380 <mac_set_deveui>:


int16_t mac_set_deveui(char buffer[], char *eui)
{
    2380:	cf 92       	push	r12
    2382:	df 92       	push	r13
    2384:	ef 92       	push	r14
    2386:	0f 93       	push	r16
    2388:	1f 93       	push	r17
    238a:	cf 93       	push	r28
    238c:	df 93       	push	r29
    238e:	ec 01       	movw	r28, r24
    if (strlen(eui) != 16)
    2390:	6b 01       	movw	r12, r22
    2392:	80 e8       	ldi	r24, 0x80	; 128
    2394:	e8 2e       	mov	r14, r24
    2396:	8e 2d       	mov	r24, r14
    2398:	b6 01       	movw	r22, r12
    239a:	0e 94 d8 15 	call	0x2bb0	; 0x2bb0 <strlen>
    239e:	40 97       	sbiw	r24, 0x10	; 16
    23a0:	49 f4       	brne	.+18     	; 0x23b4 <mac_set_deveui+0x34>
        return -1;
    return mac_set_parameter(buffer, SET_DEVEUI, eui);
    23a2:	2e 2d       	mov	r18, r14
    23a4:	86 01       	movw	r16, r12
    23a6:	4f e2       	ldi	r20, 0x2F	; 47
    23a8:	52 e0       	ldi	r21, 0x02	; 2
    23aa:	60 e0       	ldi	r22, 0x00	; 0
    23ac:	ce 01       	movw	r24, r28
    23ae:	0e 94 93 10 	call	0x2126	; 0x2126 <mac_set_parameter>
    23b2:	02 c0       	rjmp	.+4      	; 0x23b8 <mac_set_deveui+0x38>


int16_t mac_set_deveui(char buffer[], char *eui)
{
    if (strlen(eui) != 16)
        return -1;
    23b4:	8f ef       	ldi	r24, 0xFF	; 255
    23b6:	9f ef       	ldi	r25, 0xFF	; 255
    return mac_set_parameter(buffer, SET_DEVEUI, eui);
}
    23b8:	df 91       	pop	r29
    23ba:	cf 91       	pop	r28
    23bc:	1f 91       	pop	r17
    23be:	0f 91       	pop	r16
    23c0:	ef 90       	pop	r14
    23c2:	df 90       	pop	r13
    23c4:	cf 90       	pop	r12
    23c6:	08 95       	ret

Disassembly of section .text.mac_set_appeui:

000023c8 <mac_set_appeui>:

int16_t mac_set_appeui(char buffer[], char *appeui)
{
    23c8:	cf 92       	push	r12
    23ca:	df 92       	push	r13
    23cc:	ef 92       	push	r14
    23ce:	0f 93       	push	r16
    23d0:	1f 93       	push	r17
    23d2:	cf 93       	push	r28
    23d4:	df 93       	push	r29
    23d6:	ec 01       	movw	r28, r24
    if (strlen(appeui) != 16)
    23d8:	6b 01       	movw	r12, r22
    23da:	80 e8       	ldi	r24, 0x80	; 128
    23dc:	e8 2e       	mov	r14, r24
    23de:	8e 2d       	mov	r24, r14
    23e0:	b6 01       	movw	r22, r12
    23e2:	0e 94 d8 15 	call	0x2bb0	; 0x2bb0 <strlen>
    23e6:	40 97       	sbiw	r24, 0x10	; 16
    23e8:	49 f4       	brne	.+18     	; 0x23fc <mac_set_appeui+0x34>
        return -1;
    return mac_set_parameter(buffer, SET_APPEUI, appeui);
    23ea:	2e 2d       	mov	r18, r14
    23ec:	86 01       	movw	r16, r12
    23ee:	4e e3       	ldi	r20, 0x3E	; 62
    23f0:	52 e0       	ldi	r21, 0x02	; 2
    23f2:	60 e0       	ldi	r22, 0x00	; 0
    23f4:	ce 01       	movw	r24, r28
    23f6:	0e 94 93 10 	call	0x2126	; 0x2126 <mac_set_parameter>
    23fa:	02 c0       	rjmp	.+4      	; 0x2400 <mac_set_appeui+0x38>
}

int16_t mac_set_appeui(char buffer[], char *appeui)
{
    if (strlen(appeui) != 16)
        return -1;
    23fc:	8f ef       	ldi	r24, 0xFF	; 255
    23fe:	9f ef       	ldi	r25, 0xFF	; 255
    return mac_set_parameter(buffer, SET_APPEUI, appeui);
}
    2400:	df 91       	pop	r29
    2402:	cf 91       	pop	r28
    2404:	1f 91       	pop	r17
    2406:	0f 91       	pop	r16
    2408:	ef 90       	pop	r14
    240a:	df 90       	pop	r13
    240c:	cf 90       	pop	r12
    240e:	08 95       	ret

Disassembly of section .text.mac_set_appkey:

00002410 <mac_set_appkey>:

int16_t mac_set_appkey(char buffer[], char *appkey)
{
    2410:	cf 92       	push	r12
    2412:	df 92       	push	r13
    2414:	ef 92       	push	r14
    2416:	0f 93       	push	r16
    2418:	1f 93       	push	r17
    241a:	cf 93       	push	r28
    241c:	df 93       	push	r29
    241e:	ec 01       	movw	r28, r24
    if (strlen(appkey) != 32)
    2420:	6b 01       	movw	r12, r22
    2422:	80 e8       	ldi	r24, 0x80	; 128
    2424:	e8 2e       	mov	r14, r24
    2426:	8e 2d       	mov	r24, r14
    2428:	b6 01       	movw	r22, r12
    242a:	0e 94 d8 15 	call	0x2bb0	; 0x2bb0 <strlen>
    242e:	80 97       	sbiw	r24, 0x20	; 32
    2430:	49 f4       	brne	.+18     	; 0x2444 <mac_set_appkey+0x34>
        return -1;
    return mac_set_parameter(buffer, SET_APPKEY, appkey);
    2432:	2e 2d       	mov	r18, r14
    2434:	86 01       	movw	r16, r12
    2436:	4d e4       	ldi	r20, 0x4D	; 77
    2438:	52 e0       	ldi	r21, 0x02	; 2
    243a:	60 e0       	ldi	r22, 0x00	; 0
    243c:	ce 01       	movw	r24, r28
    243e:	0e 94 93 10 	call	0x2126	; 0x2126 <mac_set_parameter>
    2442:	02 c0       	rjmp	.+4      	; 0x2448 <mac_set_appkey+0x38>
}

int16_t mac_set_appkey(char buffer[], char *appkey)
{
    if (strlen(appkey) != 32)
        return -1;
    2444:	8f ef       	ldi	r24, 0xFF	; 255
    2446:	9f ef       	ldi	r25, 0xFF	; 255
    return mac_set_parameter(buffer, SET_APPKEY, appkey);
}
    2448:	df 91       	pop	r29
    244a:	cf 91       	pop	r28
    244c:	1f 91       	pop	r17
    244e:	0f 91       	pop	r16
    2450:	ef 90       	pop	r14
    2452:	df 90       	pop	r13
    2454:	cf 90       	pop	r12
    2456:	08 95       	ret

Disassembly of section .text.mac_set_ADR:

00002ac4 <mac_set_ADR>:

int16_t mac_set_ADR(char buffer[], unsigned char state){
    2ac4:	0f 93       	push	r16
    2ac6:	1f 93       	push	r17
	if(state==0){
    2ac8:	61 11       	cpse	r22, r1
    2aca:	09 c0       	rjmp	.+18     	; 0x2ade <mac_set_ADR+0x1a>
		return mac_set_parameter(buffer, SET_ADR, OFF);
    2acc:	0c e5       	ldi	r16, 0x5C	; 92
    2ace:	12 e0       	ldi	r17, 0x02	; 2
    2ad0:	20 e0       	ldi	r18, 0x00	; 0
    2ad2:	40 e6       	ldi	r20, 0x60	; 96
    2ad4:	52 e0       	ldi	r21, 0x02	; 2
    2ad6:	60 e0       	ldi	r22, 0x00	; 0
    2ad8:	0e 94 93 10 	call	0x2126	; 0x2126 <mac_set_parameter>
    2adc:	08 c0       	rjmp	.+16     	; 0x2aee <mac_set_ADR+0x2a>
	}else{
		return mac_set_parameter(buffer, SET_ADR, ON);
    2ade:	0c e6       	ldi	r16, 0x6C	; 108
    2ae0:	12 e0       	ldi	r17, 0x02	; 2
    2ae2:	20 e0       	ldi	r18, 0x00	; 0
    2ae4:	40 e6       	ldi	r20, 0x60	; 96
    2ae6:	52 e0       	ldi	r21, 0x02	; 2
    2ae8:	60 e0       	ldi	r22, 0x00	; 0
    2aea:	0e 94 93 10 	call	0x2126	; 0x2126 <mac_set_parameter>
	}
}
    2aee:	1f 91       	pop	r17
    2af0:	0f 91       	pop	r16
    2af2:	08 95       	ret

Disassembly of section .text.mac_tx_confirmed:

000014b6 <mac_tx_confirmed>:

int16_t mac_tx_confirmed(char buffer[], uint8_t port,  uint8_t data[], uint8_t bytes)
{
    14b6:	df 92       	push	r13
    14b8:	ef 92       	push	r14
    14ba:	ff 92       	push	r15
    14bc:	0f 93       	push	r16
    14be:	1f 93       	push	r17
    14c0:	cf 93       	push	r28
    14c2:	df 93       	push	r29
    14c4:	cd b7       	in	r28, 0x3d	; 61
    14c6:	de b7       	in	r29, 0x3e	; 62
    14c8:	c5 56       	subi	r28, 0x65	; 101
    14ca:	d1 09       	sbc	r29, r1
    14cc:	0f b6       	in	r0, 0x3f	; 63
    14ce:	f8 94       	cli
    14d0:	de bf       	out	0x3e, r29	; 62
    14d2:	0f be       	out	0x3f, r0	; 63
    14d4:	cd bf       	out	0x3d, r28	; 61
    14d6:	8c 01       	movw	r16, r24
	char dataHex[MAX_PAYLOAD_SIZE_EU868 * 2 + 1];
	
    if (port < PORT_MIN || port > PORT_MAX)
    14d8:	9f ef       	ldi	r25, 0xFF	; 255
    14da:	96 0f       	add	r25, r22
    14dc:	9f 3d       	cpi	r25, 0xDF	; 223
    14de:	68 f5       	brcc	.+90     	; 0x153a <mac_tx_confirmed+0x84>
        return -1;

    if (bytes > MAX_PAYLOAD_SIZE_EU868 || bytes <= 0)
    14e0:	9f ef       	ldi	r25, 0xFF	; 255
    14e2:	92 0f       	add	r25, r18
    14e4:	92 33       	cpi	r25, 0x32	; 50
    14e6:	60 f5       	brcc	.+88     	; 0x1540 <mac_tx_confirmed+0x8a>
    14e8:	d6 2e       	mov	r13, r22
        return -1;
	
    
    tohex(dataHex, data, bytes);
    14ea:	30 e0       	ldi	r19, 0x00	; 0
    14ec:	60 e8       	ldi	r22, 0x80	; 128
    14ee:	ce 01       	movw	r24, r28
    14f0:	01 96       	adiw	r24, 0x01	; 1
    14f2:	7c 01       	movw	r14, r24
    14f4:	0e 94 15 0d 	call	0x1a2a	; 0x1a2a <tohex>

    sprintf(buffer, "%s %u %s", MAC_TX_CONFIRMED, port, (const char *)dataHex);
    14f8:	c7 01       	movw	r24, r14
    14fa:	a0 e8       	ldi	r26, 0x80	; 128
    14fc:	af 93       	push	r26
    14fe:	9f 93       	push	r25
    1500:	ef 92       	push	r14
    1502:	1f 92       	push	r1
    1504:	df 92       	push	r13
    1506:	8f e6       	ldi	r24, 0x6F	; 111
    1508:	92 e0       	ldi	r25, 0x02	; 2
    150a:	a0 e0       	ldi	r26, 0x00	; 0
    150c:	af 93       	push	r26
    150e:	9f 93       	push	r25
    1510:	8f 93       	push	r24
    1512:	8a e7       	ldi	r24, 0x7A	; 122
    1514:	92 e0       	ldi	r25, 0x02	; 2
    1516:	a0 e0       	ldi	r26, 0x00	; 0
    1518:	af 93       	push	r26
    151a:	9f 93       	push	r25
    151c:	8f 93       	push	r24
    151e:	1f 93       	push	r17
    1520:	0f 93       	push	r16
    1522:	0e 94 72 12 	call	0x24e4	; 0x24e4 <sprintf>
    
	
    return strlen(buffer);
    1526:	b8 01       	movw	r22, r16
    1528:	80 e8       	ldi	r24, 0x80	; 128
    152a:	0e 94 d8 15 	call	0x2bb0	; 0x2bb0 <strlen>
    152e:	0f b6       	in	r0, 0x3f	; 63
    1530:	f8 94       	cli
    1532:	de bf       	out	0x3e, r29	; 62
    1534:	0f be       	out	0x3f, r0	; 63
    1536:	cd bf       	out	0x3d, r28	; 61
    1538:	05 c0       	rjmp	.+10     	; 0x1544 <mac_tx_confirmed+0x8e>
int16_t mac_tx_confirmed(char buffer[], uint8_t port,  uint8_t data[], uint8_t bytes)
{
	char dataHex[MAX_PAYLOAD_SIZE_EU868 * 2 + 1];
	
    if (port < PORT_MIN || port > PORT_MAX)
        return -1;
    153a:	8f ef       	ldi	r24, 0xFF	; 255
    153c:	9f ef       	ldi	r25, 0xFF	; 255
    153e:	02 c0       	rjmp	.+4      	; 0x1544 <mac_tx_confirmed+0x8e>

    if (bytes > MAX_PAYLOAD_SIZE_EU868 || bytes <= 0)
        return -1;
    1540:	8f ef       	ldi	r24, 0xFF	; 255
    1542:	9f ef       	ldi	r25, 0xFF	; 255

    sprintf(buffer, "%s %u %s", MAC_TX_CONFIRMED, port, (const char *)dataHex);
    
	
    return strlen(buffer);
}
    1544:	cb 59       	subi	r28, 0x9B	; 155
    1546:	df 4f       	sbci	r29, 0xFF	; 255
    1548:	0f b6       	in	r0, 0x3f	; 63
    154a:	f8 94       	cli
    154c:	de bf       	out	0x3e, r29	; 62
    154e:	0f be       	out	0x3f, r0	; 63
    1550:	cd bf       	out	0x3d, r28	; 61
    1552:	df 91       	pop	r29
    1554:	cf 91       	pop	r28
    1556:	1f 91       	pop	r17
    1558:	0f 91       	pop	r16
    155a:	ff 90       	pop	r15
    155c:	ef 90       	pop	r14
    155e:	df 90       	pop	r13
    1560:	08 95       	ret

Disassembly of section .text.beginsWidth:

000022ee <beginsWidth>:
	if(beginsWidth(msg, MAC_RX)) return SU_HANDLE_DOWNLINK;
	
	return SU_FATAL_ERROR;
}

static bool beginsWidth(const char *s1, const char *s2){
    22ee:	6f 92       	push	r6
    22f0:	7f 92       	push	r7
    22f2:	8f 92       	push	r8
    22f4:	cf 92       	push	r12
    22f6:	df 92       	push	r13
    22f8:	ef 92       	push	r14
    22fa:	0f 93       	push	r16
    22fc:	1f 93       	push	r17
    22fe:	3b 01       	movw	r6, r22
    2300:	88 2e       	mov	r8, r24
    2302:	69 01       	movw	r12, r18
    2304:	e4 2e       	mov	r14, r20
	return strncmp(s1, s2, strlen(s2))==0?true:false;
    2306:	84 2f       	mov	r24, r20
    2308:	b9 01       	movw	r22, r18
    230a:	0e 94 d8 15 	call	0x2bb0	; 0x2bb0 <strlen>
    230e:	8c 01       	movw	r16, r24
    2310:	4e 2d       	mov	r20, r14
    2312:	96 01       	movw	r18, r12
    2314:	88 2d       	mov	r24, r8
    2316:	b3 01       	movw	r22, r6
    2318:	0e 94 af 0e 	call	0x1d5e	; 0x1d5e <strncmp>
    231c:	21 e0       	ldi	r18, 0x01	; 1
    231e:	89 2b       	or	r24, r25
    2320:	09 f0       	breq	.+2      	; 0x2324 <beginsWidth+0x36>
    2322:	20 e0       	ldi	r18, 0x00	; 0
    2324:	82 2f       	mov	r24, r18
    2326:	1f 91       	pop	r17
    2328:	0f 91       	pop	r16
    232a:	ef 90       	pop	r14
    232c:	df 90       	pop	r13
    232e:	cf 90       	pop	r12
    2330:	8f 90       	pop	r8
    2332:	7f 90       	pop	r7
    2334:	6f 90       	pop	r6
    2336:	08 95       	ret

Disassembly of section .text.decode_tx_response:

00001fe8 <decode_tx_response>:
			break;
		}
	}
}

static SU_STATES decode_tx_response(const char msg[]){
    1fe8:	cf 92       	push	r12
    1fea:	df 92       	push	r13
    1fec:	ef 92       	push	r14
    1fee:	6b 01       	movw	r12, r22
    1ff0:	e8 2e       	mov	r14, r24
	if(strcmp(msg, NO_FREE_CH)==0)return SU_TRY_AGAIN;
    1ff2:	2b eb       	ldi	r18, 0xBB	; 187
    1ff4:	32 e0       	ldi	r19, 0x02	; 2
    1ff6:	40 e0       	ldi	r20, 0x00	; 0
    1ff8:	0e 94 1b 13 	call	0x2636	; 0x2636 <strcmp>
    1ffc:	89 2b       	or	r24, r25
    1ffe:	a1 f0       	breq	.+40     	; 0x2028 <decode_tx_response+0x40>
	if(strcmp(msg, MAC_ERR)==0)return SU_NO_ACK;
    2000:	26 ec       	ldi	r18, 0xC6	; 198
    2002:	32 e0       	ldi	r19, 0x02	; 2
    2004:	40 e0       	ldi	r20, 0x00	; 0
    2006:	8e 2d       	mov	r24, r14
    2008:	b6 01       	movw	r22, r12
    200a:	0e 94 1b 13 	call	0x2636	; 0x2636 <strcmp>
    200e:	89 2b       	or	r24, r25
    2010:	69 f0       	breq	.+26     	; 0x202c <decode_tx_response+0x44>
	if(beginsWidth(msg, MAC_RX)) return SU_HANDLE_DOWNLINK;
    2012:	2e ec       	ldi	r18, 0xCE	; 206
    2014:	32 e0       	ldi	r19, 0x02	; 2
    2016:	40 e0       	ldi	r20, 0x00	; 0
    2018:	8e 2d       	mov	r24, r14
    201a:	b6 01       	movw	r22, r12
    201c:	0e 94 77 11 	call	0x22ee	; 0x22ee <beginsWidth>
    2020:	88 23       	and	r24, r24
    2022:	31 f0       	breq	.+12     	; 0x2030 <decode_tx_response+0x48>
    2024:	83 e0       	ldi	r24, 0x03	; 3
    2026:	05 c0       	rjmp	.+10     	; 0x2032 <decode_tx_response+0x4a>
		}
	}
}

static SU_STATES decode_tx_response(const char msg[]){
	if(strcmp(msg, NO_FREE_CH)==0)return SU_TRY_AGAIN;
    2028:	87 e0       	ldi	r24, 0x07	; 7
    202a:	03 c0       	rjmp	.+6      	; 0x2032 <decode_tx_response+0x4a>
	if(strcmp(msg, MAC_ERR)==0)return SU_NO_ACK;
    202c:	88 e0       	ldi	r24, 0x08	; 8
    202e:	01 c0       	rjmp	.+2      	; 0x2032 <decode_tx_response+0x4a>
	if(beginsWidth(msg, MAC_RX)) return SU_HANDLE_DOWNLINK;
	
	return SU_FATAL_ERROR;
    2030:	86 e0       	ldi	r24, 0x06	; 6
}
    2032:	ef 90       	pop	r14
    2034:	df 90       	pop	r13
    2036:	cf 90       	pop	r12
    2038:	08 95       	ret

Disassembly of section .text.SU_send_uplink:

00001166 <SU_send_uplink>:

static SU_STATES decode_tx_response(const char msg[]);
static bool beginsWidth(const char *s1, const char *s2);


LM_STATUS SU_send_uplink(uint8_t port, uint8_t data[], uint8_t length){
    1166:	df 92       	push	r13
    1168:	ef 92       	push	r14
    116a:	ff 92       	push	r15
    116c:	0f 93       	push	r16
    116e:	1f 93       	push	r17
    1170:	cf 93       	push	r28
    1172:	df 93       	push	r29
    1174:	cd b7       	in	r28, 0x3d	; 61
    1176:	de b7       	in	r29, 0x3e	; 62
    1178:	28 97       	sbiw	r28, 0x08	; 8
    117a:	0f b6       	in	r0, 0x3f	; 63
    117c:	f8 94       	cli
    117e:	de bf       	out	0x3e, r29	; 62
    1180:	0f be       	out	0x3f, r0	; 63
    1182:	cd bf       	out	0x3d, r28	; 61
    1184:	d8 2e       	mov	r13, r24
    1186:	7b 01       	movw	r14, r22
    1188:	04 2f       	mov	r16, r20
	
	SU_STATES state=SU_SEND_PAYLOAD;
    118a:	10 e0       	ldi	r17, 0x00	; 0
	LM_STATE_DATA stateData;
	
	while(1){
		switch(state){
    118c:	e1 2f       	mov	r30, r17
    118e:	f0 e0       	ldi	r31, 0x00	; 0
    1190:	e9 30       	cpi	r30, 0x09	; 9
    1192:	f1 05       	cpc	r31, r1
    1194:	d8 f7       	brcc	.-10     	; 0x118c <SU_send_uplink+0x26>
    1196:	e5 5b       	subi	r30, 0xB5	; 181
    1198:	ff 4f       	sbci	r31, 0xFF	; 255
    119a:	0c 94 46 18 	jmp	0x308c	; 0x308c <__tablejump2__>
			case SU_SEND_PAYLOAD:
				mac_tx_confirmed(lm_msg, port, data, length);
    119e:	20 2f       	mov	r18, r16
    11a0:	a7 01       	movw	r20, r14
    11a2:	6d 2d       	mov	r22, r13
    11a4:	82 e3       	ldi	r24, 0x32	; 50
    11a6:	92 e0       	ldi	r25, 0x02	; 2
    11a8:	0e 94 5b 0a 	call	0x14b6	; 0x14b6 <mac_tx_confirmed>
				attach_ending(lm_msg);
    11ac:	82 e3       	ldi	r24, 0x32	; 50
    11ae:	92 e0       	ldi	r25, 0x02	; 2
    11b0:	0e 94 fa 16 	call	0x2df4	; 0x2df4 <attach_ending>
				util_transmit_msg(lm_msg);
    11b4:	82 e3       	ldi	r24, 0x32	; 50
    11b6:	92 e0       	ldi	r25, 0x02	; 2
    11b8:	0e 94 08 17 	call	0x2e10	; 0x2e10 <util_transmit_msg>
				
				util_setPendingStates(&stateData, SU_SEND_PAYLOAD_RES_2, SU_TX_DECODE_RES);
    11bc:	41 e0       	ldi	r20, 0x01	; 1
    11be:	50 e0       	ldi	r21, 0x00	; 0
    11c0:	62 e0       	ldi	r22, 0x02	; 2
    11c2:	70 e0       	ldi	r23, 0x00	; 0
    11c4:	ce 01       	movw	r24, r28
    11c6:	01 96       	adiw	r24, 0x01	; 1
    11c8:	0e 94 2e 18 	call	0x305c	; 0x305c <util_setPendingStates>
				util_setMatchCase(&stateData, LM_EXACT, OK);
    11cc:	25 ed       	ldi	r18, 0xD5	; 213
    11ce:	32 e0       	ldi	r19, 0x02	; 2
    11d0:	40 e0       	ldi	r20, 0x00	; 0
    11d2:	60 e0       	ldi	r22, 0x00	; 0
    11d4:	ce 01       	movw	r24, r28
    11d6:	01 96       	adiw	r24, 0x01	; 1
    11d8:	0e 94 34 18 	call	0x3068	; 0x3068 <util_setMatchCase>
				state=SU_WAIT_FOR_INCOMMING;
    11dc:	15 e0       	ldi	r17, 0x05	; 5
			break;
    11de:	d6 cf       	rjmp	.-84     	; 0x118c <SU_send_uplink+0x26>
			
			case SU_SEND_PAYLOAD_RES_2:
				util_setPendingStates(&stateData, SU_SENDING_SUCCESS, SU_TX_DECODE_RES);
    11e0:	41 e0       	ldi	r20, 0x01	; 1
    11e2:	50 e0       	ldi	r21, 0x00	; 0
    11e4:	64 e0       	ldi	r22, 0x04	; 4
    11e6:	70 e0       	ldi	r23, 0x00	; 0
    11e8:	ce 01       	movw	r24, r28
    11ea:	01 96       	adiw	r24, 0x01	; 1
    11ec:	0e 94 2e 18 	call	0x305c	; 0x305c <util_setPendingStates>
				util_setMatchCase(&stateData, LM_EXACT, MAC_TX_OK);
    11f0:	28 ed       	ldi	r18, 0xD8	; 216
    11f2:	32 e0       	ldi	r19, 0x02	; 2
    11f4:	40 e0       	ldi	r20, 0x00	; 0
    11f6:	60 e0       	ldi	r22, 0x00	; 0
    11f8:	ce 01       	movw	r24, r28
    11fa:	01 96       	adiw	r24, 0x01	; 1
    11fc:	0e 94 34 18 	call	0x3068	; 0x3068 <util_setMatchCase>
				state=SU_WAIT_FOR_INCOMMING;
    1200:	15 e0       	ldi	r17, 0x05	; 5
			break;
    1202:	c4 cf       	rjmp	.-120    	; 0x118c <SU_send_uplink+0x26>
			
			case SU_TX_DECODE_RES:
				state=decode_tx_response(lm_msg);
    1204:	62 e3       	ldi	r22, 0x32	; 50
    1206:	72 e0       	ldi	r23, 0x02	; 2
    1208:	80 e8       	ldi	r24, 0x80	; 128
    120a:	0e 94 f4 0f 	call	0x1fe8	; 0x1fe8 <decode_tx_response>
    120e:	18 2f       	mov	r17, r24
			break;
    1210:	bd cf       	rjmp	.-134    	; 0x118c <SU_send_uplink+0x26>
				
			case SU_TRY_AGAIN:
				return LM_STATUS_TRY_AGAIN;
			
			case SU_NO_ACK:
				return LM_STATUS_MAC_ERR;
    1212:	85 e0       	ldi	r24, 0x05	; 5
    1214:	16 c0       	rjmp	.+44     	; 0x1242 <SU_send_uplink+0xdc>
			
			case SU_FATAL_ERROR:
				return LM_STATUS_FATAL_ERROR;	
    1216:	82 e0       	ldi	r24, 0x02	; 2
    1218:	14 c0       	rjmp	.+40     	; 0x1242 <SU_send_uplink+0xdc>
			
			case SU_WAIT_FOR_INCOMMING:
				if(uart0_hal_message_ready()){
    121a:	0e 94 14 18 	call	0x3028	; 0x3028 <uart0_hal_message_ready>
    121e:	88 23       	and	r24, r24
    1220:	09 f4       	brne	.+2      	; 0x1224 <SU_send_uplink+0xbe>
    1222:	b4 cf       	rjmp	.-152    	; 0x118c <SU_send_uplink+0x26>
					util_read_msg(lm_msg);
    1224:	82 e3       	ldi	r24, 0x32	; 50
    1226:	92 e0       	ldi	r25, 0x02	; 2
    1228:	0e 94 82 18 	call	0x3104	; 0x3104 <util_read_msg>
					state=util_matchMessage(&stateData, lm_msg);
    122c:	62 e3       	ldi	r22, 0x32	; 50
    122e:	72 e0       	ldi	r23, 0x02	; 2
    1230:	ce 01       	movw	r24, r28
    1232:	01 96       	adiw	r24, 0x01	; 1
    1234:	0e 94 13 0f 	call	0x1e26	; 0x1e26 <util_matchMessage>
    1238:	18 2f       	mov	r17, r24
    123a:	a8 cf       	rjmp	.-176    	; 0x118c <SU_send_uplink+0x26>
			case SU_TX_DECODE_RES:
				state=decode_tx_response(lm_msg);
			break;
			
			case SU_HANDLE_DOWNLINK:
				return LM_STATUS_SUCCESS;
    123c:	80 e0       	ldi	r24, 0x00	; 0
    123e:	01 c0       	rjmp	.+2      	; 0x1242 <SU_send_uplink+0xdc>
			
			case SU_SENDING_SUCCESS:
				return LM_STATUS_SUCCESS;
				
			case SU_TRY_AGAIN:
				return LM_STATUS_TRY_AGAIN;
    1240:	83 e0       	ldi	r24, 0x03	; 3
					state=util_matchMessage(&stateData, lm_msg);
				}
			break;
		}
	}
}
    1242:	28 96       	adiw	r28, 0x08	; 8
    1244:	0f b6       	in	r0, 0x3f	; 63
    1246:	f8 94       	cli
    1248:	de bf       	out	0x3e, r29	; 62
    124a:	0f be       	out	0x3f, r0	; 63
    124c:	cd bf       	out	0x3d, r28	; 61
    124e:	df 91       	pop	r29
    1250:	cf 91       	pop	r28
    1252:	1f 91       	pop	r17
    1254:	0f 91       	pop	r16
    1256:	ff 90       	pop	r15
    1258:	ef 90       	pop	r14
    125a:	df 90       	pop	r13
    125c:	08 95       	ret

Disassembly of section .text.SC_put_to_sleep:

0000220e <SC_put_to_sleep>:
#include "../util/util.h"
#include "../../../HAL/UART0/UART0_HAL.h"

LM_STATUS SC_put_to_sleep(){
	
	sys_sleep_cmd(lm_msg, (uint32_t) 86400000);
    220e:	40 e0       	ldi	r20, 0x00	; 0
    2210:	5c e5       	ldi	r21, 0x5C	; 92
    2212:	66 e2       	ldi	r22, 0x26	; 38
    2214:	75 e0       	ldi	r23, 0x05	; 5
    2216:	82 e3       	ldi	r24, 0x32	; 50
    2218:	92 e0       	ldi	r25, 0x02	; 2
    221a:	0e 94 e4 0e 	call	0x1dc8	; 0x1dc8 <sys_sleep_cmd>
	attach_ending(lm_msg);
    221e:	82 e3       	ldi	r24, 0x32	; 50
    2220:	92 e0       	ldi	r25, 0x02	; 2
    2222:	0e 94 fa 16 	call	0x2df4	; 0x2df4 <attach_ending>
	util_transmit_msg(lm_msg);
    2226:	82 e3       	ldi	r24, 0x32	; 50
    2228:	92 e0       	ldi	r25, 0x02	; 2
    222a:	0e 94 08 17 	call	0x2e10	; 0x2e10 <util_transmit_msg>
	
	//Wait for response
	while(uart0_hal_message_ready()==false){}
    222e:	0e 94 14 18 	call	0x3028	; 0x3028 <uart0_hal_message_ready>
    2232:	88 23       	and	r24, r24
    2234:	e1 f3       	breq	.-8      	; 0x222e <SC_put_to_sleep+0x20>
	
	util_read_msg(lm_msg);
    2236:	82 e3       	ldi	r24, 0x32	; 50
    2238:	92 e0       	ldi	r25, 0x02	; 2
    223a:	0e 94 82 18 	call	0x3104	; 0x3104 <util_read_msg>
	
	if(strcmp(lm_msg, OK)==0) return LM_STATUS_SUCCESS;
    223e:	62 e3       	ldi	r22, 0x32	; 50
    2240:	72 e0       	ldi	r23, 0x02	; 2
    2242:	80 e8       	ldi	r24, 0x80	; 128
    2244:	2c e0       	ldi	r18, 0x0C	; 12
    2246:	33 e0       	ldi	r19, 0x03	; 3
    2248:	40 e0       	ldi	r20, 0x00	; 0
    224a:	0e 94 1b 13 	call	0x2636	; 0x2636 <strcmp>
    224e:	89 2b       	or	r24, r25
    2250:	11 f4       	brne	.+4      	; 0x2256 <SC_put_to_sleep+0x48>
    2252:	80 e0       	ldi	r24, 0x00	; 0
    2254:	08 95       	ret
	return LM_STATUS_ERROR;
    2256:	81 e0       	ldi	r24, 0x01	; 1
}
    2258:	08 95       	ret

Disassembly of section .text.SC_wake_up:

000029fc <SC_wake_up>:

LM_STATUS SC_wake_up(){
	uart0_hal_send_break(0x55);
    29fc:	85 e5       	ldi	r24, 0x55	; 85
    29fe:	0e 94 2c 12 	call	0x2458	; 0x2458 <uart0_hal_send_break>
	
	//Wait for response
	while(uart0_hal_message_ready()==false){}
    2a02:	0e 94 14 18 	call	0x3028	; 0x3028 <uart0_hal_message_ready>
    2a06:	88 23       	and	r24, r24
    2a08:	e1 f3       	breq	.-8      	; 0x2a02 <SC_wake_up+0x6>
	
	util_read_msg(lm_msg);
    2a0a:	82 e3       	ldi	r24, 0x32	; 50
    2a0c:	92 e0       	ldi	r25, 0x02	; 2
    2a0e:	0e 94 82 18 	call	0x3104	; 0x3104 <util_read_msg>
	
	if(strcmp(lm_msg, OK)==0) return LM_STATUS_SUCCESS;
    2a12:	62 e3       	ldi	r22, 0x32	; 50
    2a14:	72 e0       	ldi	r23, 0x02	; 2
    2a16:	80 e8       	ldi	r24, 0x80	; 128
    2a18:	2c e0       	ldi	r18, 0x0C	; 12
    2a1a:	33 e0       	ldi	r19, 0x03	; 3
    2a1c:	40 e0       	ldi	r20, 0x00	; 0
    2a1e:	0e 94 1b 13 	call	0x2636	; 0x2636 <strcmp>
    2a22:	89 2b       	or	r24, r25
    2a24:	11 f4       	brne	.+4      	; 0x2a2a <SC_wake_up+0x2e>
    2a26:	80 e0       	ldi	r24, 0x00	; 0
    2a28:	08 95       	ret
	return LM_STATUS_ERROR;
    2a2a:	81 e0       	ldi	r24, 0x01	; 1
    2a2c:	08 95       	ret

Disassembly of section .text.LM_strbeginswith:

0000252a <LM_strbeginswith>:
	}
	
	return LM_STATUS_FATAL_ERROR;
}

static bool LM_strbeginswith(char *s1, const char *s2){
    252a:	cf 92       	push	r12
    252c:	df 92       	push	r13
    252e:	ef 92       	push	r14
    2530:	0f 93       	push	r16
    2532:	1f 93       	push	r17
    2534:	cf 93       	push	r28
    2536:	df 93       	push	r29
    2538:	ec 01       	movw	r28, r24
    253a:	6a 01       	movw	r12, r20
    253c:	e6 2e       	mov	r14, r22
	return strncmp(s1, s2, strlen(s2))==0?true:false;
    253e:	86 2f       	mov	r24, r22
    2540:	ba 01       	movw	r22, r20
    2542:	0e 94 d8 15 	call	0x2bb0	; 0x2bb0 <strlen>
    2546:	8c 01       	movw	r16, r24
    2548:	be 01       	movw	r22, r28
    254a:	80 e8       	ldi	r24, 0x80	; 128
    254c:	4e 2d       	mov	r20, r14
    254e:	96 01       	movw	r18, r12
    2550:	0e 94 af 0e 	call	0x1d5e	; 0x1d5e <strncmp>
    2554:	21 e0       	ldi	r18, 0x01	; 1
    2556:	89 2b       	or	r24, r25
    2558:	09 f0       	breq	.+2      	; 0x255c <LM_strbeginswith+0x32>
    255a:	20 e0       	ldi	r18, 0x00	; 0
    255c:	82 2f       	mov	r24, r18
    255e:	df 91       	pop	r29
    2560:	cf 91       	pop	r28
    2562:	1f 91       	pop	r17
    2564:	0f 91       	pop	r16
    2566:	ef 90       	pop	r14
    2568:	df 90       	pop	r13
    256a:	cf 90       	pop	r12
    256c:	08 95       	ret

Disassembly of section .text.util_setPendingStates:

0000305c <util_setPendingStates>:




void util_setPendingStates(LM_STATE_DATA *sd, int success, int failed){
	sd->success_state=success;
    305c:	fc 01       	movw	r30, r24
    305e:	71 83       	std	Z+1, r23	; 0x01
    3060:	60 83       	st	Z, r22
	sd->failure_state=failed;
    3062:	53 83       	std	Z+3, r21	; 0x03
    3064:	42 83       	std	Z+2, r20	; 0x02
    3066:	08 95       	ret

Disassembly of section .text.util_setMatchCase:

00003068 <util_setMatchCase>:
}

void util_setMatchCase(LM_STATE_DATA *sd, LM_MATCH_CASES matchCase, const char *matchString){
	sd->matchCase=matchCase;
    3068:	fc 01       	movw	r30, r24
    306a:	64 83       	std	Z+4, r22	; 0x04
	sd->matchString=matchString;
    306c:	25 83       	std	Z+5, r18	; 0x05
    306e:	36 83       	std	Z+6, r19	; 0x06
    3070:	47 83       	std	Z+7, r20	; 0x07
    3072:	08 95       	ret

Disassembly of section .text.util_matchMessage:

00001e26 <util_matchMessage>:
}

int util_matchMessage(LM_STATE_DATA *sd, char *msg){
    1e26:	cf 93       	push	r28
    1e28:	df 93       	push	r29
    1e2a:	ec 01       	movw	r28, r24
    1e2c:	fb 01       	movw	r30, r22
	switch(sd->matchCase){
    1e2e:	9c 81       	ldd	r25, Y+4	; 0x04
    1e30:	91 30       	cpi	r25, 0x01	; 1
    1e32:	91 f0       	breq	.+36     	; 0x1e58 <util_matchMessage+0x32>
    1e34:	18 f0       	brcs	.+6      	; 0x1e3c <util_matchMessage+0x16>
    1e36:	92 30       	cpi	r25, 0x02	; 2
    1e38:	e9 f0       	breq	.+58     	; 0x1e74 <util_matchMessage+0x4e>
    1e3a:	1f c0       	rjmp	.+62     	; 0x1e7a <util_matchMessage+0x54>
		case LM_EXACT:
		return strcmp(msg, sd->matchString)==0?sd->success_state:sd->failure_state;
    1e3c:	2d 81       	ldd	r18, Y+5	; 0x05
    1e3e:	3e 81       	ldd	r19, Y+6	; 0x06
    1e40:	4f 81       	ldd	r20, Y+7	; 0x07
    1e42:	80 e8       	ldi	r24, 0x80	; 128
    1e44:	0e 94 1b 13 	call	0x2636	; 0x2636 <strcmp>
    1e48:	89 2b       	or	r24, r25
    1e4a:	19 f4       	brne	.+6      	; 0x1e52 <util_matchMessage+0x2c>
    1e4c:	88 81       	ld	r24, Y
    1e4e:	99 81       	ldd	r25, Y+1	; 0x01
    1e50:	16 c0       	rjmp	.+44     	; 0x1e7e <util_matchMessage+0x58>
    1e52:	8a 81       	ldd	r24, Y+2	; 0x02
    1e54:	9b 81       	ldd	r25, Y+3	; 0x03
    1e56:	13 c0       	rjmp	.+38     	; 0x1e7e <util_matchMessage+0x58>

		case LM_BEGINS_WITH:
		return LM_strbeginswith(msg, sd->matchString)?sd->success_state:sd->failure_state;
    1e58:	4d 81       	ldd	r20, Y+5	; 0x05
    1e5a:	5e 81       	ldd	r21, Y+6	; 0x06
    1e5c:	6f 81       	ldd	r22, Y+7	; 0x07
    1e5e:	cf 01       	movw	r24, r30
    1e60:	0e 94 95 12 	call	0x252a	; 0x252a <LM_strbeginswith>
    1e64:	88 23       	and	r24, r24
    1e66:	19 f0       	breq	.+6      	; 0x1e6e <util_matchMessage+0x48>
    1e68:	88 81       	ld	r24, Y
    1e6a:	99 81       	ldd	r25, Y+1	; 0x01
    1e6c:	08 c0       	rjmp	.+16     	; 0x1e7e <util_matchMessage+0x58>
    1e6e:	8a 81       	ldd	r24, Y+2	; 0x02
    1e70:	9b 81       	ldd	r25, Y+3	; 0x03
    1e72:	05 c0       	rjmp	.+10     	; 0x1e7e <util_matchMessage+0x58>

		case LM_NO_TEST:
		return sd->success_state;
    1e74:	88 81       	ld	r24, Y
    1e76:	99 81       	ldd	r25, Y+1	; 0x01
    1e78:	02 c0       	rjmp	.+4      	; 0x1e7e <util_matchMessage+0x58>
		default:
		return sd->failure_state;
    1e7a:	8a 81       	ldd	r24, Y+2	; 0x02
    1e7c:	9b 81       	ldd	r25, Y+3	; 0x03
	}
}
    1e7e:	df 91       	pop	r29
    1e80:	cf 91       	pop	r28
    1e82:	08 95       	ret

Disassembly of section .text.util_transmit_msg:

00002e10 <util_transmit_msg>:

void util_transmit_msg(char msg[]){
    2e10:	cf 93       	push	r28
    2e12:	df 93       	push	r29
    2e14:	ec 01       	movw	r28, r24
	uart0_hal_send_message((uint8_t*) msg, strlen(msg));
    2e16:	bc 01       	movw	r22, r24
    2e18:	80 e8       	ldi	r24, 0x80	; 128
    2e1a:	0e 94 d8 15 	call	0x2bb0	; 0x2bb0 <strlen>
    2e1e:	68 2f       	mov	r22, r24
    2e20:	ce 01       	movw	r24, r28
    2e22:	0e 94 b1 14 	call	0x2962	; 0x2962 <uart0_hal_send_message>
}
    2e26:	df 91       	pop	r29
    2e28:	cf 91       	pop	r28
    2e2a:	08 95       	ret

Disassembly of section .text.util_read_msg:

00003104 <util_read_msg>:

void util_read_msg(char msg[]){
	uart0_hal_read_message_as_str((uint8_t*) msg);
    3104:	0e 94 03 16 	call	0x2c06	; 0x2c06 <uart0_hal_read_message_as_str>
    3108:	08 95       	ret

Disassembly of section .text.util_parse_err:

00001f3c <util_parse_err>:
}

LM_STATUS util_parse_err(char *msg){
    1f3c:	cf 92       	push	r12
    1f3e:	df 92       	push	r13
    1f40:	ef 92       	push	r14
	if(strcmp(msg, NO_FREE_CH)==0){
    1f42:	6c 01       	movw	r12, r24
    1f44:	20 e8       	ldi	r18, 0x80	; 128
    1f46:	e2 2e       	mov	r14, r18
    1f48:	22 ee       	ldi	r18, 0xE2	; 226
    1f4a:	32 e0       	ldi	r19, 0x02	; 2
    1f4c:	40 e0       	ldi	r20, 0x00	; 0
    1f4e:	8e 2d       	mov	r24, r14
    1f50:	b6 01       	movw	r22, r12
    1f52:	0e 94 1b 13 	call	0x2636	; 0x2636 <strcmp>
    1f56:	89 2b       	or	r24, r25
    1f58:	a1 f0       	breq	.+40     	; 0x1f82 <util_parse_err+0x46>
		return LM_STATUS_TRY_AGAIN;
	}
	
	if(strcmp(msg, DENIED)==0){
    1f5a:	2d ee       	ldi	r18, 0xED	; 237
    1f5c:	32 e0       	ldi	r19, 0x02	; 2
    1f5e:	40 e0       	ldi	r20, 0x00	; 0
    1f60:	8e 2d       	mov	r24, r14
    1f62:	b6 01       	movw	r22, r12
    1f64:	0e 94 1b 13 	call	0x2636	; 0x2636 <strcmp>
    1f68:	89 2b       	or	r24, r25
    1f6a:	69 f0       	breq	.+26     	; 0x1f86 <util_parse_err+0x4a>
		return LM_STATUS_TRY_AGAIN;
	}
	
	if(strcmp(msg, KEYS_NOT_INIT)==0){
    1f6c:	24 ef       	ldi	r18, 0xF4	; 244
    1f6e:	32 e0       	ldi	r19, 0x02	; 2
    1f70:	40 e0       	ldi	r20, 0x00	; 0
    1f72:	8e 2d       	mov	r24, r14
    1f74:	b6 01       	movw	r22, r12
    1f76:	0e 94 1b 13 	call	0x2636	; 0x2636 <strcmp>
    1f7a:	89 2b       	or	r24, r25
    1f7c:	31 f4       	brne	.+12     	; 0x1f8a <util_parse_err+0x4e>
		return LM_STATUS_CONF_ERR;
    1f7e:	84 e0       	ldi	r24, 0x04	; 4
    1f80:	05 c0       	rjmp	.+10     	; 0x1f8c <util_parse_err+0x50>
	uart0_hal_read_message_as_str((uint8_t*) msg);
}

LM_STATUS util_parse_err(char *msg){
	if(strcmp(msg, NO_FREE_CH)==0){
		return LM_STATUS_TRY_AGAIN;
    1f82:	83 e0       	ldi	r24, 0x03	; 3
    1f84:	03 c0       	rjmp	.+6      	; 0x1f8c <util_parse_err+0x50>
	}
	
	if(strcmp(msg, DENIED)==0){
		return LM_STATUS_TRY_AGAIN;
    1f86:	83 e0       	ldi	r24, 0x03	; 3
    1f88:	01 c0       	rjmp	.+2      	; 0x1f8c <util_parse_err+0x50>
	
	if(strcmp(msg, KEYS_NOT_INIT)==0){
		return LM_STATUS_CONF_ERR;
	}
	
	return LM_STATUS_FATAL_ERROR;
    1f8a:	82 e0       	ldi	r24, 0x02	; 2
}
    1f8c:	ef 90       	pop	r14
    1f8e:	df 90       	pop	r13
    1f90:	cf 90       	pop	r12
    1f92:	08 95       	ret

Disassembly of section .text.get_group_id:

0000310a <get_group_id>:
}


uint8_t get_group_id(){
    return _groupId;
}
    310a:	80 91 39 09 	lds	r24, 0x0939	; 0x800939 <_groupId>
    310e:	08 95       	ret

Disassembly of section .text.set_group_id:

00003110 <set_group_id>:

void set_group_id(uint8_t groupId){
    _groupId=groupId;
    3110:	80 93 39 09 	sts	0x0939, r24	; 0x800939 <_groupId>
    3114:	08 95       	ret

Disassembly of section .text.MRPP_init_group:

00002a2e <MRPP_init_group>:
uint8_t _groupId=0;

uint8_t get_group_id();
void set_group_id(uint8_t groupId);

void MRPP_init_group(COLLECTION collections[], uint8_t nCollections){
    2a2e:	0f 93       	push	r16
    2a30:	1f 93       	push	r17
    2a32:	cf 93       	push	r28
    2a34:	df 93       	push	r29
    2a36:	8c 01       	movw	r16, r24
    2a38:	d6 2f       	mov	r29, r22
    uint8_t groupId=get_group_id();
    2a3a:	0e 94 85 18 	call	0x310a	; 0x310a <get_group_id>
    2a3e:	c8 2f       	mov	r28, r24

    mrpp_state_init(&state, groupId, collections, nCollections);
    2a40:	2d 2f       	mov	r18, r29
    2a42:	a8 01       	movw	r20, r16
    2a44:	68 2f       	mov	r22, r24
    2a46:	8a ef       	ldi	r24, 0xFA	; 250
    2a48:	92 e0       	ldi	r25, 0x02	; 2
    2a4a:	0e 94 f6 05 	call	0xbec	; 0xbec <mrpp_state_init>

    groupId++;
    set_group_id(groupId);
    2a4e:	81 e0       	ldi	r24, 0x01	; 1
    2a50:	8c 0f       	add	r24, r28
    2a52:	0e 94 88 18 	call	0x3110	; 0x3110 <set_group_id>
}
    2a56:	df 91       	pop	r29
    2a58:	cf 91       	pop	r28
    2a5a:	1f 91       	pop	r17
    2a5c:	0f 91       	pop	r16
    2a5e:	08 95       	ret

Disassembly of section .text.MRPP_add_collection_data_INT16:

00001c84 <MRPP_add_collection_data_INT16>:

void set_group_id(uint8_t groupId){
    _groupId=groupId;
}

void MRPP_add_collection_data_INT16(uint8_t collectionId, uint8_t timestamp[], uint16_t values[]){
    1c84:	ef 92       	push	r14
    1c86:	ff 92       	push	r15
    1c88:	1f 93       	push	r17
    1c8a:	cf 93       	push	r28
    1c8c:	df 93       	push	r29
    1c8e:	cd b7       	in	r28, 0x3d	; 61
    1c90:	de b7       	in	r29, 0x3e	; 62
    1c92:	2a 97       	sbiw	r28, 0x0a	; 10
    1c94:	0f b6       	in	r0, 0x3f	; 63
    1c96:	f8 94       	cli
    1c98:	de bf       	out	0x3e, r29	; 62
    1c9a:	0f be       	out	0x3f, r0	; 63
    1c9c:	cd bf       	out	0x3d, r28	; 61
    1c9e:	18 2f       	mov	r17, r24
    1ca0:	7a 01       	movw	r14, r20
    uint8_t metadata[6];
    uint16_t begin;
    uint16_t length;
    mrpp_state_set_collection(&state, collectionId, timestamp, metadata);
    1ca2:	9e 01       	movw	r18, r28
    1ca4:	2f 5f       	subi	r18, 0xFF	; 255
    1ca6:	3f 4f       	sbci	r19, 0xFF	; 255
    1ca8:	ab 01       	movw	r20, r22
    1caa:	68 2f       	mov	r22, r24
    1cac:	8a ef       	ldi	r24, 0xFA	; 250
    1cae:	92 e0       	ldi	r25, 0x02	; 2
    1cb0:	0e 94 d2 0c 	call	0x19a4	; 0x19a4 <mrpp_state_set_collection>
    mrpp_state_get_collection_address(&state, collectionId, &begin, &length);
    1cb4:	9e 01       	movw	r18, r28
    1cb6:	27 5f       	subi	r18, 0xF7	; 247
    1cb8:	3f 4f       	sbci	r19, 0xFF	; 255
    1cba:	ae 01       	movw	r20, r28
    1cbc:	49 5f       	subi	r20, 0xF9	; 249
    1cbe:	5f 4f       	sbci	r21, 0xFF	; 255
    1cc0:	61 2f       	mov	r22, r17
    1cc2:	8a ef       	ldi	r24, 0xFA	; 250
    1cc4:	92 e0       	ldi	r25, 0x02	; 2
    1cc6:	0e 94 2b 14 	call	0x2856	; 0x2856 <mrpp_state_get_collection_address>

    mrpp_data_add_int16(metadata, values, begin, length);
    1cca:	29 85       	ldd	r18, Y+9	; 0x09
    1ccc:	3a 85       	ldd	r19, Y+10	; 0x0a
    1cce:	4f 81       	ldd	r20, Y+7	; 0x07
    1cd0:	58 85       	ldd	r21, Y+8	; 0x08
    1cd2:	b7 01       	movw	r22, r14
    1cd4:	ce 01       	movw	r24, r28
    1cd6:	01 96       	adiw	r24, 0x01	; 1
    1cd8:	0e 94 89 0c 	call	0x1912	; 0x1912 <mrpp_data_add_int16>
}
    1cdc:	2a 96       	adiw	r28, 0x0a	; 10
    1cde:	0f b6       	in	r0, 0x3f	; 63
    1ce0:	f8 94       	cli
    1ce2:	de bf       	out	0x3e, r29	; 62
    1ce4:	0f be       	out	0x3f, r0	; 63
    1ce6:	cd bf       	out	0x3d, r28	; 61
    1ce8:	df 91       	pop	r29
    1cea:	cf 91       	pop	r28
    1cec:	1f 91       	pop	r17
    1cee:	ff 90       	pop	r15
    1cf0:	ef 90       	pop	r14
    1cf2:	08 95       	ret

Disassembly of section .text.MRPP_is_body_package_ready:

00002c74 <MRPP_is_body_package_ready>:

bool MRPP_is_body_package_ready(int16_t *bodyIndex){
    2c74:	cf 93       	push	r28
    2c76:	df 93       	push	r29
    2c78:	ec 01       	movw	r28, r24
    *bodyIndex = mrpp_state_is_body_ready(&state);
    2c7a:	8a ef       	ldi	r24, 0xFA	; 250
    2c7c:	92 e0       	ldi	r25, 0x02	; 2
    2c7e:	0e 94 92 15 	call	0x2b24	; 0x2b24 <mrpp_state_is_body_ready>
    2c82:	88 83       	st	Y, r24
    2c84:	99 83       	std	Y+1, r25	; 0x01
    return *bodyIndex>-1;
    2c86:	89 2f       	mov	r24, r25
    2c88:	80 95       	com	r24
    
}
    2c8a:	88 1f       	adc	r24, r24
    2c8c:	88 27       	eor	r24, r24
    2c8e:	88 1f       	adc	r24, r24
    2c90:	df 91       	pop	r29
    2c92:	cf 91       	pop	r28
    2c94:	08 95       	ret

Disassembly of section .text.MRPP_get_ready_body_package:

0000187c <MRPP_get_ready_body_package>:

bool MRPP_get_ready_body_package(int16_t bodyIndex, uint8_t package[], uint8_t *package_length){
    187c:	af 92       	push	r10
    187e:	bf 92       	push	r11
    1880:	cf 92       	push	r12
    1882:	df 92       	push	r13
    1884:	ef 92       	push	r14
    1886:	ff 92       	push	r15
    1888:	0f 93       	push	r16
    188a:	1f 93       	push	r17
    188c:	cf 93       	push	r28
    188e:	df 93       	push	r29
    1890:	00 d0       	rcall	.+0      	; 0x1892 <MRPP_get_ready_body_package+0x16>
    1892:	00 d0       	rcall	.+0      	; 0x1894 <MRPP_get_ready_body_package+0x18>
    1894:	1f 92       	push	r1
    1896:	cd b7       	in	r28, 0x3d	; 61
    1898:	de b7       	in	r29, 0x3e	; 62
    189a:	6b 01       	movw	r12, r22
    189c:	5a 01       	movw	r10, r20
    uint8_t subId;
    uint8_t lastSubId;
    uint16_t begin;
    uint8_t length;

    bool res=mrpp_state_get_ready_body(&state, bodyIndex, &subId, &lastSubId, &begin, &length);
    189e:	9e 01       	movw	r18, r28
    18a0:	2b 5f       	subi	r18, 0xFB	; 251
    18a2:	3f 4f       	sbci	r19, 0xFF	; 255
    18a4:	79 01       	movw	r14, r18
    18a6:	8e 01       	movw	r16, r28
    18a8:	0d 5f       	subi	r16, 0xFD	; 253
    18aa:	1f 4f       	sbci	r17, 0xFF	; 255
    18ac:	23 50       	subi	r18, 0x03	; 3
    18ae:	31 09       	sbc	r19, r1
    18b0:	ae 01       	movw	r20, r28
    18b2:	4f 5f       	subi	r20, 0xFF	; 255
    18b4:	5f 4f       	sbci	r21, 0xFF	; 255
    18b6:	bc 01       	movw	r22, r24
    18b8:	8a ef       	ldi	r24, 0xFA	; 250
    18ba:	92 e0       	ldi	r25, 0x02	; 2
    18bc:	0e 94 26 08 	call	0x104c	; 0x104c <mrpp_state_get_ready_body>
    
    if(!res) return false;
    18c0:	88 23       	and	r24, r24
    18c2:	b1 f0       	breq	.+44     	; 0x18f0 <MRPP_get_ready_body_package+0x74>

    *package_length=length+DR_BODY_PACKAGE_META_SIZE;
    18c4:	4d 81       	ldd	r20, Y+5	; 0x05
    18c6:	83 e0       	ldi	r24, 0x03	; 3
    18c8:	84 0f       	add	r24, r20
    18ca:	f5 01       	movw	r30, r10
    18cc:	80 83       	st	Z, r24

    //set meta
    package[0]=state.groupId;
    18ce:	80 91 fa 02 	lds	r24, 0x02FA	; 0x8002fa <state>
    18d2:	f6 01       	movw	r30, r12
    18d4:	80 83       	st	Z, r24
    package[1]=subId;
    18d6:	89 81       	ldd	r24, Y+1	; 0x01
    18d8:	81 83       	std	Z+1, r24	; 0x01
    package[2]=lastSubId;
    18da:	8a 81       	ldd	r24, Y+2	; 0x02
    18dc:	82 83       	std	Z+2, r24	; 0x02

    //Merge data
    mrpp_data_get(&package[3], begin, length);
    18de:	50 e0       	ldi	r21, 0x00	; 0
    18e0:	6b 81       	ldd	r22, Y+3	; 0x03
    18e2:	7c 81       	ldd	r23, Y+4	; 0x04
    18e4:	c6 01       	movw	r24, r12
    18e6:	03 96       	adiw	r24, 0x03	; 3
    18e8:	0e 94 7a 15 	call	0x2af4	; 0x2af4 <mrpp_data_get>

    return true;
    18ec:	81 e0       	ldi	r24, 0x01	; 1
    18ee:	01 c0       	rjmp	.+2      	; 0x18f2 <MRPP_get_ready_body_package+0x76>
    uint16_t begin;
    uint8_t length;

    bool res=mrpp_state_get_ready_body(&state, bodyIndex, &subId, &lastSubId, &begin, &length);
    
    if(!res) return false;
    18f0:	80 e0       	ldi	r24, 0x00	; 0

    //Merge data
    mrpp_data_get(&package[3], begin, length);

    return true;
}
    18f2:	0f 90       	pop	r0
    18f4:	0f 90       	pop	r0
    18f6:	0f 90       	pop	r0
    18f8:	0f 90       	pop	r0
    18fa:	0f 90       	pop	r0
    18fc:	df 91       	pop	r29
    18fe:	cf 91       	pop	r28
    1900:	1f 91       	pop	r17
    1902:	0f 91       	pop	r16
    1904:	ff 90       	pop	r15
    1906:	ef 90       	pop	r14
    1908:	df 90       	pop	r13
    190a:	cf 90       	pop	r12
    190c:	bf 90       	pop	r11
    190e:	af 90       	pop	r10
    1910:	08 95       	ret

Disassembly of section .text.MRPP_set_body_sent:

00003074 <MRPP_set_body_sent>:

void MRPP_set_body_sent(int16_t bodyIndex){
    mrpp_state_set_body_sent(&state, bodyIndex);
    3074:	bc 01       	movw	r22, r24
    3076:	8a ef       	ldi	r24, 0xFA	; 250
    3078:	92 e0       	ldi	r25, 0x02	; 2
    307a:	0e 94 be 16 	call	0x2d7c	; 0x2d7c <mrpp_state_set_body_sent>
    307e:	08 95       	ret

Disassembly of section .text.MRPP_get_header_package:

00002c96 <MRPP_get_header_package>:
}

void MRPP_get_header_package(uint8_t package[], uint8_t *package_length){
    2c96:	cf 93       	push	r28
    2c98:	df 93       	push	r29
    2c9a:	eb 01       	movw	r28, r22
    package[0]=state.groupId;
    2c9c:	20 91 fa 02 	lds	r18, 0x02FA	; 0x8002fa <state>
    2ca0:	fc 01       	movw	r30, r24
    2ca2:	21 93       	st	Z+, r18
    *package_length=mrpp_state_get_header(&state, &package[1]);
    2ca4:	bf 01       	movw	r22, r30
    2ca6:	8a ef       	ldi	r24, 0xFA	; 250
    2ca8:	92 e0       	ldi	r25, 0x02	; 2
    2caa:	0e 94 03 0b 	call	0x1606	; 0x1606 <mrpp_state_get_header>
    *package_length+=1;
    2cae:	8f 5f       	subi	r24, 0xFF	; 255
    2cb0:	88 83       	st	Y, r24
}
    2cb2:	df 91       	pop	r29
    2cb4:	cf 91       	pop	r28
    2cb6:	08 95       	ret

Disassembly of section .text.MRPP_get_tail_package:

00002cb8 <MRPP_get_tail_package>:

void MRPP_get_tail_package(uint8_t package[], uint8_t *package_length){
    2cb8:	cf 93       	push	r28
    2cba:	df 93       	push	r29
    2cbc:	eb 01       	movw	r28, r22
    package[0]=state.groupId;
    2cbe:	20 91 fa 02 	lds	r18, 0x02FA	; 0x8002fa <state>
    2cc2:	fc 01       	movw	r30, r24
    2cc4:	21 93       	st	Z+, r18
    *package_length=mrpp_state_get_tail(&state, &package[1]);
    2cc6:	bf 01       	movw	r22, r30
    2cc8:	8a ef       	ldi	r24, 0xFA	; 250
    2cca:	92 e0       	ldi	r25, 0x02	; 2
    2ccc:	0e 94 b1 0a 	call	0x1562	; 0x1562 <mrpp_state_get_tail>
    *package_length+=1;
    2cd0:	8f 5f       	subi	r24, 0xFF	; 255
    2cd2:	88 83       	st	Y, r24
}
    2cd4:	df 91       	pop	r29
    2cd6:	cf 91       	pop	r28
    2cd8:	08 95       	ret

Disassembly of section .text.MRPP_all_body_package_sent:

000030b6 <MRPP_all_body_package_sent>:

bool MRPP_all_body_package_sent(){
    return mrpp_state_all_bodies_sent(&state);
    30b6:	8a ef       	ldi	r24, 0xFA	; 250
    30b8:	92 e0       	ldi	r25, 0x02	; 2
    30ba:	0e 94 ee 15 	call	0x2bdc	; 0x2bdc <mrpp_state_all_bodies_sent>
}
    30be:	08 95       	ret

Disassembly of section .text.mrpp_data_add_int16:

00001912 <mrpp_data_add_int16>:
#include "mrpp_data.h"

uint8_t storage[BODY_BUFFER_DATA_SIZE];

void mrpp_data_add_int16(uint8_t metadata[6], uint16_t values[], uint16_t begin, uint16_t length){
    1912:	cf 92       	push	r12
    1914:	df 92       	push	r13
    1916:	ff 92       	push	r15
    1918:	0f 93       	push	r16
    191a:	1f 93       	push	r17
    191c:	cf 93       	push	r28
    191e:	df 93       	push	r29
    1920:	dc 01       	movw	r26, r24
    
    //add meta
    for (uint8_t i = begin; i < begin+COLLECTION_DATA_META_SIZE; i++)
    1922:	94 2f       	mov	r25, r20
    1924:	0c c0       	rjmp	.+24     	; 0x193e <mrpp_data_add_int16+0x2c>
    {
        storage[i]=metadata[i-begin];
    1926:	c9 2f       	mov	r28, r25
    1928:	d0 e0       	ldi	r29, 0x00	; 0
    192a:	e4 1b       	sub	r30, r20
    192c:	f5 0b       	sbc	r31, r21
    192e:	ea 0f       	add	r30, r26
    1930:	fb 1f       	adc	r31, r27
    1932:	80 81       	ld	r24, Z
    1934:	fe 01       	movw	r30, r28
    1936:	ec 56       	subi	r30, 0x6C	; 108
    1938:	fc 4f       	sbci	r31, 0xFC	; 252
    193a:	80 83       	st	Z, r24
uint8_t storage[BODY_BUFFER_DATA_SIZE];

void mrpp_data_add_int16(uint8_t metadata[6], uint16_t values[], uint16_t begin, uint16_t length){
    
    //add meta
    for (uint8_t i = begin; i < begin+COLLECTION_DATA_META_SIZE; i++)
    193c:	9f 5f       	subi	r25, 0xFF	; 255
    193e:	e9 2f       	mov	r30, r25
    1940:	f0 e0       	ldi	r31, 0x00	; 0
    1942:	6a 01       	movw	r12, r20
    1944:	86 e0       	ldi	r24, 0x06	; 6
    1946:	c8 0e       	add	r12, r24
    1948:	d1 1c       	adc	r13, r1
    194a:	ec 15       	cp	r30, r12
    194c:	fd 05       	cpc	r31, r13
    194e:	58 f3       	brcs	.-42     	; 0x1926 <mrpp_data_add_int16+0x14>
    {
        storage[i]=metadata[i-begin];
    }
    length-=COLLECTION_DATA_META_SIZE;
    1950:	26 50       	subi	r18, 0x06	; 6
    1952:	31 09       	sbc	r19, r1

    //add values  
    uint16_t valuesLength=length/2;
    1954:	36 95       	lsr	r19
    1956:	27 95       	ror	r18
    const uint16_t offset_MSB=begin+COLLECTION_DATA_META_SIZE;
    const uint16_t offset_LSB=begin+COLLECTION_DATA_META_SIZE+1;
    1958:	49 5f       	subi	r20, 0xF9	; 249
    195a:	5f 4f       	sbci	r21, 0xFF	; 255
    for (uint16_t i = 0; i < valuesLength; i++)
    195c:	a0 e0       	ldi	r26, 0x00	; 0
    195e:	b0 e0       	ldi	r27, 0x00	; 0
    1960:	16 c0       	rjmp	.+44     	; 0x198e <mrpp_data_add_int16+0x7c>
    {
        storage[offset_MSB + i*2]=values[i]>>8;
    1962:	cd 01       	movw	r24, r26
    1964:	88 0f       	add	r24, r24
    1966:	99 1f       	adc	r25, r25
    1968:	f6 01       	movw	r30, r12
    196a:	e8 0f       	add	r30, r24
    196c:	f9 1f       	adc	r31, r25
    196e:	8b 01       	movw	r16, r22
    1970:	08 0f       	add	r16, r24
    1972:	19 1f       	adc	r17, r25
    1974:	e8 01       	movw	r28, r16
    1976:	f9 80       	ldd	r15, Y+1	; 0x01
    1978:	ec 56       	subi	r30, 0x6C	; 108
    197a:	fc 4f       	sbci	r31, 0xFC	; 252
    197c:	f0 82       	st	Z, r15
        storage[offset_LSB + i*2]=values[i];
    197e:	84 0f       	add	r24, r20
    1980:	95 1f       	adc	r25, r21
    1982:	18 81       	ld	r17, Y
    1984:	fc 01       	movw	r30, r24
    1986:	ec 56       	subi	r30, 0x6C	; 108
    1988:	fc 4f       	sbci	r31, 0xFC	; 252
    198a:	10 83       	st	Z, r17

    //add values  
    uint16_t valuesLength=length/2;
    const uint16_t offset_MSB=begin+COLLECTION_DATA_META_SIZE;
    const uint16_t offset_LSB=begin+COLLECTION_DATA_META_SIZE+1;
    for (uint16_t i = 0; i < valuesLength; i++)
    198c:	11 96       	adiw	r26, 0x01	; 1
    198e:	a2 17       	cp	r26, r18
    1990:	b3 07       	cpc	r27, r19
    1992:	38 f3       	brcs	.-50     	; 0x1962 <mrpp_data_add_int16+0x50>
    {
        storage[offset_MSB + i*2]=values[i]>>8;
        storage[offset_LSB + i*2]=values[i];
    }

}
    1994:	df 91       	pop	r29
    1996:	cf 91       	pop	r28
    1998:	1f 91       	pop	r17
    199a:	0f 91       	pop	r16
    199c:	ff 90       	pop	r15
    199e:	df 90       	pop	r13
    19a0:	cf 90       	pop	r12
    19a2:	08 95       	ret

Disassembly of section .text.mrpp_data_get:

00002af4 <mrpp_data_get>:

void mrpp_data_get(uint8_t data[], uint16_t begin, uint16_t length){
    2af4:	cf 93       	push	r28
    2af6:	df 93       	push	r29
    2af8:	ec 01       	movw	r28, r24
    for (uint16_t i = 0; i < length; i++)
    2afa:	20 e0       	ldi	r18, 0x00	; 0
    2afc:	30 e0       	ldi	r19, 0x00	; 0
    2afe:	0c c0       	rjmp	.+24     	; 0x2b18 <mrpp_data_get+0x24>
    {
        data[i]=storage[begin+i];
    2b00:	de 01       	movw	r26, r28
    2b02:	a2 0f       	add	r26, r18
    2b04:	b3 1f       	adc	r27, r19
    2b06:	f9 01       	movw	r30, r18
    2b08:	e6 0f       	add	r30, r22
    2b0a:	f7 1f       	adc	r31, r23
    2b0c:	ec 56       	subi	r30, 0x6C	; 108
    2b0e:	fc 4f       	sbci	r31, 0xFC	; 252
    2b10:	90 81       	ld	r25, Z
    2b12:	9c 93       	st	X, r25
    }

}

void mrpp_data_get(uint8_t data[], uint16_t begin, uint16_t length){
    for (uint16_t i = 0; i < length; i++)
    2b14:	2f 5f       	subi	r18, 0xFF	; 255
    2b16:	3f 4f       	sbci	r19, 0xFF	; 255
    2b18:	24 17       	cp	r18, r20
    2b1a:	35 07       	cpc	r19, r21
    2b1c:	88 f3       	brcs	.-30     	; 0x2b00 <mrpp_data_get+0xc>
    {
        data[i]=storage[begin+i];
    }
    
    2b1e:	df 91       	pop	r29
    2b20:	cf 91       	pop	r28
    2b22:	08 95       	ret

Disassembly of section .text.add_data_types:

0000125e <add_data_types>:
        package[i*4+9]=state->collections[i].length;
    }
    return 6+state->nCollections*DR_HEADER_COLLECTION_META_SIZE;
}

static void add_data_types(MRPP_STATE *state, uint8_t package[]){
    125e:	cf 92       	push	r12
    1260:	df 92       	push	r13
    1262:	ef 92       	push	r14
    1264:	ff 92       	push	r15
    1266:	0f 93       	push	r16
    1268:	1f 93       	push	r17
    126a:	cf 93       	push	r28
    126c:	df 93       	push	r29
    126e:	dc 01       	movw	r26, r24
    1270:	eb 01       	movw	r28, r22
    uint32_t dt=0x00000000;
    uint8_t cnt=0;

    for (uint8_t i = 0; i < state->nCollections; i++)
    1272:	90 e0       	ldi	r25, 0x00	; 0
    return 6+state->nCollections*DR_HEADER_COLLECTION_META_SIZE;
}

static void add_data_types(MRPP_STATE *state, uint8_t package[]){
    uint32_t dt=0x00000000;
    uint8_t cnt=0;
    1274:	40 e0       	ldi	r20, 0x00	; 0
    }
    return 6+state->nCollections*DR_HEADER_COLLECTION_META_SIZE;
}

static void add_data_types(MRPP_STATE *state, uint8_t package[]){
    uint32_t dt=0x00000000;
    1276:	c1 2c       	mov	r12, r1
    1278:	d1 2c       	mov	r13, r1
    127a:	76 01       	movw	r14, r12
    uint8_t cnt=0;

    for (uint8_t i = 0; i < state->nCollections; i++)
    127c:	4a c0       	rjmp	.+148    	; 0x1312 <add_data_types+0xb4>
    {
        switch (state->collections[i].type)
    127e:	29 2f       	mov	r18, r25
    1280:	30 e0       	ldi	r19, 0x00	; 0
    1282:	f9 01       	movw	r30, r18
    1284:	ee 0f       	add	r30, r30
    1286:	ff 1f       	adc	r31, r31
    1288:	22 0f       	add	r18, r18
    128a:	33 1f       	adc	r19, r19
    128c:	22 0f       	add	r18, r18
    128e:	33 1f       	adc	r19, r19
    1290:	22 0f       	add	r18, r18
    1292:	33 1f       	adc	r19, r19
    1294:	e2 0f       	add	r30, r18
    1296:	f3 1f       	adc	r31, r19
    1298:	ea 0f       	add	r30, r26
    129a:	fb 1f       	adc	r31, r27
    129c:	27 81       	ldd	r18, Z+7	; 0x07
    129e:	22 30       	cpi	r18, 0x02	; 2
    12a0:	a9 f0       	breq	.+42     	; 0x12cc <add_data_types+0x6e>
    12a2:	24 30       	cpi	r18, 0x04	; 4
    12a4:	21 f1       	breq	.+72     	; 0x12ee <add_data_types+0x90>
    12a6:	21 30       	cpi	r18, 0x01	; 1
    12a8:	91 f5       	brne	.+100    	; 0x130e <add_data_types+0xb0>
        {
            case T_INT8:
                dt |= 1 << cnt;
    12aa:	01 e0       	ldi	r16, 0x01	; 1
    12ac:	10 e0       	ldi	r17, 0x00	; 0
    12ae:	04 2e       	mov	r0, r20
    12b0:	02 c0       	rjmp	.+4      	; 0x12b6 <add_data_types+0x58>
    12b2:	00 0f       	add	r16, r16
    12b4:	11 1f       	adc	r17, r17
    12b6:	0a 94       	dec	r0
    12b8:	e2 f7       	brpl	.-8      	; 0x12b2 <add_data_types+0x54>
    12ba:	01 2e       	mov	r0, r17
    12bc:	00 0c       	add	r0, r0
    12be:	22 0b       	sbc	r18, r18
    12c0:	33 0b       	sbc	r19, r19
    12c2:	c0 2a       	or	r12, r16
    12c4:	d1 2a       	or	r13, r17
    12c6:	e2 2a       	or	r14, r18
    12c8:	f3 2a       	or	r15, r19
                break;
    12ca:	21 c0       	rjmp	.+66     	; 0x130e <add_data_types+0xb0>
            
            case T_INT16:
                dt |= 2 << cnt;
    12cc:	02 e0       	ldi	r16, 0x02	; 2
    12ce:	10 e0       	ldi	r17, 0x00	; 0
    12d0:	04 2e       	mov	r0, r20
    12d2:	02 c0       	rjmp	.+4      	; 0x12d8 <add_data_types+0x7a>
    12d4:	00 0f       	add	r16, r16
    12d6:	11 1f       	adc	r17, r17
    12d8:	0a 94       	dec	r0
    12da:	e2 f7       	brpl	.-8      	; 0x12d4 <add_data_types+0x76>
    12dc:	01 2e       	mov	r0, r17
    12de:	00 0c       	add	r0, r0
    12e0:	22 0b       	sbc	r18, r18
    12e2:	33 0b       	sbc	r19, r19
    12e4:	c0 2a       	or	r12, r16
    12e6:	d1 2a       	or	r13, r17
    12e8:	e2 2a       	or	r14, r18
    12ea:	f3 2a       	or	r15, r19
                break;
    12ec:	10 c0       	rjmp	.+32     	; 0x130e <add_data_types+0xb0>

            case T_FLOAT:
                dt |= 3 << cnt;
    12ee:	03 e0       	ldi	r16, 0x03	; 3
    12f0:	10 e0       	ldi	r17, 0x00	; 0
    12f2:	04 2e       	mov	r0, r20
    12f4:	02 c0       	rjmp	.+4      	; 0x12fa <add_data_types+0x9c>
    12f6:	00 0f       	add	r16, r16
    12f8:	11 1f       	adc	r17, r17
    12fa:	0a 94       	dec	r0
    12fc:	e2 f7       	brpl	.-8      	; 0x12f6 <add_data_types+0x98>
    12fe:	01 2e       	mov	r0, r17
    1300:	00 0c       	add	r0, r0
    1302:	22 0b       	sbc	r18, r18
    1304:	33 0b       	sbc	r19, r19
    1306:	c0 2a       	or	r12, r16
    1308:	d1 2a       	or	r13, r17
    130a:	e2 2a       	or	r14, r18
    130c:	f3 2a       	or	r15, r19
                break;
            
            default:
                break;
        }
        cnt+=2;
    130e:	4e 5f       	subi	r20, 0xFE	; 254

static void add_data_types(MRPP_STATE *state, uint8_t package[]){
    uint32_t dt=0x00000000;
    uint8_t cnt=0;

    for (uint8_t i = 0; i < state->nCollections; i++)
    1310:	9f 5f       	subi	r25, 0xFF	; 255
    1312:	12 96       	adiw	r26, 0x02	; 2
    1314:	8c 91       	ld	r24, X
    1316:	12 97       	sbiw	r26, 0x02	; 2
    1318:	98 17       	cp	r25, r24
    131a:	08 f4       	brcc	.+2      	; 0x131e <add_data_types+0xc0>
    131c:	b0 cf       	rjmp	.-160    	; 0x127e <add_data_types+0x20>
                break;
        }
        cnt+=2;
    }

    package[3]=(dt>>16) & 0xff;
    131e:	eb 82       	std	Y+3, r14	; 0x03
    package[4]=(dt>>8) & 0xff;
    1320:	dc 82       	std	Y+4, r13	; 0x04
    package[5]=dt & 0xff;
    1322:	cd 82       	std	Y+5, r12	; 0x05
} 
    1324:	df 91       	pop	r29
    1326:	cf 91       	pop	r28
    1328:	1f 91       	pop	r17
    132a:	0f 91       	pop	r16
    132c:	ff 90       	pop	r15
    132e:	ef 90       	pop	r14
    1330:	df 90       	pop	r13
    1332:	cf 90       	pop	r12
    1334:	08 95       	ret

Disassembly of section .text.update_bodies:

00000daa <update_bodies>:
    //Update bodies
    update_bodies(state, collectionId);
}


static void update_bodies(MRPP_STATE *state, uint8_t collectionId){
 daa:	cf 93       	push	r28
 dac:	dc 01       	movw	r26, r24
    
    //update begin
    bool beginIsDone=true;
    uint8_t beginsInBody=state->collections[collectionId-1].beginsInBody;
 dae:	26 2f       	mov	r18, r22
 db0:	30 e0       	ldi	r19, 0x00	; 0
 db2:	c9 01       	movw	r24, r18
 db4:	01 97       	sbiw	r24, 0x01	; 1
 db6:	f9 01       	movw	r30, r18
 db8:	ee 0f       	add	r30, r30
 dba:	ff 1f       	adc	r31, r31
 dbc:	22 0f       	add	r18, r18
 dbe:	33 1f       	adc	r19, r19
 dc0:	22 0f       	add	r18, r18
 dc2:	33 1f       	adc	r19, r19
 dc4:	22 0f       	add	r18, r18
 dc6:	33 1f       	adc	r19, r19
 dc8:	e2 0f       	add	r30, r18
 dca:	f3 1f       	adc	r31, r19
 dcc:	ea 0f       	add	r30, r26
 dce:	fb 1f       	adc	r31, r27
 dd0:	70 81       	ld	r23, Z
    for (uint8_t i = 0; i < collectionId-1; i++)
 dd2:	c0 e0       	ldi	r28, 0x00	; 0
 dd4:	25 c0       	rjmp	.+74     	; 0xe20 <update_bodies+0x76>
    {
        if(i==collectionId-1) continue;
 dd6:	82 17       	cp	r24, r18
 dd8:	93 07       	cpc	r25, r19
 dda:	09 f1       	breq	.+66     	; 0xe1e <update_bodies+0x74>

        if( state->collections[i].endsInBody==beginsInBody){
 ddc:	a9 01       	movw	r20, r18
 dde:	44 0f       	add	r20, r20
 de0:	55 1f       	adc	r21, r21
 de2:	44 0f       	add	r20, r20
 de4:	55 1f       	adc	r21, r21
 de6:	44 0f       	add	r20, r20
 de8:	55 1f       	adc	r21, r21
 dea:	f9 01       	movw	r30, r18
 dec:	ee 0f       	add	r30, r30
 dee:	ff 1f       	adc	r31, r31
 df0:	e4 0f       	add	r30, r20
 df2:	f5 1f       	adc	r31, r21
 df4:	ea 0f       	add	r30, r26
 df6:	fb 1f       	adc	r31, r27
 df8:	43 85       	ldd	r20, Z+11	; 0x0b
 dfa:	74 13       	cpse	r23, r20
 dfc:	10 c0       	rjmp	.+32     	; 0xe1e <update_bodies+0x74>
            if(state->collections[i].status!=DONE){
 dfe:	f9 01       	movw	r30, r18
 e00:	ee 0f       	add	r30, r30
 e02:	ff 1f       	adc	r31, r31
 e04:	22 0f       	add	r18, r18
 e06:	33 1f       	adc	r19, r19
 e08:	22 0f       	add	r18, r18
 e0a:	33 1f       	adc	r19, r19
 e0c:	22 0f       	add	r18, r18
 e0e:	33 1f       	adc	r19, r19
 e10:	e2 0f       	add	r30, r18
 e12:	f3 1f       	adc	r31, r19
 e14:	ea 0f       	add	r30, r26
 e16:	fb 1f       	adc	r31, r27
 e18:	24 85       	ldd	r18, Z+12	; 0x0c
 e1a:	23 30       	cpi	r18, 0x03	; 3
 e1c:	41 f4       	brne	.+16     	; 0xe2e <update_bodies+0x84>
static void update_bodies(MRPP_STATE *state, uint8_t collectionId){
    
    //update begin
    bool beginIsDone=true;
    uint8_t beginsInBody=state->collections[collectionId-1].beginsInBody;
    for (uint8_t i = 0; i < collectionId-1; i++)
 e1e:	cf 5f       	subi	r28, 0xFF	; 255
 e20:	2c 2f       	mov	r18, r28
 e22:	30 e0       	ldi	r19, 0x00	; 0
 e24:	28 17       	cp	r18, r24
 e26:	39 07       	cpc	r19, r25
 e28:	b4 f2       	brlt	.-84     	; 0xdd6 <update_bodies+0x2c>


static void update_bodies(MRPP_STATE *state, uint8_t collectionId){
    
    //update begin
    bool beginIsDone=true;
 e2a:	21 e0       	ldi	r18, 0x01	; 1
 e2c:	01 c0       	rjmp	.+2      	; 0xe30 <update_bodies+0x86>
    {
        if(i==collectionId-1) continue;

        if( state->collections[i].endsInBody==beginsInBody){
            if(state->collections[i].status!=DONE){
                beginIsDone=false;
 e2e:	20 e0       	ldi	r18, 0x00	; 0
                break;
            }
        }
    }

    if(beginIsDone){
 e30:	22 23       	and	r18, r18
 e32:	39 f0       	breq	.+14     	; 0xe42 <update_bodies+0x98>
        state->bodies[beginsInBody]=READY;
 e34:	fd 01       	movw	r30, r26
 e36:	e7 0f       	add	r30, r23
 e38:	f1 1d       	adc	r31, r1
 e3a:	e4 58       	subi	r30, 0x84	; 132
 e3c:	ff 4f       	sbci	r31, 0xFF	; 255
 e3e:	21 e0       	ldi	r18, 0x01	; 1
 e40:	20 83       	st	Z, r18
    }
    

    //update end
    bool endIsDone=true;
    uint8_t endsInBody=state->collections[collectionId-1].endsInBody;
 e42:	9c 01       	movw	r18, r24
 e44:	22 0f       	add	r18, r18
 e46:	33 1f       	adc	r19, r19
 e48:	22 0f       	add	r18, r18
 e4a:	33 1f       	adc	r19, r19
 e4c:	22 0f       	add	r18, r18
 e4e:	33 1f       	adc	r19, r19
 e50:	fc 01       	movw	r30, r24
 e52:	ee 0f       	add	r30, r30
 e54:	ff 1f       	adc	r31, r31
 e56:	e2 0f       	add	r30, r18
 e58:	f3 1f       	adc	r31, r19
 e5a:	ea 0f       	add	r30, r26
 e5c:	fb 1f       	adc	r31, r27
 e5e:	c3 85       	ldd	r28, Z+11	; 0x0b
    for (uint8_t i = collectionId; i < state->nCollections; i++)
 e60:	29 c0       	rjmp	.+82     	; 0xeb4 <update_bodies+0x10a>
    {
         if(i==collectionId-1) continue;
 e62:	46 2f       	mov	r20, r22
 e64:	50 e0       	ldi	r21, 0x00	; 0
 e66:	84 17       	cp	r24, r20
 e68:	95 07       	cpc	r25, r21
 e6a:	19 f1       	breq	.+70     	; 0xeb2 <update_bodies+0x108>

        if(state->collections[i].beginsInBody==endsInBody){
 e6c:	9a 01       	movw	r18, r20
 e6e:	2f 5f       	subi	r18, 0xFF	; 255
 e70:	3f 4f       	sbci	r19, 0xFF	; 255
 e72:	f9 01       	movw	r30, r18
 e74:	ee 0f       	add	r30, r30
 e76:	ff 1f       	adc	r31, r31
 e78:	22 0f       	add	r18, r18
 e7a:	33 1f       	adc	r19, r19
 e7c:	22 0f       	add	r18, r18
 e7e:	33 1f       	adc	r19, r19
 e80:	22 0f       	add	r18, r18
 e82:	33 1f       	adc	r19, r19
 e84:	e2 0f       	add	r30, r18
 e86:	f3 1f       	adc	r31, r19
 e88:	ea 0f       	add	r30, r26
 e8a:	fb 1f       	adc	r31, r27
 e8c:	20 81       	ld	r18, Z
 e8e:	c2 13       	cpse	r28, r18
 e90:	10 c0       	rjmp	.+32     	; 0xeb2 <update_bodies+0x108>
            if(state->collections[i].status!=DONE){
 e92:	fa 01       	movw	r30, r20
 e94:	ee 0f       	add	r30, r30
 e96:	ff 1f       	adc	r31, r31
 e98:	44 0f       	add	r20, r20
 e9a:	55 1f       	adc	r21, r21
 e9c:	44 0f       	add	r20, r20
 e9e:	55 1f       	adc	r21, r21
 ea0:	44 0f       	add	r20, r20
 ea2:	55 1f       	adc	r21, r21
 ea4:	e4 0f       	add	r30, r20
 ea6:	f5 1f       	adc	r31, r21
 ea8:	ea 0f       	add	r30, r26
 eaa:	fb 1f       	adc	r31, r27
 eac:	24 85       	ldd	r18, Z+12	; 0x0c
 eae:	23 30       	cpi	r18, 0x03	; 3
 eb0:	41 f4       	brne	.+16     	; 0xec2 <update_bodies+0x118>
    

    //update end
    bool endIsDone=true;
    uint8_t endsInBody=state->collections[collectionId-1].endsInBody;
    for (uint8_t i = collectionId; i < state->nCollections; i++)
 eb2:	6f 5f       	subi	r22, 0xFF	; 255
 eb4:	12 96       	adiw	r26, 0x02	; 2
 eb6:	2c 91       	ld	r18, X
 eb8:	12 97       	sbiw	r26, 0x02	; 2
 eba:	62 17       	cp	r22, r18
 ebc:	90 f2       	brcs	.-92     	; 0xe62 <update_bodies+0xb8>
        state->bodies[beginsInBody]=READY;
    }
    

    //update end
    bool endIsDone=true;
 ebe:	81 e0       	ldi	r24, 0x01	; 1
 ec0:	01 c0       	rjmp	.+2      	; 0xec4 <update_bodies+0x11a>
    {
         if(i==collectionId-1) continue;

        if(state->collections[i].beginsInBody==endsInBody){
            if(state->collections[i].status!=DONE){
                endIsDone=false;
 ec2:	80 e0       	ldi	r24, 0x00	; 0
                break;
            }
        }
    }

    if(endIsDone){
 ec4:	88 23       	and	r24, r24
 ec6:	41 f0       	breq	.+16     	; 0xed8 <update_bodies+0x12e>
        state->bodies[endsInBody]=READY;
 ec8:	fd 01       	movw	r30, r26
 eca:	ec 0f       	add	r30, r28
 ecc:	f1 1d       	adc	r31, r1
 ece:	e4 58       	subi	r30, 0x84	; 132
 ed0:	ff 4f       	sbci	r31, 0xFF	; 255
 ed2:	81 e0       	ldi	r24, 0x01	; 1
 ed4:	80 83       	st	Z, r24
 ed6:	06 c0       	rjmp	.+12     	; 0xee4 <update_bodies+0x13a>
    }else{
        //to handle cases where there are multiple collection in same body that starts and ends there
        state->bodies[endsInBody]=WAITING;
 ed8:	fd 01       	movw	r30, r26
 eda:	ec 0f       	add	r30, r28
 edc:	f1 1d       	adc	r31, r1
 ede:	e4 58       	subi	r30, 0x84	; 132
 ee0:	ff 4f       	sbci	r31, 0xFF	; 255
 ee2:	10 82       	st	Z, r1
    }
    
    //update between
    if(endsInBody-beginsInBody<2) return;
 ee4:	8c 2f       	mov	r24, r28
 ee6:	90 e0       	ldi	r25, 0x00	; 0
 ee8:	87 1b       	sub	r24, r23
 eea:	91 09       	sbc	r25, r1
 eec:	02 97       	sbiw	r24, 0x02	; 2
 eee:	64 f0       	brlt	.+24     	; 0xf08 <update_bodies+0x15e>

    for (uint8_t i = beginsInBody+1; i < endsInBody; i++)
 ef0:	7f 5f       	subi	r23, 0xFF	; 255
 ef2:	08 c0       	rjmp	.+16     	; 0xf04 <update_bodies+0x15a>
    {
        state->bodies[i]=READY;
 ef4:	fd 01       	movw	r30, r26
 ef6:	e7 0f       	add	r30, r23
 ef8:	f1 1d       	adc	r31, r1
 efa:	e4 58       	subi	r30, 0x84	; 132
 efc:	ff 4f       	sbci	r31, 0xFF	; 255
 efe:	81 e0       	ldi	r24, 0x01	; 1
 f00:	80 83       	st	Z, r24
    }
    
    //update between
    if(endsInBody-beginsInBody<2) return;

    for (uint8_t i = beginsInBody+1; i < endsInBody; i++)
 f02:	7f 5f       	subi	r23, 0xFF	; 255
 f04:	7c 17       	cp	r23, r28
 f06:	b0 f3       	brcs	.-20     	; 0xef4 <update_bodies+0x14a>
    {
        state->bodies[i]=READY;
    }
    
}
 f08:	cf 91       	pop	r28
 f0a:	08 95       	ret

Disassembly of section .text.mrpp_state_init:

00000bec <mrpp_state_init>:
#include "mrpp_state.h"

static void update_bodies(MRPP_STATE *state, uint8_t collectionId);
static void add_data_types(MRPP_STATE *state, uint8_t package[]);

void mrpp_state_init(MRPP_STATE *state, uint8_t groupId, COLLECTION collections[], uint8_t nCollections){
 bec:	af 92       	push	r10
 bee:	bf 92       	push	r11
 bf0:	cf 92       	push	r12
 bf2:	df 92       	push	r13
 bf4:	ef 92       	push	r14
 bf6:	ff 92       	push	r15
 bf8:	0f 93       	push	r16
 bfa:	1f 93       	push	r17
 bfc:	cf 93       	push	r28
 bfe:	df 93       	push	r29
 c00:	ec 01       	movw	r28, r24
 c02:	c2 2e       	mov	r12, r18
    state->groupId=groupId;
 c04:	68 83       	st	Y, r22
    state->nCollections=nCollections;
 c06:	2a 83       	std	Y+2, r18	; 0x02

    uint16_t startingIndex=0;
    for (uint8_t i = 0; i < nCollections; i++)
 c08:	d1 2c       	mov	r13, r1

void mrpp_state_init(MRPP_STATE *state, uint8_t groupId, COLLECTION collections[], uint8_t nCollections){
    state->groupId=groupId;
    state->nCollections=nCollections;

    uint16_t startingIndex=0;
 c0a:	00 e0       	ldi	r16, 0x00	; 0
 c0c:	10 e0       	ldi	r17, 0x00	; 0
    for (uint8_t i = 0; i < nCollections; i++)
 c0e:	8f c0       	rjmp	.+286    	; 0xd2e <mrpp_state_init+0x142>
    {
        state->collections[i].samplingInterval=collections[i].samplingInterval;
 c10:	ed 2d       	mov	r30, r13
 c12:	f0 e0       	ldi	r31, 0x00	; 0
 c14:	cf 01       	movw	r24, r30
 c16:	88 0f       	add	r24, r24
 c18:	99 1f       	adc	r25, r25
 c1a:	88 0f       	add	r24, r24
 c1c:	99 1f       	adc	r25, r25
 c1e:	8e 0f       	add	r24, r30
 c20:	9f 1f       	adc	r25, r31
 c22:	84 0f       	add	r24, r20
 c24:	95 1f       	adc	r25, r21
 c26:	dc 01       	movw	r26, r24
 c28:	12 96       	adiw	r26, 0x02	; 2
 c2a:	6d 91       	ld	r22, X+
 c2c:	7c 91       	ld	r23, X
 c2e:	13 97       	sbiw	r26, 0x03	; 3
 c30:	df 01       	movw	r26, r30
 c32:	aa 0f       	add	r26, r26
 c34:	bb 1f       	adc	r27, r27
 c36:	9f 01       	movw	r18, r30
 c38:	22 0f       	add	r18, r18
 c3a:	33 1f       	adc	r19, r19
 c3c:	22 0f       	add	r18, r18
 c3e:	33 1f       	adc	r19, r19
 c40:	22 0f       	add	r18, r18
 c42:	33 1f       	adc	r19, r19
 c44:	a2 0f       	add	r26, r18
 c46:	b3 1f       	adc	r27, r19
 c48:	5d 01       	movw	r10, r26
 c4a:	ac 0e       	add	r10, r28
 c4c:	bd 1e       	adc	r11, r29
 c4e:	d5 01       	movw	r26, r10
 c50:	19 96       	adiw	r26, 0x09	; 9
 c52:	7c 93       	st	X, r23
 c54:	6e 93       	st	-X, r22
 c56:	18 97       	sbiw	r26, 0x08	; 8

        //type
        state->collections[i].type=collections[i].type;
 c58:	dc 01       	movw	r26, r24
 c5a:	14 96       	adiw	r26, 0x04	; 4
 c5c:	2c 91       	ld	r18, X
 c5e:	d5 01       	movw	r26, r10
 c60:	17 96       	adiw	r26, 0x07	; 7
 c62:	2c 93       	st	X, r18
 c64:	17 97       	sbiw	r26, 0x07	; 7

        //Calculate length and set starting index
        state->collections[i].startIndex=startingIndex;
 c66:	14 96       	adiw	r26, 0x04	; 4
 c68:	1c 93       	st	X, r17
 c6a:	0e 93       	st	-X, r16
 c6c:	13 97       	sbiw	r26, 0x03	; 3
        uint16_t len=collections[i].samplings*collections[i].type+COLLECTION_DATA_META_SIZE;
 c6e:	dc 01       	movw	r26, r24
 c70:	2d 91       	ld	r18, X+
 c72:	3c 91       	ld	r19, X
 c74:	11 97       	sbiw	r26, 0x01	; 1
 c76:	14 96       	adiw	r26, 0x04	; 4
 c78:	8c 91       	ld	r24, X
 c7a:	82 9f       	mul	r24, r18
 c7c:	70 01       	movw	r14, r0
 c7e:	83 9f       	mul	r24, r19
 c80:	f0 0c       	add	r15, r0
 c82:	11 24       	eor	r1, r1
 c84:	b6 e0       	ldi	r27, 0x06	; 6
 c86:	eb 0e       	add	r14, r27
 c88:	f1 1c       	adc	r15, r1
        state->collections[i].length=len;
 c8a:	d5 01       	movw	r26, r10
 c8c:	16 96       	adiw	r26, 0x06	; 6
 c8e:	fc 92       	st	X, r15
 c90:	ee 92       	st	-X, r14
 c92:	15 97       	sbiw	r26, 0x05	; 5
        

        //calculate starting and ending body
        state->collections[i].beginsInBody=startingIndex/DR_BODY_PAYLOAD_SIZE;
 c94:	98 01       	movw	r18, r16
 c96:	ab ea       	ldi	r26, 0xAB	; 171
 c98:	ba ea       	ldi	r27, 0xAA	; 170
 c9a:	0e 94 ce 16 	call	0x2d9c	; 0x2d9c <__umulhisi3>
 c9e:	96 95       	lsr	r25
 ca0:	87 95       	ror	r24
 ca2:	92 95       	swap	r25
 ca4:	82 95       	swap	r24
 ca6:	8f 70       	andi	r24, 0x0F	; 15
 ca8:	89 27       	eor	r24, r25
 caa:	9f 70       	andi	r25, 0x0F	; 15
 cac:	89 27       	eor	r24, r25
 cae:	9f 01       	movw	r18, r30
 cb0:	2f 5f       	subi	r18, 0xFF	; 255
 cb2:	3f 4f       	sbci	r19, 0xFF	; 255
 cb4:	d9 01       	movw	r26, r18
 cb6:	aa 0f       	add	r26, r26
 cb8:	bb 1f       	adc	r27, r27
 cba:	22 0f       	add	r18, r18
 cbc:	33 1f       	adc	r19, r19
 cbe:	22 0f       	add	r18, r18
 cc0:	33 1f       	adc	r19, r19
 cc2:	22 0f       	add	r18, r18
 cc4:	33 1f       	adc	r19, r19
 cc6:	a2 0f       	add	r26, r18
 cc8:	b3 1f       	adc	r27, r19
 cca:	ac 0f       	add	r26, r28
 ccc:	bd 1f       	adc	r27, r29
 cce:	8c 93       	st	X, r24
        uint8_t endsInBody=(startingIndex+len)/DR_BODY_PAYLOAD_SIZE;
 cd0:	0e 0d       	add	r16, r14
 cd2:	1f 1d       	adc	r17, r15
 cd4:	98 01       	movw	r18, r16
 cd6:	ab ea       	ldi	r26, 0xAB	; 171
 cd8:	ba ea       	ldi	r27, 0xAA	; 170
 cda:	0e 94 ce 16 	call	0x2d9c	; 0x2d9c <__umulhisi3>
 cde:	7c 01       	movw	r14, r24
 ce0:	f6 94       	lsr	r15
 ce2:	e7 94       	ror	r14
 ce4:	f6 94       	lsr	r15
 ce6:	e7 94       	ror	r14
 ce8:	f6 94       	lsr	r15
 cea:	e7 94       	ror	r14
 cec:	f6 94       	lsr	r15
 cee:	e7 94       	ror	r14
 cf0:	f6 94       	lsr	r15
 cf2:	e7 94       	ror	r14
 cf4:	be 2c       	mov	r11, r14
        //handling edge cases where data matches exact size of bodies fx 48, 96 and so on
        endsInBody=(startingIndex+len)%DR_BODY_PAYLOAD_SIZE==0?endsInBody-1:endsInBody;
 cf6:	20 e3       	ldi	r18, 0x30	; 48
 cf8:	2e 9d       	mul	r18, r14
 cfa:	c0 01       	movw	r24, r0
 cfc:	2f 9d       	mul	r18, r15
 cfe:	90 0d       	add	r25, r0
 d00:	11 24       	eor	r1, r1
 d02:	08 17       	cp	r16, r24
 d04:	19 07       	cpc	r17, r25
 d06:	19 f4       	brne	.+6      	; 0xd0e <mrpp_state_init+0x122>
 d08:	bb 24       	eor	r11, r11
 d0a:	ba 94       	dec	r11
 d0c:	be 0c       	add	r11, r14
        state->collections[i].endsInBody=endsInBody;
 d0e:	cf 01       	movw	r24, r30
 d10:	88 0f       	add	r24, r24
 d12:	99 1f       	adc	r25, r25
 d14:	ee 0f       	add	r30, r30
 d16:	ff 1f       	adc	r31, r31
 d18:	ee 0f       	add	r30, r30
 d1a:	ff 1f       	adc	r31, r31
 d1c:	ee 0f       	add	r30, r30
 d1e:	ff 1f       	adc	r31, r31
 d20:	e8 0f       	add	r30, r24
 d22:	f9 1f       	adc	r31, r25
 d24:	ec 0f       	add	r30, r28
 d26:	fd 1f       	adc	r31, r29
 d28:	b3 86       	std	Z+11, r11	; 0x0b
        

        //set status
        state->collections[i].status=WAITING;
 d2a:	14 86       	std	Z+12, r1	; 0x0c
void mrpp_state_init(MRPP_STATE *state, uint8_t groupId, COLLECTION collections[], uint8_t nCollections){
    state->groupId=groupId;
    state->nCollections=nCollections;

    uint16_t startingIndex=0;
    for (uint8_t i = 0; i < nCollections; i++)
 d2c:	d3 94       	inc	r13
 d2e:	dc 14       	cp	r13, r12
 d30:	08 f4       	brcc	.+2      	; 0xd34 <mrpp_state_init+0x148>
 d32:	6e cf       	rjmp	.-292    	; 0xc10 <mrpp_state_init+0x24>

        startingIndex+=len;      
    }

    //Calculate lastSubId
    uint8_t lastSubId=startingIndex/DR_BODY_PAYLOAD_SIZE+DR_SUBID_OVERHEAD;
 d34:	98 01       	movw	r18, r16
 d36:	ab ea       	ldi	r26, 0xAB	; 171
 d38:	ba ea       	ldi	r27, 0xAA	; 170
 d3a:	0e 94 ce 16 	call	0x2d9c	; 0x2d9c <__umulhisi3>
 d3e:	fc 01       	movw	r30, r24
 d40:	f6 95       	lsr	r31
 d42:	e7 95       	ror	r30
 d44:	f2 95       	swap	r31
 d46:	e2 95       	swap	r30
 d48:	ef 70       	andi	r30, 0x0F	; 15
 d4a:	ef 27       	eor	r30, r31
 d4c:	ff 70       	andi	r31, 0x0F	; 15
 d4e:	ef 27       	eor	r30, r31
 d50:	4e 2f       	mov	r20, r30
 d52:	52 e0       	ldi	r21, 0x02	; 2
 d54:	5e 0f       	add	r21, r30
    //handling edge cases where data matches exact size of bodies fx 48, 96 and so on
    lastSubId=startingIndex%DR_BODY_PAYLOAD_SIZE==0?lastSubId-1:lastSubId;
 d56:	20 e3       	ldi	r18, 0x30	; 48
 d58:	2e 9f       	mul	r18, r30
 d5a:	c0 01       	movw	r24, r0
 d5c:	2f 9f       	mul	r18, r31
 d5e:	90 0d       	add	r25, r0
 d60:	11 24       	eor	r1, r1
 d62:	08 1b       	sub	r16, r24
 d64:	19 0b       	sbc	r17, r25
 d66:	11 f4       	brne	.+4      	; 0xd6c <mrpp_state_init+0x180>
 d68:	51 e0       	ldi	r21, 0x01	; 1
 d6a:	5e 0f       	add	r21, r30
    state->lastSubId=lastSubId;
 d6c:	59 83       	std	Y+1, r21	; 0x01
    
    //calculate bodies
    uint8_t nBodies=startingIndex/DR_BODY_PAYLOAD_SIZE;
    //handling edge cases where data matches exact size of bodies fx 48, 96 and so on
    nBodies=startingIndex%DR_BODY_PAYLOAD_SIZE==0?nBodies:nBodies+1;
 d6e:	01 2b       	or	r16, r17
 d70:	11 f0       	breq	.+4      	; 0xd76 <mrpp_state_init+0x18a>
 d72:	41 e0       	ldi	r20, 0x01	; 1
 d74:	4e 0f       	add	r20, r30
    state->nBodies=nBodies;
 d76:	fe 01       	movw	r30, r28
 d78:	e5 58       	subi	r30, 0x85	; 133
 d7a:	ff 4f       	sbci	r31, 0xFF	; 255
 d7c:	40 83       	st	Z, r20

    for (uint8_t i = 0; i < nBodies; i++)
 d7e:	80 e0       	ldi	r24, 0x00	; 0
 d80:	07 c0       	rjmp	.+14     	; 0xd90 <mrpp_state_init+0x1a4>
    {
        state->bodies[i]=WAITING;
 d82:	fe 01       	movw	r30, r28
 d84:	e8 0f       	add	r30, r24
 d86:	f1 1d       	adc	r31, r1
 d88:	e4 58       	subi	r30, 0x84	; 132
 d8a:	ff 4f       	sbci	r31, 0xFF	; 255
 d8c:	10 82       	st	Z, r1
    uint8_t nBodies=startingIndex/DR_BODY_PAYLOAD_SIZE;
    //handling edge cases where data matches exact size of bodies fx 48, 96 and so on
    nBodies=startingIndex%DR_BODY_PAYLOAD_SIZE==0?nBodies:nBodies+1;
    state->nBodies=nBodies;

    for (uint8_t i = 0; i < nBodies; i++)
 d8e:	8f 5f       	subi	r24, 0xFF	; 255
 d90:	84 17       	cp	r24, r20
 d92:	b8 f3       	brcs	.-18     	; 0xd82 <mrpp_state_init+0x196>
    {
        state->bodies[i]=WAITING;
    }
}
 d94:	df 91       	pop	r29
 d96:	cf 91       	pop	r28
 d98:	1f 91       	pop	r17
 d9a:	0f 91       	pop	r16
 d9c:	ff 90       	pop	r15
 d9e:	ef 90       	pop	r14
 da0:	df 90       	pop	r13
 da2:	cf 90       	pop	r12
 da4:	bf 90       	pop	r11
 da6:	af 90       	pop	r10
 da8:	08 95       	ret

Disassembly of section .text.mrpp_state_get_header:

00001606 <mrpp_state_get_header>:


uint8_t mrpp_state_get_header(MRPP_STATE *state, uint8_t package[]){
    1606:	0f 93       	push	r16
    1608:	1f 93       	push	r17
    160a:	cf 93       	push	r28
    160c:	df 93       	push	r29
    160e:	8c 01       	movw	r16, r24
    1610:	eb 01       	movw	r28, r22
    package[0]=0;
    1612:	18 82       	st	Y, r1
    package[1]=state->lastSubId;
    1614:	fc 01       	movw	r30, r24
    1616:	81 81       	ldd	r24, Z+1	; 0x01
    1618:	89 83       	std	Y+1, r24	; 0x01

    //status bit
    package[2]=0;
    161a:	1a 82       	std	Y+2, r1	; 0x02

    //add data type
    add_data_types(state, package);
    161c:	c8 01       	movw	r24, r16
    161e:	0e 94 2f 09 	call	0x125e	; 0x125e <add_data_types>

    for (uint8_t i = 0; i < state->nCollections; i++)
    1622:	20 e0       	ldi	r18, 0x00	; 0
    1624:	35 c0       	rjmp	.+106    	; 0x1690 <mrpp_state_get_header+0x8a>
    {
        package[i*4+6]=state->collections[i].startIndex >> 8;
    1626:	82 2f       	mov	r24, r18
    1628:	90 e0       	ldi	r25, 0x00	; 0
    162a:	dc 01       	movw	r26, r24
    162c:	aa 0f       	add	r26, r26
    162e:	bb 1f       	adc	r27, r27
    1630:	aa 0f       	add	r26, r26
    1632:	bb 1f       	adc	r27, r27
    1634:	ad 01       	movw	r20, r26
    1636:	4a 5f       	subi	r20, 0xFA	; 250
    1638:	5f 4f       	sbci	r21, 0xFF	; 255
    163a:	4c 0f       	add	r20, r28
    163c:	5d 1f       	adc	r21, r29
    163e:	fc 01       	movw	r30, r24
    1640:	ee 0f       	add	r30, r30
    1642:	ff 1f       	adc	r31, r31
    1644:	88 0f       	add	r24, r24
    1646:	99 1f       	adc	r25, r25
    1648:	88 0f       	add	r24, r24
    164a:	99 1f       	adc	r25, r25
    164c:	88 0f       	add	r24, r24
    164e:	99 1f       	adc	r25, r25
    1650:	e8 0f       	add	r30, r24
    1652:	f9 1f       	adc	r31, r25
    1654:	bf 01       	movw	r22, r30
    1656:	60 0f       	add	r22, r16
    1658:	71 1f       	adc	r23, r17
    165a:	fb 01       	movw	r30, r22
    165c:	84 81       	ldd	r24, Z+4	; 0x04
    165e:	fa 01       	movw	r30, r20
    1660:	80 83       	st	Z, r24
        package[i*4+7]=state->collections[i].startIndex;
    1662:	cd 01       	movw	r24, r26
    1664:	07 96       	adiw	r24, 0x07	; 7
    1666:	8c 0f       	add	r24, r28
    1668:	9d 1f       	adc	r25, r29
    166a:	fb 01       	movw	r30, r22
    166c:	33 81       	ldd	r19, Z+3	; 0x03
    166e:	fc 01       	movw	r30, r24
    1670:	30 83       	st	Z, r19
        package[i*4+8]=state->collections[i].length>>8;
    1672:	cd 01       	movw	r24, r26
    1674:	08 96       	adiw	r24, 0x08	; 8
    1676:	8c 0f       	add	r24, r28
    1678:	9d 1f       	adc	r25, r29
    167a:	fb 01       	movw	r30, r22
    167c:	36 81       	ldd	r19, Z+6	; 0x06
    167e:	fc 01       	movw	r30, r24
    1680:	30 83       	st	Z, r19
        package[i*4+9]=state->collections[i].length;
    1682:	19 96       	adiw	r26, 0x09	; 9
    1684:	ac 0f       	add	r26, r28
    1686:	bd 1f       	adc	r27, r29
    1688:	fb 01       	movw	r30, r22
    168a:	85 81       	ldd	r24, Z+5	; 0x05
    168c:	8c 93       	st	X, r24
    package[2]=0;

    //add data type
    add_data_types(state, package);

    for (uint8_t i = 0; i < state->nCollections; i++)
    168e:	2f 5f       	subi	r18, 0xFF	; 255
    1690:	f8 01       	movw	r30, r16
    1692:	82 81       	ldd	r24, Z+2	; 0x02
    1694:	28 17       	cp	r18, r24
    1696:	38 f2       	brcs	.-114    	; 0x1626 <mrpp_state_get_header+0x20>
        package[i*4+7]=state->collections[i].startIndex;
        package[i*4+8]=state->collections[i].length>>8;
        package[i*4+9]=state->collections[i].length;
    }
    
    return 6+state->nCollections*DR_HEADER_COLLECTION_META_SIZE;
    1698:	88 0f       	add	r24, r24
    169a:	88 0f       	add	r24, r24
}
    169c:	8a 5f       	subi	r24, 0xFA	; 250
    169e:	df 91       	pop	r29
    16a0:	cf 91       	pop	r28
    16a2:	1f 91       	pop	r17
    16a4:	0f 91       	pop	r16
    16a6:	08 95       	ret

Disassembly of section .text.mrpp_state_get_tail:

00001562 <mrpp_state_get_tail>:

uint8_t mrpp_state_get_tail(MRPP_STATE *state, uint8_t package[]){
    1562:	0f 93       	push	r16
    1564:	1f 93       	push	r17
    1566:	cf 93       	push	r28
    1568:	df 93       	push	r29
    156a:	8c 01       	movw	r16, r24
    156c:	eb 01       	movw	r28, r22
    package[0]=state->lastSubId;
    156e:	fc 01       	movw	r30, r24
    1570:	81 81       	ldd	r24, Z+1	; 0x01
    1572:	88 83       	st	Y, r24
    package[1]=state->lastSubId;
    1574:	81 81       	ldd	r24, Z+1	; 0x01
    1576:	89 83       	std	Y+1, r24	; 0x01

    //status bit
    package[2]=0;
    1578:	1a 82       	std	Y+2, r1	; 0x02

    //add data type
    add_data_types(state, package);
    157a:	c8 01       	movw	r24, r16
    157c:	0e 94 2f 09 	call	0x125e	; 0x125e <add_data_types>

    for (uint8_t i = 0; i < state->nCollections; i++)
    1580:	20 e0       	ldi	r18, 0x00	; 0
    1582:	35 c0       	rjmp	.+106    	; 0x15ee <mrpp_state_get_tail+0x8c>
    {
        package[i*4+6]=state->collections[i].startIndex >> 8;
    1584:	82 2f       	mov	r24, r18
    1586:	90 e0       	ldi	r25, 0x00	; 0
    1588:	dc 01       	movw	r26, r24
    158a:	aa 0f       	add	r26, r26
    158c:	bb 1f       	adc	r27, r27
    158e:	aa 0f       	add	r26, r26
    1590:	bb 1f       	adc	r27, r27
    1592:	ad 01       	movw	r20, r26
    1594:	4a 5f       	subi	r20, 0xFA	; 250
    1596:	5f 4f       	sbci	r21, 0xFF	; 255
    1598:	4c 0f       	add	r20, r28
    159a:	5d 1f       	adc	r21, r29
    159c:	fc 01       	movw	r30, r24
    159e:	ee 0f       	add	r30, r30
    15a0:	ff 1f       	adc	r31, r31
    15a2:	88 0f       	add	r24, r24
    15a4:	99 1f       	adc	r25, r25
    15a6:	88 0f       	add	r24, r24
    15a8:	99 1f       	adc	r25, r25
    15aa:	88 0f       	add	r24, r24
    15ac:	99 1f       	adc	r25, r25
    15ae:	e8 0f       	add	r30, r24
    15b0:	f9 1f       	adc	r31, r25
    15b2:	bf 01       	movw	r22, r30
    15b4:	60 0f       	add	r22, r16
    15b6:	71 1f       	adc	r23, r17
    15b8:	fb 01       	movw	r30, r22
    15ba:	84 81       	ldd	r24, Z+4	; 0x04
    15bc:	fa 01       	movw	r30, r20
    15be:	80 83       	st	Z, r24
        package[i*4+7]=state->collections[i].startIndex;
    15c0:	cd 01       	movw	r24, r26
    15c2:	07 96       	adiw	r24, 0x07	; 7
    15c4:	8c 0f       	add	r24, r28
    15c6:	9d 1f       	adc	r25, r29
    15c8:	fb 01       	movw	r30, r22
    15ca:	33 81       	ldd	r19, Z+3	; 0x03
    15cc:	fc 01       	movw	r30, r24
    15ce:	30 83       	st	Z, r19
        package[i*4+8]=state->collections[i].length>>8;
    15d0:	cd 01       	movw	r24, r26
    15d2:	08 96       	adiw	r24, 0x08	; 8
    15d4:	8c 0f       	add	r24, r28
    15d6:	9d 1f       	adc	r25, r29
    15d8:	fb 01       	movw	r30, r22
    15da:	36 81       	ldd	r19, Z+6	; 0x06
    15dc:	fc 01       	movw	r30, r24
    15de:	30 83       	st	Z, r19
        package[i*4+9]=state->collections[i].length;
    15e0:	19 96       	adiw	r26, 0x09	; 9
    15e2:	ac 0f       	add	r26, r28
    15e4:	bd 1f       	adc	r27, r29
    15e6:	fb 01       	movw	r30, r22
    15e8:	85 81       	ldd	r24, Z+5	; 0x05
    15ea:	8c 93       	st	X, r24
    package[2]=0;

    //add data type
    add_data_types(state, package);

    for (uint8_t i = 0; i < state->nCollections; i++)
    15ec:	2f 5f       	subi	r18, 0xFF	; 255
    15ee:	f8 01       	movw	r30, r16
    15f0:	82 81       	ldd	r24, Z+2	; 0x02
    15f2:	28 17       	cp	r18, r24
    15f4:	38 f2       	brcs	.-114    	; 0x1584 <mrpp_state_get_tail+0x22>
        package[i*4+6]=state->collections[i].startIndex >> 8;
        package[i*4+7]=state->collections[i].startIndex;
        package[i*4+8]=state->collections[i].length>>8;
        package[i*4+9]=state->collections[i].length;
    }
    return 6+state->nCollections*DR_HEADER_COLLECTION_META_SIZE;
    15f6:	88 0f       	add	r24, r24
    15f8:	88 0f       	add	r24, r24
}
    15fa:	8a 5f       	subi	r24, 0xFA	; 250
    15fc:	df 91       	pop	r29
    15fe:	cf 91       	pop	r28
    1600:	1f 91       	pop	r17
    1602:	0f 91       	pop	r16
    1604:	08 95       	ret

Disassembly of section .text.mrpp_state_set_collection:

000019a4 <mrpp_state_set_collection>:
    package[5]=dt & 0xff;
} 



void mrpp_state_set_collection(MRPP_STATE *state, uint8_t collectionId, uint8_t timestamp[4], uint8_t metadata[6]){
    19a4:	0f 93       	push	r16
    19a6:	1f 93       	push	r17
    19a8:	cf 93       	push	r28
    19aa:	df 93       	push	r29
    19ac:	8c 01       	movw	r16, r24
    state->collections[collectionId-1].status=DONE;
    19ae:	a6 2f       	mov	r26, r22
    19b0:	b0 e0       	ldi	r27, 0x00	; 0
    19b2:	11 97       	sbiw	r26, 0x01	; 1
    19b4:	fd 01       	movw	r30, r26
    19b6:	ee 0f       	add	r30, r30
    19b8:	ff 1f       	adc	r31, r31
    19ba:	cd 01       	movw	r24, r26
    19bc:	88 0f       	add	r24, r24
    19be:	99 1f       	adc	r25, r25
    19c0:	88 0f       	add	r24, r24
    19c2:	99 1f       	adc	r25, r25
    19c4:	88 0f       	add	r24, r24
    19c6:	99 1f       	adc	r25, r25
    19c8:	e8 0f       	add	r30, r24
    19ca:	f9 1f       	adc	r31, r25
    19cc:	e0 0f       	add	r30, r16
    19ce:	f1 1f       	adc	r31, r17
    19d0:	83 e0       	ldi	r24, 0x03	; 3
    19d2:	84 87       	std	Z+12, r24	; 0x0c

    //Copy ts
    for (uint8_t i = 0; i < 4; i++)
    19d4:	90 e0       	ldi	r25, 0x00	; 0
    19d6:	0a c0       	rjmp	.+20     	; 0x19ec <mrpp_state_set_collection+0x48>
    {
        metadata[i]=timestamp[i];
    19d8:	e9 2f       	mov	r30, r25
    19da:	f0 e0       	ldi	r31, 0x00	; 0
    19dc:	e9 01       	movw	r28, r18
    19de:	ce 0f       	add	r28, r30
    19e0:	df 1f       	adc	r29, r31
    19e2:	e4 0f       	add	r30, r20
    19e4:	f5 1f       	adc	r31, r21
    19e6:	80 81       	ld	r24, Z
    19e8:	88 83       	st	Y, r24

void mrpp_state_set_collection(MRPP_STATE *state, uint8_t collectionId, uint8_t timestamp[4], uint8_t metadata[6]){
    state->collections[collectionId-1].status=DONE;

    //Copy ts
    for (uint8_t i = 0; i < 4; i++)
    19ea:	9f 5f       	subi	r25, 0xFF	; 255
    19ec:	94 30       	cpi	r25, 0x04	; 4
    19ee:	a0 f3       	brcs	.-24     	; 0x19d8 <mrpp_state_set_collection+0x34>
    {
        metadata[i]=timestamp[i];
    }

    //add sampling interval
    metadata[4]=state->collections[collectionId-1].samplingInterval>>8;
    19f0:	cd 01       	movw	r24, r26
    19f2:	88 0f       	add	r24, r24
    19f4:	99 1f       	adc	r25, r25
    19f6:	aa 0f       	add	r26, r26
    19f8:	bb 1f       	adc	r27, r27
    19fa:	aa 0f       	add	r26, r26
    19fc:	bb 1f       	adc	r27, r27
    19fe:	aa 0f       	add	r26, r26
    1a00:	bb 1f       	adc	r27, r27
    1a02:	a8 0f       	add	r26, r24
    1a04:	b9 1f       	adc	r27, r25
    1a06:	a0 0f       	add	r26, r16
    1a08:	b1 1f       	adc	r27, r17
    1a0a:	19 96       	adiw	r26, 0x09	; 9
    1a0c:	8c 91       	ld	r24, X
    1a0e:	19 97       	sbiw	r26, 0x09	; 9
    1a10:	f9 01       	movw	r30, r18
    1a12:	84 83       	std	Z+4, r24	; 0x04
    metadata[5]=state->collections[collectionId-1].samplingInterval;
    1a14:	18 96       	adiw	r26, 0x08	; 8
    1a16:	8c 91       	ld	r24, X
    1a18:	85 83       	std	Z+5, r24	; 0x05


    //Update bodies
    update_bodies(state, collectionId);
    1a1a:	c8 01       	movw	r24, r16
    1a1c:	0e 94 d5 06 	call	0xdaa	; 0xdaa <update_bodies>
}
    1a20:	df 91       	pop	r29
    1a22:	cf 91       	pop	r28
    1a24:	1f 91       	pop	r17
    1a26:	0f 91       	pop	r16
    1a28:	08 95       	ret

Disassembly of section .text.mrpp_state_is_body_ready:

00002b24 <mrpp_state_is_body_ready>:
        state->bodies[i]=READY;
    }
    
}

int16_t mrpp_state_is_body_ready(MRPP_STATE *state){
    2b24:	ac 01       	movw	r20, r24
    int16_t bodyIndex=-1;
    for (uint8_t i = 0; i < state->nBodies; i++)
    2b26:	90 e0       	ldi	r25, 0x00	; 0
    2b28:	0b c0       	rjmp	.+22     	; 0x2b40 <mrpp_state_is_body_ready+0x1c>
    {
        if(state->bodies[i]==READY){
    2b2a:	29 2f       	mov	r18, r25
    2b2c:	30 e0       	ldi	r19, 0x00	; 0
    2b2e:	fa 01       	movw	r30, r20
    2b30:	e2 0f       	add	r30, r18
    2b32:	f3 1f       	adc	r31, r19
    2b34:	e4 58       	subi	r30, 0x84	; 132
    2b36:	ff 4f       	sbci	r31, 0xFF	; 255
    2b38:	80 81       	ld	r24, Z
    2b3a:	81 30       	cpi	r24, 0x01	; 1
    2b3c:	49 f0       	breq	.+18     	; 0x2b50 <mrpp_state_is_body_ready+0x2c>
    
}

int16_t mrpp_state_is_body_ready(MRPP_STATE *state){
    int16_t bodyIndex=-1;
    for (uint8_t i = 0; i < state->nBodies; i++)
    2b3e:	9f 5f       	subi	r25, 0xFF	; 255
    2b40:	fa 01       	movw	r30, r20
    2b42:	e5 58       	subi	r30, 0x85	; 133
    2b44:	ff 4f       	sbci	r31, 0xFF	; 255
    2b46:	80 81       	ld	r24, Z
    2b48:	98 17       	cp	r25, r24
    2b4a:	78 f3       	brcs	.-34     	; 0x2b2a <mrpp_state_is_body_ready+0x6>
    }
    
}

int16_t mrpp_state_is_body_ready(MRPP_STATE *state){
    int16_t bodyIndex=-1;
    2b4c:	2f ef       	ldi	r18, 0xFF	; 255
    2b4e:	3f ef       	ldi	r19, 0xFF	; 255
            bodyIndex=i;
            break;
        }
    }
    return bodyIndex;
}
    2b50:	c9 01       	movw	r24, r18
    2b52:	08 95       	ret

Disassembly of section .text.mrpp_state_all_bodies_sent:

00002bdc <mrpp_state_all_bodies_sent>:

bool mrpp_state_all_bodies_sent(MRPP_STATE *state){
    2bdc:	9c 01       	movw	r18, r24
    bool allSent=true;

    for (uint8_t i = 0; i < state->nBodies; i++)
    2bde:	90 e0       	ldi	r25, 0x00	; 0
    }
    return bodyIndex;
}

bool mrpp_state_all_bodies_sent(MRPP_STATE *state){
    bool allSent=true;
    2be0:	81 e0       	ldi	r24, 0x01	; 1

    for (uint8_t i = 0; i < state->nBodies; i++)
    2be2:	0a c0       	rjmp	.+20     	; 0x2bf8 <mrpp_state_all_bodies_sent+0x1c>
    {
        if(state->bodies[i]!= SENT){
    2be4:	f9 01       	movw	r30, r18
    2be6:	e9 0f       	add	r30, r25
    2be8:	f1 1d       	adc	r31, r1
    2bea:	e4 58       	subi	r30, 0x84	; 132
    2bec:	ff 4f       	sbci	r31, 0xFF	; 255
    2bee:	40 81       	ld	r20, Z
    2bf0:	42 30       	cpi	r20, 0x02	; 2
    2bf2:	09 f0       	breq	.+2      	; 0x2bf6 <mrpp_state_all_bodies_sent+0x1a>
            allSent=false;
    2bf4:	80 e0       	ldi	r24, 0x00	; 0
}

bool mrpp_state_all_bodies_sent(MRPP_STATE *state){
    bool allSent=true;

    for (uint8_t i = 0; i < state->nBodies; i++)
    2bf6:	9f 5f       	subi	r25, 0xFF	; 255
    2bf8:	f9 01       	movw	r30, r18
    2bfa:	e5 58       	subi	r30, 0x85	; 133
    2bfc:	ff 4f       	sbci	r31, 0xFF	; 255
    2bfe:	40 81       	ld	r20, Z
    2c00:	94 17       	cp	r25, r20
    2c02:	80 f3       	brcs	.-32     	; 0x2be4 <mrpp_state_all_bodies_sent+0x8>
            allSent=false;
        }
    }
    return allSent;
    
}
    2c04:	08 95       	ret

Disassembly of section .text.mrpp_state_get_ready_body:

0000104c <mrpp_state_get_ready_body>:

bool mrpp_state_get_ready_body(MRPP_STATE *state, int16_t bodyIndex, uint8_t *subId, uint8_t *lastSubId, uint16_t *begin, uint8_t*length){
    104c:	8f 92       	push	r8
    104e:	9f 92       	push	r9
    1050:	af 92       	push	r10
    1052:	bf 92       	push	r11
    1054:	cf 92       	push	r12
    1056:	df 92       	push	r13
    1058:	ef 92       	push	r14
    105a:	ff 92       	push	r15
    105c:	0f 93       	push	r16
    105e:	1f 93       	push	r17
    1060:	cf 93       	push	r28
    1062:	df 93       	push	r29
    1064:	ec 01       	movw	r28, r24
    1066:	6b 01       	movw	r12, r22
    1068:	4a 01       	movw	r8, r20
    106a:	59 01       	movw	r10, r18
    int16_t res=mrpp_state_is_body_ready(state);
    106c:	0e 94 92 15 	call	0x2b24	; 0x2b24 <mrpp_state_is_body_ready>
    if(res==-1 || res!=bodyIndex ) return false;
    1070:	8f 3f       	cpi	r24, 0xFF	; 255
    1072:	2f ef       	ldi	r18, 0xFF	; 255
    1074:	92 07       	cpc	r25, r18
    1076:	09 f4       	brne	.+2      	; 0x107a <mrpp_state_get_ready_body+0x2e>
    1078:	66 c0       	rjmp	.+204    	; 0x1146 <__stack+0x47>
    107a:	8c 15       	cp	r24, r12
    107c:	9d 05       	cpc	r25, r13
    107e:	09 f0       	breq	.+2      	; 0x1082 <mrpp_state_get_ready_body+0x36>
    1080:	64 c0       	rjmp	.+200    	; 0x114a <__stack+0x4b>
    1082:	80 e0       	ldi	r24, 0x00	; 0
    1084:	09 c0       	rjmp	.+18     	; 0x1098 <mrpp_state_get_ready_body+0x4c>

    uint8_t readyIndex=0;
    for (uint8_t i = 0; i < state->nBodies; i++)
    {
        if(state->bodies[i]==READY){
    1086:	fe 01       	movw	r30, r28
    1088:	e8 0f       	add	r30, r24
    108a:	f1 1d       	adc	r31, r1
    108c:	e4 58       	subi	r30, 0x84	; 132
    108e:	ff 4f       	sbci	r31, 0xFF	; 255
    1090:	90 81       	ld	r25, Z
    1092:	91 30       	cpi	r25, 0x01	; 1
    1094:	41 f0       	breq	.+16     	; 0x10a6 <mrpp_state_get_ready_body+0x5a>
bool mrpp_state_get_ready_body(MRPP_STATE *state, int16_t bodyIndex, uint8_t *subId, uint8_t *lastSubId, uint16_t *begin, uint8_t*length){
    int16_t res=mrpp_state_is_body_ready(state);
    if(res==-1 || res!=bodyIndex ) return false;

    uint8_t readyIndex=0;
    for (uint8_t i = 0; i < state->nBodies; i++)
    1096:	8f 5f       	subi	r24, 0xFF	; 255
    1098:	fe 01       	movw	r30, r28
    109a:	e5 58       	subi	r30, 0x85	; 133
    109c:	ff 4f       	sbci	r31, 0xFF	; 255
    109e:	90 81       	ld	r25, Z
    10a0:	89 17       	cp	r24, r25
    10a2:	88 f3       	brcs	.-30     	; 0x1086 <mrpp_state_get_ready_body+0x3a>

bool mrpp_state_get_ready_body(MRPP_STATE *state, int16_t bodyIndex, uint8_t *subId, uint8_t *lastSubId, uint16_t *begin, uint8_t*length){
    int16_t res=mrpp_state_is_body_ready(state);
    if(res==-1 || res!=bodyIndex ) return false;

    uint8_t readyIndex=0;
    10a4:	80 e0       	ldi	r24, 0x00	; 0
            readyIndex=i;
            break;
        }
    }

    *subId=readyIndex+1;
    10a6:	91 e0       	ldi	r25, 0x01	; 1
    10a8:	98 0f       	add	r25, r24
    10aa:	f4 01       	movw	r30, r8
    10ac:	90 83       	st	Z, r25
    *lastSubId=state->lastSubId;
    10ae:	99 81       	ldd	r25, Y+1	; 0x01
    10b0:	f5 01       	movw	r30, r10
    10b2:	90 83       	st	Z, r25

    *begin=readyIndex*DR_BODY_PAYLOAD_SIZE;
    10b4:	90 e0       	ldi	r25, 0x00	; 0
    10b6:	40 e3       	ldi	r20, 0x30	; 48
    10b8:	48 9f       	mul	r20, r24
    10ba:	90 01       	movw	r18, r0
    10bc:	49 9f       	mul	r20, r25
    10be:	30 0d       	add	r19, r0
    10c0:	11 24       	eor	r1, r1
    10c2:	f8 01       	movw	r30, r16
    10c4:	31 83       	std	Z+1, r19	; 0x01
    10c6:	20 83       	st	Z, r18
    if(readyIndex<state->nBodies-1){
    10c8:	fe 01       	movw	r30, r28
    10ca:	e5 58       	subi	r30, 0x85	; 133
    10cc:	ff 4f       	sbci	r31, 0xFF	; 255
    10ce:	20 81       	ld	r18, Z
    10d0:	30 e0       	ldi	r19, 0x00	; 0
    10d2:	21 50       	subi	r18, 0x01	; 1
    10d4:	31 09       	sbc	r19, r1
    10d6:	82 17       	cp	r24, r18
    10d8:	93 07       	cpc	r25, r19
    10da:	2c f4       	brge	.+10     	; 0x10e6 <mrpp_state_get_ready_body+0x9a>
        *length=DR_BODY_PAYLOAD_SIZE;
    10dc:	80 e3       	ldi	r24, 0x30	; 48
    10de:	f7 01       	movw	r30, r14
    10e0:	80 83       	st	Z, r24
    }else{
        *length=(state->collections[state->nCollections-1].startIndex+state->collections[state->nCollections-1].length)%DR_BODY_PAYLOAD_SIZE; 
    } 
    return true; 
    10e2:	81 e0       	ldi	r24, 0x01	; 1
    10e4:	33 c0       	rjmp	.+102    	; 0x114c <__stack+0x4d>

    *begin=readyIndex*DR_BODY_PAYLOAD_SIZE;
    if(readyIndex<state->nBodies-1){
        *length=DR_BODY_PAYLOAD_SIZE;
    }else{
        *length=(state->collections[state->nCollections-1].startIndex+state->collections[state->nCollections-1].length)%DR_BODY_PAYLOAD_SIZE; 
    10e6:	8a 81       	ldd	r24, Y+2	; 0x02
    10e8:	90 e0       	ldi	r25, 0x00	; 0
    10ea:	01 97       	sbiw	r24, 0x01	; 1
    10ec:	9c 01       	movw	r18, r24
    10ee:	22 0f       	add	r18, r18
    10f0:	33 1f       	adc	r19, r19
    10f2:	88 0f       	add	r24, r24
    10f4:	99 1f       	adc	r25, r25
    10f6:	88 0f       	add	r24, r24
    10f8:	99 1f       	adc	r25, r25
    10fa:	88 0f       	add	r24, r24
    10fc:	99 1f       	adc	r25, r25
    10fe:	82 0f       	add	r24, r18
    1100:	93 1f       	adc	r25, r19
    1102:	c8 0f       	add	r28, r24
    1104:	d9 1f       	adc	r29, r25
    1106:	4b 81       	ldd	r20, Y+3	; 0x03
    1108:	5c 81       	ldd	r21, Y+4	; 0x04
    110a:	8d 81       	ldd	r24, Y+5	; 0x05
    110c:	9e 81       	ldd	r25, Y+6	; 0x06
    110e:	48 0f       	add	r20, r24
    1110:	59 1f       	adc	r21, r25
    1112:	9a 01       	movw	r18, r20
    1114:	ab ea       	ldi	r26, 0xAB	; 171
    1116:	ba ea       	ldi	r27, 0xAA	; 170
    1118:	0e 94 ce 16 	call	0x2d9c	; 0x2d9c <__umulhisi3>
    111c:	96 95       	lsr	r25
    111e:	87 95       	ror	r24
    1120:	92 95       	swap	r25
    1122:	82 95       	swap	r24
    1124:	8f 70       	andi	r24, 0x0F	; 15
    1126:	89 27       	eor	r24, r25
    1128:	9f 70       	andi	r25, 0x0F	; 15
    112a:	89 27       	eor	r24, r25
    112c:	60 e3       	ldi	r22, 0x30	; 48
    112e:	68 9f       	mul	r22, r24
    1130:	90 01       	movw	r18, r0
    1132:	69 9f       	mul	r22, r25
    1134:	30 0d       	add	r19, r0
    1136:	11 24       	eor	r1, r1
    1138:	ca 01       	movw	r24, r20
    113a:	82 1b       	sub	r24, r18
    113c:	93 0b       	sbc	r25, r19
    113e:	f7 01       	movw	r30, r14
    1140:	80 83       	st	Z, r24
    } 
    return true; 
    1142:	81 e0       	ldi	r24, 0x01	; 1
    1144:	03 c0       	rjmp	.+6      	; 0x114c <__stack+0x4d>
    
}

bool mrpp_state_get_ready_body(MRPP_STATE *state, int16_t bodyIndex, uint8_t *subId, uint8_t *lastSubId, uint16_t *begin, uint8_t*length){
    int16_t res=mrpp_state_is_body_ready(state);
    if(res==-1 || res!=bodyIndex ) return false;
    1146:	80 e0       	ldi	r24, 0x00	; 0
    1148:	01 c0       	rjmp	.+2      	; 0x114c <__stack+0x4d>
    114a:	80 e0       	ldi	r24, 0x00	; 0
        *length=DR_BODY_PAYLOAD_SIZE;
    }else{
        *length=(state->collections[state->nCollections-1].startIndex+state->collections[state->nCollections-1].length)%DR_BODY_PAYLOAD_SIZE; 
    } 
    return true; 
}
    114c:	df 91       	pop	r29
    114e:	cf 91       	pop	r28
    1150:	1f 91       	pop	r17
    1152:	0f 91       	pop	r16
    1154:	ff 90       	pop	r15
    1156:	ef 90       	pop	r14
    1158:	df 90       	pop	r13
    115a:	cf 90       	pop	r12
    115c:	bf 90       	pop	r11
    115e:	af 90       	pop	r10
    1160:	9f 90       	pop	r9
    1162:	8f 90       	pop	r8
    1164:	08 95       	ret

Disassembly of section .text.mrpp_state_set_body_sent:

00002d7c <mrpp_state_set_body_sent>:

void mrpp_state_set_body_sent(MRPP_STATE *state, int16_t bodyIndex){
    if(state->nBodies<=bodyIndex) return;
    2d7c:	fc 01       	movw	r30, r24
    2d7e:	e5 58       	subi	r30, 0x85	; 133
    2d80:	ff 4f       	sbci	r31, 0xFF	; 255
    2d82:	20 81       	ld	r18, Z
    2d84:	30 e0       	ldi	r19, 0x00	; 0
    2d86:	62 17       	cp	r22, r18
    2d88:	73 07       	cpc	r23, r19
    2d8a:	3c f4       	brge	.+14     	; 0x2d9a <mrpp_state_set_body_sent+0x1e>

    state->bodies[bodyIndex]=SENT;
    2d8c:	68 0f       	add	r22, r24
    2d8e:	79 1f       	adc	r23, r25
    2d90:	fb 01       	movw	r30, r22
    2d92:	e4 58       	subi	r30, 0x84	; 132
    2d94:	ff 4f       	sbci	r31, 0xFF	; 255
    2d96:	82 e0       	ldi	r24, 0x02	; 2
    2d98:	80 83       	st	Z, r24
    2d9a:	08 95       	ret

Disassembly of section .text.mrpp_state_get_collection_address:

00002856 <mrpp_state_get_collection_address>:
}


void mrpp_state_get_collection_address(MRPP_STATE *state, uint8_t collectionId, uint16_t *begin, uint16_t*length){
    *begin=state->collections[collectionId-1].startIndex;
    2856:	70 e0       	ldi	r23, 0x00	; 0
    2858:	61 50       	subi	r22, 0x01	; 1
    285a:	71 09       	sbc	r23, r1
    285c:	fb 01       	movw	r30, r22
    285e:	ee 0f       	add	r30, r30
    2860:	ff 1f       	adc	r31, r31
    2862:	66 0f       	add	r22, r22
    2864:	77 1f       	adc	r23, r23
    2866:	66 0f       	add	r22, r22
    2868:	77 1f       	adc	r23, r23
    286a:	66 0f       	add	r22, r22
    286c:	77 1f       	adc	r23, r23
    286e:	e6 0f       	add	r30, r22
    2870:	f7 1f       	adc	r31, r23
    2872:	e8 0f       	add	r30, r24
    2874:	f9 1f       	adc	r31, r25
    2876:	83 81       	ldd	r24, Z+3	; 0x03
    2878:	94 81       	ldd	r25, Z+4	; 0x04
    287a:	da 01       	movw	r26, r20
    287c:	8d 93       	st	X+, r24
    287e:	9c 93       	st	X, r25
    *length=state->collections[collectionId-1].length;
    2880:	85 81       	ldd	r24, Z+5	; 0x05
    2882:	96 81       	ldd	r25, Z+6	; 0x06
    2884:	f9 01       	movw	r30, r18
    2886:	91 83       	std	Z+1, r25	; 0x01
    2888:	80 83       	st	Z, r24
    288a:	08 95       	ret

Disassembly of section .text.RTC_set_clock_out:

0000203a <RTC_set_clock_out>:

#define RTC_ADDR 0x51

const uint8_t CMD_READ_TIME_POINTER[]={0x02};
	
RTC_STATUS RTC_set_clock_out(uint8_t freq){
    203a:	cf 93       	push	r28
    203c:	df 93       	push	r29
    203e:	00 d0       	rcall	.+0      	; 0x2040 <RTC_set_clock_out+0x6>
    2040:	cd b7       	in	r28, 0x3d	; 61
    2042:	de b7       	in	r29, 0x3e	; 62
	uint8_t CMD_SET_CLOCK_OUT[2];
	CMD_SET_CLOCK_OUT[0]=0x0D;
    2044:	9d e0       	ldi	r25, 0x0D	; 13
    2046:	99 83       	std	Y+1, r25	; 0x01
	
	switch(freq){
    2048:	81 30       	cpi	r24, 0x01	; 1
    204a:	31 f0       	breq	.+12     	; 0x2058 <RTC_set_clock_out+0x1e>
    204c:	18 f0       	brcs	.+6      	; 0x2054 <RTC_set_clock_out+0x1a>
    204e:	80 32       	cpi	r24, 0x20	; 32
    2050:	31 f0       	breq	.+12     	; 0x205e <RTC_set_clock_out+0x24>
    2052:	13 c0       	rjmp	.+38     	; 0x207a <RTC_set_clock_out+0x40>
		case 0:
			CMD_SET_CLOCK_OUT[1]=0x00;
    2054:	1a 82       	std	Y+2, r1	; 0x02
			break;
    2056:	05 c0       	rjmp	.+10     	; 0x2062 <RTC_set_clock_out+0x28>
		case 1:
			CMD_SET_CLOCK_OUT[1]=0x83;
    2058:	83 e8       	ldi	r24, 0x83	; 131
    205a:	8a 83       	std	Y+2, r24	; 0x02
			break;
    205c:	02 c0       	rjmp	.+4      	; 0x2062 <RTC_set_clock_out+0x28>
		case 32:
			CMD_SET_CLOCK_OUT[1]=0x82;
    205e:	82 e8       	ldi	r24, 0x82	; 130
    2060:	8a 83       	std	Y+2, r24	; 0x02
			break;
		default:
			return RTC_STATUS_ERROR;
	}
	
	uint8_t status=TWI_API_write_data_stop(RTC_ADDR, CMD_SET_CLOCK_OUT, 2);
    2062:	ae 01       	movw	r20, r28
    2064:	4f 5f       	subi	r20, 0xFF	; 255
    2066:	5f 4f       	sbci	r21, 0xFF	; 255
    2068:	60 e8       	ldi	r22, 0x80	; 128
    206a:	22 e0       	ldi	r18, 0x02	; 2
    206c:	81 e5       	ldi	r24, 0x51	; 81
    206e:	0e 94 e1 17 	call	0x2fc2	; 0x2fc2 <TWI_API_write_data_stop>
	if(status != TWI_CODE_SUCCESS) return RTC_STATUS_FATAL_ERROR;
    2072:	88 23       	and	r24, r24
    2074:	21 f0       	breq	.+8      	; 0x207e <RTC_set_clock_out+0x44>
    2076:	82 e0       	ldi	r24, 0x02	; 2
    2078:	03 c0       	rjmp	.+6      	; 0x2080 <RTC_set_clock_out+0x46>
			break;
		case 32:
			CMD_SET_CLOCK_OUT[1]=0x82;
			break;
		default:
			return RTC_STATUS_ERROR;
    207a:	81 e0       	ldi	r24, 0x01	; 1
    207c:	01 c0       	rjmp	.+2      	; 0x2080 <RTC_set_clock_out+0x46>
	}
	
	uint8_t status=TWI_API_write_data_stop(RTC_ADDR, CMD_SET_CLOCK_OUT, 2);
	if(status != TWI_CODE_SUCCESS) return RTC_STATUS_FATAL_ERROR;
	return RTC_STATUS_SUCCESS;
    207e:	80 e0       	ldi	r24, 0x00	; 0
}
    2080:	0f 90       	pop	r0
    2082:	0f 90       	pop	r0
    2084:	df 91       	pop	r29
    2086:	cf 91       	pop	r28
    2088:	08 95       	ret

Disassembly of section .text.RTC_clear_wake_up_interrupt:

00002996 <RTC_clear_wake_up_interrupt>:
	if(status != TWI_CODE_SUCCESS) return RTC_STATUS_FATAL_ERROR;
	
	return RTC_STATUS_SUCCESS;
}

RTC_STATUS RTC_clear_wake_up_interrupt(){
    2996:	cf 93       	push	r28
    2998:	df 93       	push	r29
    299a:	00 d0       	rcall	.+0      	; 0x299c <RTC_clear_wake_up_interrupt+0x6>
    299c:	cd b7       	in	r28, 0x3d	; 61
    299e:	de b7       	in	r29, 0x3e	; 62
	uint8_t CMD_ENABLE_RTC_CLEAR_INT[]={0x01, 0b00000000};
    29a0:	81 e0       	ldi	r24, 0x01	; 1
    29a2:	89 83       	std	Y+1, r24	; 0x01
    29a4:	1a 82       	std	Y+2, r1	; 0x02
	uint8_t status = TWI_API_write_data_stop(RTC_ADDR, CMD_ENABLE_RTC_CLEAR_INT, 2);
    29a6:	ae 01       	movw	r20, r28
    29a8:	4f 5f       	subi	r20, 0xFF	; 255
    29aa:	5f 4f       	sbci	r21, 0xFF	; 255
    29ac:	60 e8       	ldi	r22, 0x80	; 128
    29ae:	22 e0       	ldi	r18, 0x02	; 2
    29b0:	81 e5       	ldi	r24, 0x51	; 81
    29b2:	0e 94 e1 17 	call	0x2fc2	; 0x2fc2 <TWI_API_write_data_stop>
	if(status != TWI_CODE_SUCCESS) return RTC_STATUS_FATAL_ERROR;
    29b6:	88 23       	and	r24, r24
    29b8:	11 f0       	breq	.+4      	; 0x29be <RTC_clear_wake_up_interrupt+0x28>
    29ba:	82 e0       	ldi	r24, 0x02	; 2
    29bc:	01 c0       	rjmp	.+2      	; 0x29c0 <RTC_clear_wake_up_interrupt+0x2a>
	return RTC_STATUS_SUCCESS;
    29be:	80 e0       	ldi	r24, 0x00	; 0
}
    29c0:	0f 90       	pop	r0
    29c2:	0f 90       	pop	r0
    29c4:	df 91       	pop	r29
    29c6:	cf 91       	pop	r28
    29c8:	08 95       	ret

Disassembly of section .text.RTC_get_current_time:

00000f0c <RTC_get_current_time>:
	CMD_SET_ALARM_TIME[2]=decToBCD(dt.hour);
	status = TWI_API_write_data_stop(RTC_ADDR, CMD_SET_ALARM_TIME, 5);
	if(status != TWI_CODE_SUCCESS) return RTC_STATUS_FATAL_ERROR;
	
	return RTC_STATUS_SUCCESS;
}
     f0c:	0f 93       	push	r16
     f0e:	1f 93       	push	r17
     f10:	cf 93       	push	r28
     f12:	df 93       	push	r29
     f14:	cd b7       	in	r28, 0x3d	; 61
     f16:	de b7       	in	r29, 0x3e	; 62
     f18:	27 97       	sbiw	r28, 0x07	; 7
     f1a:	0f b6       	in	r0, 0x3f	; 63
     f1c:	f8 94       	cli
     f1e:	de bf       	out	0x3e, r29	; 62
     f20:	0f be       	out	0x3f, r0	; 63
     f22:	cd bf       	out	0x3d, r28	; 61
     f24:	8c 01       	movw	r16, r24
     f26:	21 e0       	ldi	r18, 0x01	; 1
     f28:	41 e1       	ldi	r20, 0x11	; 17
     f2a:	53 e0       	ldi	r21, 0x03	; 3
     f2c:	60 e0       	ldi	r22, 0x00	; 0
     f2e:	81 e5       	ldi	r24, 0x51	; 81
     f30:	0e 94 76 18 	call	0x30ec	; 0x30ec <TWI_API_write_data>
     f34:	81 11       	cpse	r24, r1
     f36:	7c c0       	rjmp	.+248    	; 0x1030 <__DATA_REGION_LENGTH__+0x30>
     f38:	47 e0       	ldi	r20, 0x07	; 7
     f3a:	be 01       	movw	r22, r28
     f3c:	6f 5f       	subi	r22, 0xFF	; 255
     f3e:	7f 4f       	sbci	r23, 0xFF	; 255
     f40:	81 e5       	ldi	r24, 0x51	; 81
     f42:	0e 94 29 16 	call	0x2c52	; 0x2c52 <TWI_API_repeat_read_data_stop>
     f46:	81 11       	cpse	r24, r1
     f48:	75 c0       	rjmp	.+234    	; 0x1034 <__DATA_REGION_LENGTH__+0x34>
     f4a:	29 81       	ldd	r18, Y+1	; 0x01
     f4c:	82 2f       	mov	r24, r18
     f4e:	8f 77       	andi	r24, 0x7F	; 127
     f50:	90 e0       	ldi	r25, 0x00	; 0
     f52:	95 95       	asr	r25
     f54:	87 95       	ror	r24
     f56:	95 95       	asr	r25
     f58:	87 95       	ror	r24
     f5a:	95 95       	asr	r25
     f5c:	87 95       	ror	r24
     f5e:	95 95       	asr	r25
     f60:	87 95       	ror	r24
     f62:	88 0f       	add	r24, r24
     f64:	98 2f       	mov	r25, r24
     f66:	99 0f       	add	r25, r25
     f68:	99 0f       	add	r25, r25
     f6a:	89 0f       	add	r24, r25
     f6c:	2f 70       	andi	r18, 0x0F	; 15
     f6e:	82 0f       	add	r24, r18
     f70:	f8 01       	movw	r30, r16
     f72:	80 83       	st	Z, r24
     f74:	2a 81       	ldd	r18, Y+2	; 0x02
     f76:	82 2f       	mov	r24, r18
     f78:	8f 77       	andi	r24, 0x7F	; 127
     f7a:	90 e0       	ldi	r25, 0x00	; 0
     f7c:	95 95       	asr	r25
     f7e:	87 95       	ror	r24
     f80:	95 95       	asr	r25
     f82:	87 95       	ror	r24
     f84:	95 95       	asr	r25
     f86:	87 95       	ror	r24
     f88:	95 95       	asr	r25
     f8a:	87 95       	ror	r24
     f8c:	88 0f       	add	r24, r24
     f8e:	98 2f       	mov	r25, r24
     f90:	99 0f       	add	r25, r25
     f92:	99 0f       	add	r25, r25
     f94:	89 0f       	add	r24, r25
     f96:	2f 70       	andi	r18, 0x0F	; 15
     f98:	82 0f       	add	r24, r18
     f9a:	81 83       	std	Z+1, r24	; 0x01
     f9c:	2b 81       	ldd	r18, Y+3	; 0x03
     f9e:	82 2f       	mov	r24, r18
     fa0:	8f 73       	andi	r24, 0x3F	; 63
     fa2:	90 e0       	ldi	r25, 0x00	; 0
     fa4:	95 95       	asr	r25
     fa6:	87 95       	ror	r24
     fa8:	95 95       	asr	r25
     faa:	87 95       	ror	r24
     fac:	95 95       	asr	r25
     fae:	87 95       	ror	r24
     fb0:	95 95       	asr	r25
     fb2:	87 95       	ror	r24
     fb4:	88 0f       	add	r24, r24
     fb6:	98 2f       	mov	r25, r24
     fb8:	99 0f       	add	r25, r25
     fba:	99 0f       	add	r25, r25
     fbc:	89 0f       	add	r24, r25
     fbe:	2f 70       	andi	r18, 0x0F	; 15
     fc0:	82 0f       	add	r24, r18
     fc2:	82 83       	std	Z+2, r24	; 0x02
     fc4:	2c 81       	ldd	r18, Y+4	; 0x04
     fc6:	82 2f       	mov	r24, r18
     fc8:	8f 73       	andi	r24, 0x3F	; 63
     fca:	90 e0       	ldi	r25, 0x00	; 0
     fcc:	95 95       	asr	r25
     fce:	87 95       	ror	r24
     fd0:	95 95       	asr	r25
     fd2:	87 95       	ror	r24
     fd4:	95 95       	asr	r25
     fd6:	87 95       	ror	r24
     fd8:	95 95       	asr	r25
     fda:	87 95       	ror	r24
     fdc:	88 0f       	add	r24, r24
     fde:	98 2f       	mov	r25, r24
     fe0:	99 0f       	add	r25, r25
     fe2:	99 0f       	add	r25, r25
     fe4:	89 0f       	add	r24, r25
     fe6:	2f 70       	andi	r18, 0x0F	; 15
     fe8:	82 0f       	add	r24, r18
     fea:	83 83       	std	Z+3, r24	; 0x03
     fec:	2e 81       	ldd	r18, Y+6	; 0x06
     fee:	82 2f       	mov	r24, r18
     ff0:	8f 71       	andi	r24, 0x1F	; 31
     ff2:	90 e0       	ldi	r25, 0x00	; 0
     ff4:	95 95       	asr	r25
     ff6:	87 95       	ror	r24
     ff8:	95 95       	asr	r25
     ffa:	87 95       	ror	r24
     ffc:	95 95       	asr	r25
     ffe:	87 95       	ror	r24
    1000:	95 95       	asr	r25
    1002:	87 95       	ror	r24
    1004:	88 0f       	add	r24, r24
    1006:	98 2f       	mov	r25, r24
    1008:	99 0f       	add	r25, r25
    100a:	99 0f       	add	r25, r25
    100c:	89 0f       	add	r24, r25
    100e:	2f 70       	andi	r18, 0x0F	; 15
    1010:	82 0f       	add	r24, r18
    1012:	84 83       	std	Z+4, r24	; 0x04
    1014:	8f 81       	ldd	r24, Y+7	; 0x07
    1016:	98 2f       	mov	r25, r24
    1018:	92 95       	swap	r25
    101a:	9f 70       	andi	r25, 0x0F	; 15
    101c:	99 0f       	add	r25, r25
    101e:	29 2f       	mov	r18, r25
    1020:	22 0f       	add	r18, r18
    1022:	22 0f       	add	r18, r18
    1024:	92 0f       	add	r25, r18
    1026:	8f 70       	andi	r24, 0x0F	; 15
    1028:	89 0f       	add	r24, r25
    102a:	85 83       	std	Z+5, r24	; 0x05
    102c:	80 e0       	ldi	r24, 0x00	; 0
    102e:	03 c0       	rjmp	.+6      	; 0x1036 <__DATA_REGION_LENGTH__+0x36>
    1030:	82 e0       	ldi	r24, 0x02	; 2
    1032:	01 c0       	rjmp	.+2      	; 0x1036 <__DATA_REGION_LENGTH__+0x36>
    1034:	82 e0       	ldi	r24, 0x02	; 2
    1036:	27 96       	adiw	r28, 0x07	; 7
    1038:	0f b6       	in	r0, 0x3f	; 63
    103a:	f8 94       	cli
    103c:	de bf       	out	0x3e, r29	; 62
    103e:	0f be       	out	0x3f, r0	; 63
    1040:	cd bf       	out	0x3d, r28	; 61
    1042:	df 91       	pop	r29
    1044:	cf 91       	pop	r28
    1046:	1f 91       	pop	r17
    1048:	0f 91       	pop	r16
    104a:	08 95       	ret

Disassembly of section .text.RTC_set_wake_up_interrupt_minutes:

00001336 <RTC_set_wake_up_interrupt_minutes>:

RTC_STATUS RTC_set_wake_up_interrupt_minutes(uint8_t minutes){
    1336:	1f 93       	push	r17
    1338:	cf 93       	push	r28
    133a:	df 93       	push	r29
    133c:	cd b7       	in	r28, 0x3d	; 61
    133e:	de b7       	in	r29, 0x3e	; 62
    1340:	2d 97       	sbiw	r28, 0x0d	; 13
    1342:	0f b6       	in	r0, 0x3f	; 63
    1344:	f8 94       	cli
    1346:	de bf       	out	0x3e, r29	; 62
    1348:	0f be       	out	0x3f, r0	; 63
    134a:	cd bf       	out	0x3d, r28	; 61
    134c:	18 2f       	mov	r17, r24
	uint8_t CMD_ENABLE_RTC_INT[]={0x01, 0b00000010};
    134e:	81 e0       	ldi	r24, 0x01	; 1
    1350:	89 83       	std	Y+1, r24	; 0x01
    1352:	82 e0       	ldi	r24, 0x02	; 2
    1354:	8a 83       	std	Y+2, r24	; 0x02
	uint8_t CMD_SET_ALARM_TIME[]={0x09, 0x80, 0x80, 0x80, 0x80};
    1356:	85 e0       	ldi	r24, 0x05	; 5
    1358:	e6 e1       	ldi	r30, 0x16	; 22
    135a:	f9 e0       	ldi	r31, 0x09	; 9
    135c:	de 01       	movw	r26, r28
    135e:	13 96       	adiw	r26, 0x03	; 3
    1360:	01 90       	ld	r0, Z+
    1362:	0d 92       	st	X+, r0
    1364:	8a 95       	dec	r24
    1366:	e1 f7       	brne	.-8      	; 0x1360 <RTC_set_wake_up_interrupt_minutes+0x2a>
	
	//Read time
	Datetime dt;
	RTC_get_current_time(&dt);
    1368:	ce 01       	movw	r24, r28
    136a:	08 96       	adiw	r24, 0x08	; 8
    136c:	0e 94 86 07 	call	0xf0c	; 0xf0c <RTC_get_current_time>
	
	//add hours
	dt.minute += minutes;
    1370:	89 85       	ldd	r24, Y+9	; 0x09
    1372:	81 0f       	add	r24, r17
	dt.minute %= 60;
    1374:	99 e8       	ldi	r25, 0x89	; 137
    1376:	89 9f       	mul	r24, r25
    1378:	91 2d       	mov	r25, r1
    137a:	11 24       	eor	r1, r1
    137c:	92 95       	swap	r25
    137e:	96 95       	lsr	r25
    1380:	97 70       	andi	r25, 0x07	; 7
    1382:	2c e3       	ldi	r18, 0x3C	; 60
    1384:	92 9f       	mul	r25, r18
    1386:	80 19       	sub	r24, r0
    1388:	11 24       	eor	r1, r1
    138a:	89 87       	std	Y+9, r24	; 0x09
	
	//Enable int
	uint8_t status = TWI_API_write_data_stop(RTC_ADDR, CMD_ENABLE_RTC_INT, 2);
    138c:	ae 01       	movw	r20, r28
    138e:	4f 5f       	subi	r20, 0xFF	; 255
    1390:	5f 4f       	sbci	r21, 0xFF	; 255
    1392:	60 e8       	ldi	r22, 0x80	; 128
    1394:	22 e0       	ldi	r18, 0x02	; 2
    1396:	81 e5       	ldi	r24, 0x51	; 81
    1398:	0e 94 e1 17 	call	0x2fc2	; 0x2fc2 <TWI_API_write_data_stop>
	if(status != TWI_CODE_SUCCESS) return RTC_STATUS_FATAL_ERROR;
    139c:	81 11       	cpse	r24, r1
    139e:	20 c0       	rjmp	.+64     	; 0x13e0 <RTC_set_wake_up_interrupt_minutes+0xaa>
	
	//Set time
	CMD_SET_ALARM_TIME[1]=decToBCD(dt.minute);
    13a0:	99 85       	ldd	r25, Y+9	; 0x09
    13a2:	8d ec       	ldi	r24, 0xCD	; 205
    13a4:	98 9f       	mul	r25, r24
    13a6:	81 2d       	mov	r24, r1
    13a8:	11 24       	eor	r1, r1
    13aa:	86 95       	lsr	r24
    13ac:	86 95       	lsr	r24
    13ae:	86 95       	lsr	r24
    13b0:	40 e1       	ldi	r20, 0x10	; 16
    13b2:	84 9f       	mul	r24, r20
    13b4:	90 01       	movw	r18, r0
    13b6:	11 24       	eor	r1, r1
    13b8:	88 0f       	add	r24, r24
    13ba:	38 2f       	mov	r19, r24
    13bc:	33 0f       	add	r19, r19
    13be:	33 0f       	add	r19, r19
    13c0:	83 0f       	add	r24, r19
    13c2:	98 1b       	sub	r25, r24
    13c4:	92 2b       	or	r25, r18
    13c6:	9c 83       	std	Y+4, r25	; 0x04
	status = TWI_API_write_data_stop(RTC_ADDR, CMD_SET_ALARM_TIME, 5);
    13c8:	ae 01       	movw	r20, r28
    13ca:	4d 5f       	subi	r20, 0xFD	; 253
    13cc:	5f 4f       	sbci	r21, 0xFF	; 255
    13ce:	60 e8       	ldi	r22, 0x80	; 128
    13d0:	25 e0       	ldi	r18, 0x05	; 5
    13d2:	81 e5       	ldi	r24, 0x51	; 81
    13d4:	0e 94 e1 17 	call	0x2fc2	; 0x2fc2 <TWI_API_write_data_stop>
	if(status != TWI_CODE_SUCCESS) return RTC_STATUS_FATAL_ERROR;
    13d8:	88 23       	and	r24, r24
    13da:	21 f0       	breq	.+8      	; 0x13e4 <RTC_set_wake_up_interrupt_minutes+0xae>
    13dc:	82 e0       	ldi	r24, 0x02	; 2
    13de:	03 c0       	rjmp	.+6      	; 0x13e6 <RTC_set_wake_up_interrupt_minutes+0xb0>
	dt.minute += minutes;
	dt.minute %= 60;
	
	//Enable int
	uint8_t status = TWI_API_write_data_stop(RTC_ADDR, CMD_ENABLE_RTC_INT, 2);
	if(status != TWI_CODE_SUCCESS) return RTC_STATUS_FATAL_ERROR;
    13e0:	82 e0       	ldi	r24, 0x02	; 2
    13e2:	01 c0       	rjmp	.+2      	; 0x13e6 <RTC_set_wake_up_interrupt_minutes+0xb0>
	//Set time
	CMD_SET_ALARM_TIME[1]=decToBCD(dt.minute);
	status = TWI_API_write_data_stop(RTC_ADDR, CMD_SET_ALARM_TIME, 5);
	if(status != TWI_CODE_SUCCESS) return RTC_STATUS_FATAL_ERROR;
	
	return RTC_STATUS_SUCCESS;
    13e4:	80 e0       	ldi	r24, 0x00	; 0
}
    13e6:	2d 96       	adiw	r28, 0x0d	; 13
    13e8:	0f b6       	in	r0, 0x3f	; 63
    13ea:	f8 94       	cli
    13ec:	de bf       	out	0x3e, r29	; 62
    13ee:	0f be       	out	0x3f, r0	; 63
    13f0:	cd bf       	out	0x3d, r28	; 61
    13f2:	df 91       	pop	r29
    13f4:	cf 91       	pop	r28
    13f6:	1f 91       	pop	r17
    13f8:	08 95       	ret

Disassembly of section .text.bytes_2_uint:

00002e64 <bytes_2_uint>:
	if(data[5]!=crc) return false;
	
	return true;
}

static uint16_t bytes_2_uint(uint8_t data[]){
    2e64:	fc 01       	movw	r30, r24
	f.bytes[3]=data[0];
	f.bytes[2]=data[1];
	f.bytes[1]=data[3];
	f.bytes[0]=data[4];
	
	return (uint16_t) f.f;
    2e66:	54 81       	ldd	r21, Z+4	; 0x04
    2e68:	43 81       	ldd	r20, Z+3	; 0x03
    2e6a:	31 81       	ldd	r19, Z+1	; 0x01
    2e6c:	20 81       	ld	r18, Z
    2e6e:	65 2f       	mov	r22, r21
    2e70:	74 2f       	mov	r23, r20
    2e72:	83 2f       	mov	r24, r19
    2e74:	92 2f       	mov	r25, r18
    2e76:	0e 94 42 0f 	call	0x1e84	; 0x1e84 <__fixunssfsi>
}
    2e7a:	cb 01       	movw	r24, r22
    2e7c:	08 95       	ret

Disassembly of section .text.init_measurement:

000027e6 <init_measurement>:

static SCD30_STATUS init_measurement(){
	SCD30_STATUS status;
	status=TWI_API_write_data_stop(SCD30_ADDR,  SET_MEASUREMENT_INTERVAL, 5);
    27e6:	25 e0       	ldi	r18, 0x05	; 5
    27e8:	42 e0       	ldi	r20, 0x02	; 2
    27ea:	53 e0       	ldi	r21, 0x03	; 3
    27ec:	60 e0       	ldi	r22, 0x00	; 0
    27ee:	81 e6       	ldi	r24, 0x61	; 97
    27f0:	0e 94 e1 17 	call	0x2fc2	; 0x2fc2 <TWI_API_write_data_stop>
	if(status != TWI_CODE_SUCCESS) return SCD30_STATUS_FATAL_ERROR;
    27f4:	81 11       	cpse	r24, r1
    27f6:	0f c0       	rjmp	.+30     	; 0x2816 <init_measurement+0x30>
	
	status=TWI_API_write_data_stop(SCD30_ADDR,  TRIGGER_CONT_MEASUREMENT, 5);
    27f8:	25 e0       	ldi	r18, 0x05	; 5
    27fa:	47 e0       	ldi	r20, 0x07	; 7
    27fc:	53 e0       	ldi	r21, 0x03	; 3
    27fe:	60 e0       	ldi	r22, 0x00	; 0
    2800:	81 e6       	ldi	r24, 0x61	; 97
    2802:	0e 94 e1 17 	call	0x2fc2	; 0x2fc2 <TWI_API_write_data_stop>
	if(status != TWI_CODE_SUCCESS) return SCD30_STATUS_FATAL_ERROR;
    2806:	81 11       	cpse	r24, r1
    2808:	08 c0       	rjmp	.+16     	; 0x281a <init_measurement+0x34>
	
	//Wait for data_ready pin to go high
	while(!SCD30_HAL_data_ready()){};
    280a:	0e 94 4c 18 	call	0x3098	; 0x3098 <SCD30_HAL_data_ready>
    280e:	88 23       	and	r24, r24
    2810:	e1 f3       	breq	.-8      	; 0x280a <init_measurement+0x24>
	
	return SCD30_STATUS_SUCCESS;
    2812:	80 e0       	ldi	r24, 0x00	; 0
    2814:	08 95       	ret
}

static SCD30_STATUS init_measurement(){
	SCD30_STATUS status;
	status=TWI_API_write_data_stop(SCD30_ADDR,  SET_MEASUREMENT_INTERVAL, 5);
	if(status != TWI_CODE_SUCCESS) return SCD30_STATUS_FATAL_ERROR;
    2816:	82 e0       	ldi	r24, 0x02	; 2
    2818:	08 95       	ret
	
	status=TWI_API_write_data_stop(SCD30_ADDR,  TRIGGER_CONT_MEASUREMENT, 5);
	if(status != TWI_CODE_SUCCESS) return SCD30_STATUS_FATAL_ERROR;
    281a:	82 e0       	ldi	r24, 0x02	; 2
	
	//Wait for data_ready pin to go high
	while(!SCD30_HAL_data_ready()){};
	
	return SCD30_STATUS_SUCCESS;
}
    281c:	08 95       	ret

Disassembly of section .text.validate_data:

00002a60 <validate_data>:

/************************************************************************/
/* Local functions                                                      */
/************************************************************************/

static bool validate_data(uint8_t data[]){
    2a60:	cf 93       	push	r28
    2a62:	df 93       	push	r29
    2a64:	ec 01       	movw	r28, r24
	uint8_t crc=calc_crc8(data, 2);
    2a66:	62 e0       	ldi	r22, 0x02	; 2
    2a68:	0e 94 46 14 	call	0x288c	; 0x288c <calc_crc8>
	if(data[2]!=crc) return false;
    2a6c:	9a 81       	ldd	r25, Y+2	; 0x02
    2a6e:	89 13       	cpse	r24, r25
    2a70:	0a c0       	rjmp	.+20     	; 0x2a86 <validate_data+0x26>
	
	crc=calc_crc8(&data[3], 2);
    2a72:	62 e0       	ldi	r22, 0x02	; 2
    2a74:	ce 01       	movw	r24, r28
    2a76:	03 96       	adiw	r24, 0x03	; 3
    2a78:	0e 94 46 14 	call	0x288c	; 0x288c <calc_crc8>
	if(data[5]!=crc) return false;
    2a7c:	9d 81       	ldd	r25, Y+5	; 0x05
    2a7e:	89 17       	cp	r24, r25
    2a80:	21 f0       	breq	.+8      	; 0x2a8a <validate_data+0x2a>
    2a82:	80 e0       	ldi	r24, 0x00	; 0
    2a84:	03 c0       	rjmp	.+6      	; 0x2a8c <validate_data+0x2c>
/* Local functions                                                      */
/************************************************************************/

static bool validate_data(uint8_t data[]){
	uint8_t crc=calc_crc8(data, 2);
	if(data[2]!=crc) return false;
    2a86:	80 e0       	ldi	r24, 0x00	; 0
    2a88:	01 c0       	rjmp	.+2      	; 0x2a8c <validate_data+0x2c>
	
	crc=calc_crc8(&data[3], 2);
	if(data[5]!=crc) return false;
	
	return true;
    2a8a:	81 e0       	ldi	r24, 0x01	; 1
}
    2a8c:	df 91       	pop	r29
    2a8e:	cf 91       	pop	r28
    2a90:	08 95       	ret

Disassembly of section .text.read_value:

000016a8 <read_value>:
	while(!SCD30_HAL_data_ready()){};
	
	return SCD30_STATUS_SUCCESS;
}

static SCD30_STATUS read_value(uint16_t *value){
    16a8:	0f 93       	push	r16
    16aa:	1f 93       	push	r17
    16ac:	cf 93       	push	r28
    16ae:	df 93       	push	r29
    16b0:	00 d0       	rcall	.+0      	; 0x16b2 <read_value+0xa>
    16b2:	00 d0       	rcall	.+0      	; 0x16b4 <read_value+0xc>
    16b4:	00 d0       	rcall	.+0      	; 0x16b6 <read_value+0xe>
    16b6:	cd b7       	in	r28, 0x3d	; 61
    16b8:	de b7       	in	r29, 0x3e	; 62
    16ba:	8c 01       	movw	r16, r24
	uint8_t status;
	uint8_t data[6];
	*value=0xffff;
    16bc:	8f ef       	ldi	r24, 0xFF	; 255
    16be:	9f ef       	ldi	r25, 0xFF	; 255
    16c0:	f8 01       	movw	r30, r16
    16c2:	91 83       	std	Z+1, r25	; 0x01
    16c4:	80 83       	st	Z, r24

	if(!SCD30_HAL_data_ready()){
    16c6:	0e 94 4c 18 	call	0x3098	; 0x3098 <SCD30_HAL_data_ready>
    16ca:	81 11       	cpse	r24, r1
    16cc:	07 c0       	rjmp	.+14     	; 0x16dc <read_value+0x34>
		*value=0xfffe;
    16ce:	8e ef       	ldi	r24, 0xFE	; 254
    16d0:	9f ef       	ldi	r25, 0xFF	; 255
    16d2:	f8 01       	movw	r30, r16
    16d4:	91 83       	std	Z+1, r25	; 0x01
    16d6:	80 83       	st	Z, r24
		return SCD30_STATUS_TRY_AGAIN;
    16d8:	83 e0       	ldi	r24, 0x03	; 3
    16da:	2c c0       	rjmp	.+88     	; 0x1734 <read_value+0x8c>
	}
	
	
	status=TWI_API_write_data_stop(SCD30_ADDR,   READ_DATA_CMD, 2);
    16dc:	22 e0       	ldi	r18, 0x02	; 2
    16de:	4f e0       	ldi	r20, 0x0F	; 15
    16e0:	53 e0       	ldi	r21, 0x03	; 3
    16e2:	60 e0       	ldi	r22, 0x00	; 0
    16e4:	81 e6       	ldi	r24, 0x61	; 97
    16e6:	0e 94 e1 17 	call	0x2fc2	; 0x2fc2 <TWI_API_write_data_stop>
	if(status != TWI_CODE_SUCCESS) return SCD30_STATUS_ERROR;
    16ea:	81 11       	cpse	r24, r1
    16ec:	1e c0       	rjmp	.+60     	; 0x172a <read_value+0x82>
    16ee:	8f e3       	ldi	r24, 0x3F	; 63
    16f0:	9f e1       	ldi	r25, 0x1F	; 31
    16f2:	01 97       	sbiw	r24, 0x01	; 1
    16f4:	f1 f7       	brne	.-4      	; 0x16f2 <read_value+0x4a>
    16f6:	00 c0       	rjmp	.+0      	; 0x16f8 <read_value+0x50>
    16f8:	00 00       	nop
	
	_delay_ms(4);
	
	status=TWI_API_read_data_ack_end_nack_stop(SCD30_ADDR, data, 6);
    16fa:	46 e0       	ldi	r20, 0x06	; 6
    16fc:	be 01       	movw	r22, r28
    16fe:	6f 5f       	subi	r22, 0xFF	; 255
    1700:	7f 4f       	sbci	r23, 0xFF	; 255
    1702:	81 e6       	ldi	r24, 0x61	; 97
    1704:	0e 94 17 16 	call	0x2c2e	; 0x2c2e <TWI_API_read_data_ack_end_nack_stop>
	if(status != TWI_CODE_SUCCESS) return SCD30_STATUS_ERROR;
    1708:	81 11       	cpse	r24, r1
    170a:	11 c0       	rjmp	.+34     	; 0x172e <read_value+0x86>
	
	if(!validate_data(data)) return SCD30_STATUS_ERROR;
    170c:	ce 01       	movw	r24, r28
    170e:	01 96       	adiw	r24, 0x01	; 1
    1710:	0e 94 30 15 	call	0x2a60	; 0x2a60 <validate_data>
    1714:	88 23       	and	r24, r24
    1716:	69 f0       	breq	.+26     	; 0x1732 <read_value+0x8a>
	
	*value=bytes_2_uint(data);
    1718:	ce 01       	movw	r24, r28
    171a:	01 96       	adiw	r24, 0x01	; 1
    171c:	0e 94 32 17 	call	0x2e64	; 0x2e64 <bytes_2_uint>
    1720:	f8 01       	movw	r30, r16
    1722:	91 83       	std	Z+1, r25	; 0x01
    1724:	80 83       	st	Z, r24
	
	return SCD30_STATUS_SUCCESS;
    1726:	80 e0       	ldi	r24, 0x00	; 0
    1728:	05 c0       	rjmp	.+10     	; 0x1734 <read_value+0x8c>
		return SCD30_STATUS_TRY_AGAIN;
	}
	
	
	status=TWI_API_write_data_stop(SCD30_ADDR,   READ_DATA_CMD, 2);
	if(status != TWI_CODE_SUCCESS) return SCD30_STATUS_ERROR;
    172a:	81 e0       	ldi	r24, 0x01	; 1
    172c:	03 c0       	rjmp	.+6      	; 0x1734 <read_value+0x8c>
	
	_delay_ms(4);
	
	status=TWI_API_read_data_ack_end_nack_stop(SCD30_ADDR, data, 6);
	if(status != TWI_CODE_SUCCESS) return SCD30_STATUS_ERROR;
    172e:	81 e0       	ldi	r24, 0x01	; 1
    1730:	01 c0       	rjmp	.+2      	; 0x1734 <read_value+0x8c>
	
	if(!validate_data(data)) return SCD30_STATUS_ERROR;
    1732:	81 e0       	ldi	r24, 0x01	; 1
	
	*value=bytes_2_uint(data);
	
	return SCD30_STATUS_SUCCESS;
}
    1734:	26 96       	adiw	r28, 0x06	; 6
    1736:	0f b6       	in	r0, 0x3f	; 63
    1738:	f8 94       	cli
    173a:	de bf       	out	0x3e, r29	; 62
    173c:	0f be       	out	0x3f, r0	; 63
    173e:	cd bf       	out	0x3d, r28	; 61
    1740:	df 91       	pop	r29
    1742:	cf 91       	pop	r28
    1744:	1f 91       	pop	r17
    1746:	0f 91       	pop	r16
    1748:	08 95       	ret

Disassembly of section .text.vect_SCD_do_sample:

0000249e <vect_SCD_do_sample>:

/************************************************************************/
/* Interrupts                                                           */
/************************************************************************/
static void vect_SCD_do_sample(){
	read_value(&(_data[cntSamples++]));
    249e:	80 91 2e 02 	lds	r24, 0x022E	; 0x80022e <_data>
    24a2:	90 91 2f 02 	lds	r25, 0x022F	; 0x80022f <_data+0x1>
    24a6:	20 91 2c 02 	lds	r18, 0x022C	; 0x80022c <cntSamples>
    24aa:	30 91 2d 02 	lds	r19, 0x022D	; 0x80022d <cntSamples+0x1>
    24ae:	a9 01       	movw	r20, r18
    24b0:	4f 5f       	subi	r20, 0xFF	; 255
    24b2:	5f 4f       	sbci	r21, 0xFF	; 255
    24b4:	50 93 2d 02 	sts	0x022D, r21	; 0x80022d <cntSamples+0x1>
    24b8:	40 93 2c 02 	sts	0x022C, r20	; 0x80022c <cntSamples>
    24bc:	22 0f       	add	r18, r18
    24be:	33 1f       	adc	r19, r19
    24c0:	82 0f       	add	r24, r18
    24c2:	93 1f       	adc	r25, r19
    24c4:	0e 94 54 0b 	call	0x16a8	; 0x16a8 <read_value>
	if(cntSamples>=_nSamples){
    24c8:	20 91 2c 02 	lds	r18, 0x022C	; 0x80022c <cntSamples>
    24cc:	30 91 2d 02 	lds	r19, 0x022D	; 0x80022d <cntSamples+0x1>
    24d0:	80 91 30 02 	lds	r24, 0x0230	; 0x800230 <_nSamples>
    24d4:	90 91 31 02 	lds	r25, 0x0231	; 0x800231 <_nSamples+0x1>
    24d8:	28 17       	cp	r18, r24
    24da:	39 07       	cpc	r19, r25
    24dc:	10 f0       	brcs	.+4      	; 0x24e2 <vect_SCD_do_sample+0x44>
		TC1_HAL_stop();
    24de:	0e 94 28 18 	call	0x3050	; 0x3050 <TC1_HAL_stop>
    24e2:	08 95       	ret

Disassembly of section .text.SCD30_init_sampling:

00002174 <SCD30_init_sampling>:
static SCD30_STATUS read_value(uint16_t *value);
static SCD30_STATUS init_measurement();



SCD30_STATUS SCD30_init_sampling(uint16_t samplingInterval, uint16_t nSamples, uint16_t data[]){
    2174:	cf 93       	push	r28
    2176:	df 93       	push	r29
    2178:	ec 01       	movw	r28, r24
	_nSamples=nSamples;
    217a:	70 93 31 02 	sts	0x0231, r23	; 0x800231 <_nSamples+0x1>
    217e:	60 93 30 02 	sts	0x0230, r22	; 0x800230 <_nSamples>
	cntSamples=0;
    2182:	10 92 2d 02 	sts	0x022D, r1	; 0x80022d <cntSamples+0x1>
    2186:	10 92 2c 02 	sts	0x022C, r1	; 0x80022c <cntSamples>
	_data=data;
    218a:	50 93 2f 02 	sts	0x022F, r21	; 0x80022f <_data+0x1>
    218e:	40 93 2e 02 	sts	0x022E, r20	; 0x80022e <_data>
	
	//Init
	SCD30_HAL_init();
    2192:	0e 94 0d 18 	call	0x301a	; 0x301a <SCD30_HAL_init>
	TC1_HAL_init(samplingInterval, &vect_SCD_do_sample);
    2196:	6f e4       	ldi	r22, 0x4F	; 79
    2198:	72 e1       	ldi	r23, 0x12	; 18
    219a:	ce 01       	movw	r24, r28
    219c:	0e 94 97 14 	call	0x292e	; 0x292e <TC1_HAL_init>
	PM_HAL_SCD30_power(true);
    21a0:	81 e0       	ldi	r24, 0x01	; 1
    21a2:	0e 94 9d 17 	call	0x2f3a	; 0x2f3a <PM_HAL_SCD30_power>
    21a6:	2f ef       	ldi	r18, 0xFF	; 255
    21a8:	83 ed       	ldi	r24, 0xD3	; 211
    21aa:	90 e3       	ldi	r25, 0x30	; 48
    21ac:	21 50       	subi	r18, 0x01	; 1
    21ae:	80 40       	sbci	r24, 0x00	; 0
    21b0:	90 40       	sbci	r25, 0x00	; 0
    21b2:	e1 f7       	brne	.-8      	; 0x21ac <SCD30_init_sampling+0x38>
    21b4:	00 c0       	rjmp	.+0      	; 0x21b6 <SCD30_init_sampling+0x42>
    21b6:	00 00       	nop
	_delay_ms(2000);
	
	return init_measurement();
    21b8:	0e 94 f3 13 	call	0x27e6	; 0x27e6 <init_measurement>
}
    21bc:	df 91       	pop	r29
    21be:	cf 91       	pop	r28
    21c0:	08 95       	ret

Disassembly of section .text.SCD30_deinit:

00002f8a <SCD30_deinit>:

void SCD30_deinit(){
	TC1_HAL_stop();
    2f8a:	0e 94 28 18 	call	0x3050	; 0x3050 <TC1_HAL_stop>
	PM_HAL_SCD30_power(false);
    2f8e:	80 e0       	ldi	r24, 0x00	; 0
    2f90:	0e 94 9d 17 	call	0x2f3a	; 0x2f3a <PM_HAL_SCD30_power>
	_data=NULL;
    2f94:	10 92 2f 02 	sts	0x022F, r1	; 0x80022f <_data+0x1>
    2f98:	10 92 2e 02 	sts	0x022E, r1	; 0x80022e <_data>
    2f9c:	08 95       	ret

Disassembly of section .text.SCD30_start_sampling:

00003080 <SCD30_start_sampling>:
	
}

SCD30_STATUS SCD30_start_sampling(){
	vect_SCD_do_sample();
    3080:	0e 94 4f 12 	call	0x249e	; 0x249e <vect_SCD_do_sample>
	TC1_HAL_start();
    3084:	0e 94 22 18 	call	0x3044	; 0x3044 <TC1_HAL_start>
	return SCD30_STATUS_SUCCESS;
}
    3088:	80 e0       	ldi	r24, 0x00	; 0
    308a:	08 95       	ret

Disassembly of section .text.SCD30_is_sampling_done:

00002e2c <SCD30_is_sampling_done>:

bool SCD30_is_sampling_done(){
	return cntSamples>=_nSamples;
    2e2c:	40 91 2c 02 	lds	r20, 0x022C	; 0x80022c <cntSamples>
    2e30:	50 91 2d 02 	lds	r21, 0x022D	; 0x80022d <cntSamples+0x1>
    2e34:	20 91 30 02 	lds	r18, 0x0230	; 0x800230 <_nSamples>
    2e38:	30 91 31 02 	lds	r19, 0x0231	; 0x800231 <_nSamples+0x1>
    2e3c:	81 e0       	ldi	r24, 0x01	; 1
    2e3e:	42 17       	cp	r20, r18
    2e40:	53 07       	cpc	r21, r19
    2e42:	08 f4       	brcc	.+2      	; 0x2e46 <SCD30_is_sampling_done+0x1a>
    2e44:	80 e0       	ldi	r24, 0x00	; 0
}
    2e46:	08 95       	ret

Disassembly of section .text.decode_stage_response:

00002f10 <decode_stage_response>:
}
/************************************************************************/
/* Helper functions                                                     */
/************************************************************************/
static MAINPG_STATES decode_stage_response(STAGE_STATUS status, MAINPG_STATES onDone){
	switch(status){
    2f10:	88 23       	and	r24, r24
    2f12:	19 f0       	breq	.+6      	; 0x2f1a <decode_stage_response+0xa>
    2f14:	81 30       	cpi	r24, 0x01	; 1
    2f16:	29 f0       	breq	.+10     	; 0x2f22 <decode_stage_response+0x12>
    2f18:	02 c0       	rjmp	.+4      	; 0x2f1e <decode_stage_response+0xe>
		case STAGE_RUNNING:
			return MAINPG_SEND_DATA;
    2f1a:	8a e0       	ldi	r24, 0x0A	; 10
    2f1c:	08 95       	ret
		
		case STAGE_DONE:
			return onDone;
			
		default:
			return MAINPG_FATAL_ERROR;
    2f1e:	80 e1       	ldi	r24, 0x10	; 16
    2f20:	08 95       	ret
	switch(status){
		case STAGE_RUNNING:
			return MAINPG_SEND_DATA;
		
		case STAGE_DONE:
			return onDone;
    2f22:	86 2f       	mov	r24, r22
			
		default:
			return MAINPG_FATAL_ERROR;
	}
}
    2f24:	08 95       	ret

Disassembly of section .text.decode_join_response:

00002e48 <decode_join_response>:
	
	return LM_join_network(deveui, appeui, appkey);
}

static MAINPG_STATES decode_join_response(LM_STATUS status){
	switch(status){
    2e48:	83 30       	cpi	r24, 0x03	; 3
    2e4a:	51 f0       	breq	.+20     	; 0x2e60 <decode_join_response+0x18>
    2e4c:	84 30       	cpi	r24, 0x04	; 4
    2e4e:	21 f0       	breq	.+8      	; 0x2e58 <decode_join_response+0x10>
    2e50:	81 11       	cpse	r24, r1
    2e52:	04 c0       	rjmp	.+8      	; 0x2e5c <decode_join_response+0x14>
		case LM_STATUS_SUCCESS:
			return MAINPG_INIT_RTC;
    2e54:	85 e0       	ldi	r24, 0x05	; 5
    2e56:	08 95       	ret
		case LM_STATUS_TRY_AGAIN:
			return MAINPG_LORA_JOIN_TRY_AGAIN;
		case LM_STATUS_CONF_ERR:
			return MAINPG_LORA_JOIN_CONF_ERR;
    2e58:	83 e0       	ldi	r24, 0x03	; 3
    2e5a:	08 95       	ret
		default:
			return MAINPG_FATAL_ERROR;		
    2e5c:	80 e1       	ldi	r24, 0x10	; 16
    2e5e:	08 95       	ret
static MAINPG_STATES decode_join_response(LM_STATUS status){
	switch(status){
		case LM_STATUS_SUCCESS:
			return MAINPG_INIT_RTC;
		case LM_STATUS_TRY_AGAIN:
			return MAINPG_LORA_JOIN_TRY_AGAIN;
    2e60:	82 e0       	ldi	r24, 0x02	; 2
		case LM_STATUS_CONF_ERR:
			return MAINPG_LORA_JOIN_CONF_ERR;
		default:
			return MAINPG_FATAL_ERROR;		
	}	
}
    2e62:	08 95       	ret

Disassembly of section .text.decode_header_tail_response:

00002ee0 <decode_header_tail_response>:
	MRPP_get_tail_package(package, &package_length);
	return LM_send_uplink(package, package_length);
}

static MAINPG_STATES decode_header_tail_response(LM_STATUS status, MAINPG_STATES success, MAINPG_STATES tryAgain){
	switch(status){
    2ee0:	83 30       	cpi	r24, 0x03	; 3
    2ee2:	31 f0       	breq	.+12     	; 0x2ef0 <decode_header_tail_response+0x10>
    2ee4:	85 30       	cpi	r24, 0x05	; 5
    2ee6:	31 f0       	breq	.+12     	; 0x2ef4 <decode_header_tail_response+0x14>
    2ee8:	88 23       	and	r24, r24
    2eea:	21 f0       	breq	.+8      	; 0x2ef4 <decode_header_tail_response+0x14>
			
		case LM_STATUS_TRY_AGAIN:
			return tryAgain;
			
		default:
			return MAINPG_FATAL_ERROR;
    2eec:	80 e1       	ldi	r24, 0x10	; 16
    2eee:	08 95       	ret
		case LM_STATUS_SUCCESS:
		case LM_STATUS_MAC_ERR:
			return success;
			
		case LM_STATUS_TRY_AGAIN:
			return tryAgain;
    2ef0:	84 2f       	mov	r24, r20
    2ef2:	08 95       	ret

static MAINPG_STATES decode_header_tail_response(LM_STATUS status, MAINPG_STATES success, MAINPG_STATES tryAgain){
	switch(status){
		case LM_STATUS_SUCCESS:
		case LM_STATUS_MAC_ERR:
			return success;
    2ef4:	86 2f       	mov	r24, r22
			return tryAgain;
			
		default:
			return MAINPG_FATAL_ERROR;
	}
}
    2ef6:	08 95       	ret

Disassembly of section .text.join_lora:

00001aae <join_lora>:
	//uint8_t samplingProcessInterval=1;
	//return RTC_set_wake_up_interrupt(samplingProcessInterval);
	return RTC_set_wake_up_interrupt_minutes(4);
}

static LM_STATUS join_lora(){
    1aae:	cf 93       	push	r28
    1ab0:	df 93       	push	r29
    1ab2:	cd b7       	in	r28, 0x3d	; 61
    1ab4:	de b7       	in	r29, 0x3e	; 62
    1ab6:	c3 54       	subi	r28, 0x43	; 67
    1ab8:	d1 09       	sbc	r29, r1
    1aba:	0f b6       	in	r0, 0x3f	; 63
    1abc:	f8 94       	cli
    1abe:	de bf       	out	0x3e, r29	; 62
    1ac0:	0f be       	out	0x3f, r0	; 63
    1ac2:	cd bf       	out	0x3d, r28	; 61
	char deveui[]="0004A30B00F4547A";
    1ac4:	2e e3       	ldi	r18, 0x3E	; 62
    1ac6:	31 e0       	ldi	r19, 0x01	; 1
    1ac8:	40 e0       	ldi	r20, 0x00	; 0
    1aca:	81 e1       	ldi	r24, 0x11	; 17
    1acc:	f9 01       	movw	r30, r18
    1ace:	de 01       	movw	r26, r28
    1ad0:	11 96       	adiw	r26, 0x01	; 1
    1ad2:	74 2f       	mov	r23, r20
    1ad4:	0e 94 3f 17 	call	0x2e7e	; 0x2e7e <__movmemx_qi>
	char appeui[]="70B3D57ED003F844";
    1ad8:	2f e4       	ldi	r18, 0x4F	; 79
    1ada:	31 e0       	ldi	r19, 0x01	; 1
    1adc:	40 e0       	ldi	r20, 0x00	; 0
    1ade:	81 e1       	ldi	r24, 0x11	; 17
    1ae0:	f9 01       	movw	r30, r18
    1ae2:	de 01       	movw	r26, r28
    1ae4:	52 96       	adiw	r26, 0x12	; 18
    1ae6:	74 2f       	mov	r23, r20
    1ae8:	0e 94 3f 17 	call	0x2e7e	; 0x2e7e <__movmemx_qi>
	char appkey[]="B88AD6D25A3B27C69A01F74C53F9A179";
    1aec:	20 e6       	ldi	r18, 0x60	; 96
    1aee:	31 e0       	ldi	r19, 0x01	; 1
    1af0:	40 e0       	ldi	r20, 0x00	; 0
    1af2:	81 e2       	ldi	r24, 0x21	; 33
    1af4:	f9 01       	movw	r30, r18
    1af6:	de 01       	movw	r26, r28
    1af8:	93 96       	adiw	r26, 0x23	; 35
    1afa:	74 2f       	mov	r23, r20
    1afc:	0e 94 3f 17 	call	0x2e7e	; 0x2e7e <__movmemx_qi>
	
	return LM_join_network(deveui, appeui, appkey);
    1b00:	ae 01       	movw	r20, r28
    1b02:	4d 5d       	subi	r20, 0xDD	; 221
    1b04:	5f 4f       	sbci	r21, 0xFF	; 255
    1b06:	be 01       	movw	r22, r28
    1b08:	6e 5e       	subi	r22, 0xEE	; 238
    1b0a:	7f 4f       	sbci	r23, 0xFF	; 255
    1b0c:	ce 01       	movw	r24, r28
    1b0e:	01 96       	adiw	r24, 0x01	; 1
    1b10:	0e 94 79 18 	call	0x30f2	; 0x30f2 <LM_join_network>
}
    1b14:	cd 5b       	subi	r28, 0xBD	; 189
    1b16:	df 4f       	sbci	r29, 0xFF	; 255
    1b18:	0f b6       	in	r0, 0x3f	; 63
    1b1a:	f8 94       	cli
    1b1c:	de bf       	out	0x3e, r29	; 62
    1b1e:	0f be       	out	0x3f, r0	; 63
    1b20:	cd bf       	out	0x3d, r28	; 61
    1b22:	df 91       	pop	r29
    1b24:	cf 91       	pop	r28
    1b26:	08 95       	ret

Disassembly of section .text.set_wakeup:

000030d8 <set_wakeup>:
}

static RTC_STATUS set_wakeup(){
	//uint8_t samplingProcessInterval=1;
	//return RTC_set_wake_up_interrupt(samplingProcessInterval);
	return RTC_set_wake_up_interrupt_minutes(4);
    30d8:	84 e0       	ldi	r24, 0x04	; 4
    30da:	0e 94 9b 09 	call	0x1336	; 0x1336 <RTC_set_wake_up_interrupt_minutes>
}
    30de:	08 95       	ret

Disassembly of section .text.send_header:

000026b8 <send_header>:
		default:
			return MAINPG_FATAL_ERROR;
	}
}

static LM_STATUS send_header(){
    26b8:	cf 93       	push	r28
    26ba:	df 93       	push	r29
    26bc:	cd b7       	in	r28, 0x3d	; 61
    26be:	de b7       	in	r29, 0x3e	; 62
    26c0:	e4 97       	sbiw	r28, 0x34	; 52
    26c2:	0f b6       	in	r0, 0x3f	; 63
    26c4:	f8 94       	cli
    26c6:	de bf       	out	0x3e, r29	; 62
    26c8:	0f be       	out	0x3f, r0	; 63
    26ca:	cd bf       	out	0x3d, r28	; 61
	uint8_t package[51];
	uint8_t package_length;
	
	MRPP_get_header_package(package, &package_length);
    26cc:	be 01       	movw	r22, r28
    26ce:	6c 5c       	subi	r22, 0xCC	; 204
    26d0:	7f 4f       	sbci	r23, 0xFF	; 255
    26d2:	ce 01       	movw	r24, r28
    26d4:	01 96       	adiw	r24, 0x01	; 1
    26d6:	0e 94 4b 16 	call	0x2c96	; 0x2c96 <MRPP_get_header_package>
	return LM_send_uplink(package, package_length);
    26da:	6c a9       	ldd	r22, Y+52	; 0x34
    26dc:	ce 01       	movw	r24, r28
    26de:	01 96       	adiw	r24, 0x01	; 1
    26e0:	0e 94 c1 15 	call	0x2b82	; 0x2b82 <LM_send_uplink>
}
    26e4:	e4 96       	adiw	r28, 0x34	; 52
    26e6:	0f b6       	in	r0, 0x3f	; 63
    26e8:	f8 94       	cli
    26ea:	de bf       	out	0x3e, r29	; 62
    26ec:	0f be       	out	0x3f, r0	; 63
    26ee:	cd bf       	out	0x3d, r28	; 61
    26f0:	df 91       	pop	r29
    26f2:	cf 91       	pop	r28
    26f4:	08 95       	ret

Disassembly of section .text.stage_0:

0000174a <stage_0>:
/************************************************************************/
static STAGE_STATUS stage_0(){
	ADC_STATUS adcStatus;
	SCD30_STATUS scd30Status;
	while(1){
		switch(state_s0){
    174a:	80 91 3a 09 	lds	r24, 0x093A	; 0x80093a <state_s0>
    174e:	82 30       	cpi	r24, 0x02	; 2
    1750:	31 f1       	breq	.+76     	; 0x179e <stage_0+0x54>
    1752:	28 f4       	brcc	.+10     	; 0x175e <stage_0+0x14>
    1754:	88 23       	and	r24, r24
    1756:	41 f0       	breq	.+16     	; 0x1768 <stage_0+0x1e>
    1758:	81 30       	cpi	r24, 0x01	; 1
    175a:	b1 f0       	breq	.+44     	; 0x1788 <stage_0+0x3e>
    175c:	f6 cf       	rjmp	.-20     	; 0x174a <stage_0>
    175e:	83 30       	cpi	r24, 0x03	; 3
    1760:	a9 f1       	breq	.+106    	; 0x17cc <stage_0+0x82>
    1762:	84 30       	cpi	r24, 0x04	; 4
    1764:	41 f1       	breq	.+80     	; 0x17b6 <stage_0+0x6c>
    1766:	f1 cf       	rjmp	.-30     	; 0x174a <stage_0>
			case S0_INIT:
				scd30Status=SCD30_init_sampling(collections[0].samplingInterval, collections[0].samplings, co2_data);
    1768:	eb e1       	ldi	r30, 0x1B	; 27
    176a:	f9 e0       	ldi	r31, 0x09	; 9
    176c:	60 81       	ld	r22, Z
    176e:	71 81       	ldd	r23, Z+1	; 0x01
    1770:	40 ee       	ldi	r20, 0xE0	; 224
    1772:	57 e0       	ldi	r21, 0x07	; 7
    1774:	82 81       	ldd	r24, Z+2	; 0x02
    1776:	93 81       	ldd	r25, Z+3	; 0x03
    1778:	0e 94 ba 10 	call	0x2174	; 0x2174 <SCD30_init_sampling>
				if(scd30Status!=SCD30_STATUS_SUCCESS) return STAGE_FATAL_ERROR;
    177c:	81 11       	cpse	r24, r1
    177e:	2a c0       	rjmp	.+84     	; 0x17d4 <stage_0+0x8a>
			
				state_s0=S0_START;
    1780:	81 e0       	ldi	r24, 0x01	; 1
    1782:	80 93 3a 09 	sts	0x093A, r24	; 0x80093a <state_s0>
			break;
    1786:	e1 cf       	rjmp	.-62     	; 0x174a <stage_0>
			
			case S0_START:
				adcStatus=ADC_meth_sens_power_on(1); //Should be changed
    1788:	81 e0       	ldi	r24, 0x01	; 1
    178a:	0e 94 ae 16 	call	0x2d5c	; 0x2d5c <ADC_meth_sens_power_on>
				if(adcStatus!=ADC_STATUS_SUCCESS) return STAGE_FATAL_ERROR;
    178e:	81 11       	cpse	r24, r1
    1790:	23 c0       	rjmp	.+70     	; 0x17d8 <stage_0+0x8e>
			
				SCD30_start_sampling();
    1792:	0e 94 40 18 	call	0x3080	; 0x3080 <SCD30_start_sampling>
			
				state_s0=S0_WAIT;
    1796:	82 e0       	ldi	r24, 0x02	; 2
    1798:	80 93 3a 09 	sts	0x093A, r24	; 0x80093a <state_s0>
			break;
    179c:	d6 cf       	rjmp	.-84     	; 0x174a <stage_0>
			
			case S0_WAIT:
				if(!ADC_meth_sens_ready() || !SCD30_is_sampling_done()) return STAGE_RUNNING;
    179e:	0e 94 d8 17 	call	0x2fb0	; 0x2fb0 <ADC_meth_sens_ready>
    17a2:	88 23       	and	r24, r24
    17a4:	d9 f0       	breq	.+54     	; 0x17dc <stage_0+0x92>
    17a6:	0e 94 16 17 	call	0x2e2c	; 0x2e2c <SCD30_is_sampling_done>
    17aa:	88 23       	and	r24, r24
    17ac:	c9 f0       	breq	.+50     	; 0x17e0 <stage_0+0x96>
				state_s0=S0_UPDATE_MRPP;
    17ae:	84 e0       	ldi	r24, 0x04	; 4
    17b0:	80 93 3a 09 	sts	0x093A, r24	; 0x80093a <state_s0>
			break;
    17b4:	ca cf       	rjmp	.-108    	; 0x174a <stage_0>
			
			case S0_UPDATE_MRPP:
				MRPP_add_collection_data_INT16(1, fakeTS, co2_data);
    17b6:	40 ee       	ldi	r20, 0xE0	; 224
    17b8:	57 e0       	ldi	r21, 0x07	; 7
    17ba:	60 e2       	ldi	r22, 0x20	; 32
    17bc:	79 e0       	ldi	r23, 0x09	; 9
    17be:	81 e0       	ldi	r24, 0x01	; 1
    17c0:	0e 94 42 0e 	call	0x1c84	; 0x1c84 <MRPP_add_collection_data_INT16>
				state_s0=S0_DEINIT;
    17c4:	83 e0       	ldi	r24, 0x03	; 3
    17c6:	80 93 3a 09 	sts	0x093A, r24	; 0x80093a <state_s0>
			break;
    17ca:	bf cf       	rjmp	.-130    	; 0x174a <stage_0>
			
			case S0_DEINIT:
				SCD30_deinit();
    17cc:	0e 94 c5 17 	call	0x2f8a	; 0x2f8a <SCD30_deinit>
				return STAGE_DONE;
    17d0:	81 e0       	ldi	r24, 0x01	; 1
    17d2:	08 95       	ret
	SCD30_STATUS scd30Status;
	while(1){
		switch(state_s0){
			case S0_INIT:
				scd30Status=SCD30_init_sampling(collections[0].samplingInterval, collections[0].samplings, co2_data);
				if(scd30Status!=SCD30_STATUS_SUCCESS) return STAGE_FATAL_ERROR;
    17d4:	83 e0       	ldi	r24, 0x03	; 3
    17d6:	08 95       	ret
				state_s0=S0_START;
			break;
			
			case S0_START:
				adcStatus=ADC_meth_sens_power_on(1); //Should be changed
				if(adcStatus!=ADC_STATUS_SUCCESS) return STAGE_FATAL_ERROR;
    17d8:	83 e0       	ldi	r24, 0x03	; 3
    17da:	08 95       	ret
			
				state_s0=S0_WAIT;
			break;
			
			case S0_WAIT:
				if(!ADC_meth_sens_ready() || !SCD30_is_sampling_done()) return STAGE_RUNNING;
    17dc:	80 e0       	ldi	r24, 0x00	; 0
    17de:	08 95       	ret
    17e0:	80 e0       	ldi	r24, 0x00	; 0
				SCD30_deinit();
				return STAGE_DONE;
			break;
		}
	}
}
    17e2:	08 95       	ret

Disassembly of section .text.send_body:

00002678 <send_body>:
		default:
			return MAINPG_FATAL_ERROR;		
	}	
}

static LM_STATUS send_body(int16_t bodyIndex){
    2678:	cf 93       	push	r28
    267a:	df 93       	push	r29
    267c:	cd b7       	in	r28, 0x3d	; 61
    267e:	de b7       	in	r29, 0x3e	; 62
    2680:	e4 97       	sbiw	r28, 0x34	; 52
    2682:	0f b6       	in	r0, 0x3f	; 63
    2684:	f8 94       	cli
    2686:	de bf       	out	0x3e, r29	; 62
    2688:	0f be       	out	0x3f, r0	; 63
    268a:	cd bf       	out	0x3d, r28	; 61
	uint8_t package[51];
	uint8_t package_length;
	
	MRPP_get_ready_body_package(bodyIndex, package, &package_length);
    268c:	ae 01       	movw	r20, r28
    268e:	4c 5c       	subi	r20, 0xCC	; 204
    2690:	5f 4f       	sbci	r21, 0xFF	; 255
    2692:	be 01       	movw	r22, r28
    2694:	6f 5f       	subi	r22, 0xFF	; 255
    2696:	7f 4f       	sbci	r23, 0xFF	; 255
    2698:	0e 94 3e 0c 	call	0x187c	; 0x187c <MRPP_get_ready_body_package>
	return LM_send_uplink(package, package_length);
    269c:	6c a9       	ldd	r22, Y+52	; 0x34
    269e:	ce 01       	movw	r24, r28
    26a0:	01 96       	adiw	r24, 0x01	; 1
    26a2:	0e 94 c1 15 	call	0x2b82	; 0x2b82 <LM_send_uplink>
}
    26a6:	e4 96       	adiw	r28, 0x34	; 52
    26a8:	0f b6       	in	r0, 0x3f	; 63
    26aa:	f8 94       	cli
    26ac:	de bf       	out	0x3e, r29	; 62
    26ae:	0f be       	out	0x3f, r0	; 63
    26b0:	cd bf       	out	0x3d, r28	; 61
    26b2:	df 91       	pop	r29
    26b4:	cf 91       	pop	r28
    26b6:	08 95       	ret

Disassembly of section .text.decode_body_response:

00002cda <decode_body_response>:

static MAINPG_STATES decode_body_response(int16_t bodyIndex, LM_STATUS status, MAINPG_STATES success){
    2cda:	cf 93       	push	r28
	switch(status){
    2cdc:	63 30       	cpi	r22, 0x03	; 3
    2cde:	59 f0       	breq	.+22     	; 0x2cf6 <decode_body_response+0x1c>
    2ce0:	65 30       	cpi	r22, 0x05	; 5
    2ce2:	21 f0       	breq	.+8      	; 0x2cec <decode_body_response+0x12>
    2ce4:	66 23       	and	r22, r22
    2ce6:	11 f0       	breq	.+4      	; 0x2cec <decode_body_response+0x12>
		
		case LM_STATUS_TRY_AGAIN:
			return success;
		
		default:
			return MAINPG_FATAL_ERROR;
    2ce8:	80 e1       	ldi	r24, 0x10	; 16
    2cea:	06 c0       	rjmp	.+12     	; 0x2cf8 <decode_body_response+0x1e>
    2cec:	c4 2f       	mov	r28, r20

static MAINPG_STATES decode_body_response(int16_t bodyIndex, LM_STATUS status, MAINPG_STATES success){
	switch(status){
		case LM_STATUS_SUCCESS:
		case LM_STATUS_MAC_ERR:
			MRPP_set_body_sent(bodyIndex);
    2cee:	0e 94 3a 18 	call	0x3074	; 0x3074 <MRPP_set_body_sent>
			return success;
    2cf2:	8c 2f       	mov	r24, r28
    2cf4:	01 c0       	rjmp	.+2      	; 0x2cf8 <decode_body_response+0x1e>
		
		case LM_STATUS_TRY_AGAIN:
			return success;
    2cf6:	84 2f       	mov	r24, r20
		
		default:
			return MAINPG_FATAL_ERROR;
	}
}
    2cf8:	cf 91       	pop	r28
    2cfa:	08 95       	ret

Disassembly of section .text.send_tail:

000026f6 <send_tail>:
	
	MRPP_get_header_package(package, &package_length);
	return LM_send_uplink(package, package_length);
}

static LM_STATUS send_tail(){
    26f6:	cf 93       	push	r28
    26f8:	df 93       	push	r29
    26fa:	cd b7       	in	r28, 0x3d	; 61
    26fc:	de b7       	in	r29, 0x3e	; 62
    26fe:	e4 97       	sbiw	r28, 0x34	; 52
    2700:	0f b6       	in	r0, 0x3f	; 63
    2702:	f8 94       	cli
    2704:	de bf       	out	0x3e, r29	; 62
    2706:	0f be       	out	0x3f, r0	; 63
    2708:	cd bf       	out	0x3d, r28	; 61
	uint8_t package[51];
	uint8_t package_length;
	
	MRPP_get_tail_package(package, &package_length);
    270a:	be 01       	movw	r22, r28
    270c:	6c 5c       	subi	r22, 0xCC	; 204
    270e:	7f 4f       	sbci	r23, 0xFF	; 255
    2710:	ce 01       	movw	r24, r28
    2712:	01 96       	adiw	r24, 0x01	; 1
    2714:	0e 94 5c 16 	call	0x2cb8	; 0x2cb8 <MRPP_get_tail_package>
	return LM_send_uplink(package, package_length);
    2718:	6c a9       	ldd	r22, Y+52	; 0x34
    271a:	ce 01       	movw	r24, r28
    271c:	01 96       	adiw	r24, 0x01	; 1
    271e:	0e 94 c1 15 	call	0x2b82	; 0x2b82 <LM_send_uplink>
}
    2722:	e4 96       	adiw	r28, 0x34	; 52
    2724:	0f b6       	in	r0, 0x3f	; 63
    2726:	f8 94       	cli
    2728:	de bf       	out	0x3e, r29	; 62
    272a:	0f be       	out	0x3f, r0	; 63
    272c:	cd bf       	out	0x3d, r28	; 61
    272e:	df 91       	pop	r29
    2730:	cf 91       	pop	r28
    2732:	08 95       	ret

Disassembly of section .text.send_msg:

00002ef8 <send_msg>:

/************************************************************************/
/* Test functions                                                       */
/************************************************************************/
static void send_msg(const char msg[]){
	uart0_hal_send_string(msg);
    2ef8:	0e 94 7a 0e 	call	0x1cf4	; 0x1cf4 <uart0_hal_send_string>
    2efc:	2f ef       	ldi	r18, 0xFF	; 255
    2efe:	80 e7       	ldi	r24, 0x70	; 112
    2f00:	92 e0       	ldi	r25, 0x02	; 2
    2f02:	21 50       	subi	r18, 0x01	; 1
    2f04:	80 40       	sbci	r24, 0x00	; 0
    2f06:	90 40       	sbci	r25, 0x00	; 0
    2f08:	e1 f7       	brne	.-8      	; 0x2f02 <send_msg+0xa>
    2f0a:	00 c0       	rjmp	.+0      	; 0x2f0c <send_msg+0x14>
    2f0c:	00 00       	nop
    2f0e:	08 95       	ret

Disassembly of section .text.MAINPG_start:

000009f0 <MAINPG_start>:

static uint8_t fakeTS[]={0xaa,0xbb, 0xcc, 0xdd};
static void send_msg(const char msg[]);


void MAINPG_start(){
 9f0:	1f 93       	push	r17
 9f2:	cf 93       	push	r28
 9f4:	df 93       	push	r29
	MAINPG_STATES comeBackToState;
	RTC_STATUS rtcStatus;
	LM_STATUS lmStatus;
	STAGE_STATUS stageStatus;
	//bool fromSleep=false;
	bool fromSleep=true;
 9f6:	d1 e0       	ldi	r29, 0x01	; 1
static uint8_t fakeTS[]={0xaa,0xbb, 0xcc, 0xdd};
static void send_msg(const char msg[]);


void MAINPG_start(){
	MAINPG_STATES state=MAINPG_INIT_HW;
 9f8:	c0 e0       	ldi	r28, 0x00	; 0
 9fa:	10 c0       	rjmp	.+32     	; 0xa1c <MAINPG_start+0x2c>
				
				//Set pull up
				set_bit(PORTB, 0);
				set_bit(PORTB, 1);
				
				state=fromSleep?MAINPG_LORA_WAKEUP:MAINPG_LORA_JOIN_NETWORK;
 9fc:	c4 e0       	ldi	r28, 0x04	; 4
 9fe:	0e c0       	rjmp	.+28     	; 0xa1c <MAINPG_start+0x2c>
			break;
			
			case MAINPG_LORA_WAKEUP:
				print_debug("LoRa WAKE UP\n\r");
				lmStatus=LM_wake_up();
				state=lmStatus==LM_STATUS_SUCCESS?MAINPG_INIT_RTC:MAINPG_FATAL_ERROR;
 a00:	c0 e1       	ldi	r28, 0x10	; 16
 a02:	0c c0       	rjmp	.+24     	; 0xa1c <MAINPG_start+0x2c>
			/* RTC                                                                  */
			/************************************************************************/
			case MAINPG_INIT_RTC:
				print_debug("INIT RTC\n\r");
				rtcStatus=RTC_set_clock_out(1);
				state=rtcStatus==RTC_STATUS_SUCCESS?MAINPG_CLEAR_WAKEUP:MAINPG_FATAL_ERROR;
 a04:	c0 e1       	ldi	r28, 0x10	; 16
 a06:	0a c0       	rjmp	.+20     	; 0xa1c <MAINPG_start+0x2c>
			break;
			
			case MAINPG_CLEAR_WAKEUP:
				print_debug("Clear interrupt\n\r");
				rtcStatus=RTC_clear_wake_up_interrupt();
				state=rtcStatus==RTC_STATUS_SUCCESS?MAINPG_SET_WAKEUP:MAINPG_FATAL_ERROR;
 a08:	c0 e1       	ldi	r28, 0x10	; 16
 a0a:	08 c0       	rjmp	.+16     	; 0xa1c <MAINPG_start+0x2c>
			break;
			
			case MAINPG_SET_WAKEUP:
				print_debug("Set wake interrupt\n\r");
				rtcStatus=set_wakeup();
				state=rtcStatus==RTC_STATUS_SUCCESS?MAINPG_INIT_MRPP:MAINPG_FATAL_ERROR;
 a0c:	c0 e1       	ldi	r28, 0x10	; 16
 a0e:	06 c0       	rjmp	.+12     	; 0xa1c <MAINPG_start+0x2c>
				stageStatus=stage_0();
				state=decode_stage_response(stageStatus, MAINPG_SEND_ALL_DATA);
			break;
			
			case MAINPG_SEND_DATA:
				state=comeBackToState;
 a10:	c1 2f       	mov	r28, r17
 a12:	04 c0       	rjmp	.+8      	; 0xa1c <MAINPG_start+0x2c>
 a14:	c1 2f       	mov	r28, r17
 a16:	02 c0       	rjmp	.+4      	; 0xa1c <MAINPG_start+0x2c>
			
			case MAINPG_SEND_ALL_DATA:
				if(MRPP_all_body_package_sent()){
					state=MAINPG_SEND_TAIL;
				}else{
					comeBackToState=MAINPG_SEND_ALL_DATA;
 a18:	1c 2f       	mov	r17, r28
					state=MAINPG_SEND_DATA;
 a1a:	ca e0       	ldi	r28, 0x0A	; 10
	//bool fromSleep=false;
	bool fromSleep=true;
	
	
	while(1){
		switch(state){
 a1c:	ec 2f       	mov	r30, r28
 a1e:	f0 e0       	ldi	r31, 0x00	; 0
 a20:	e2 31       	cpi	r30, 0x12	; 18
 a22:	f1 05       	cpc	r31, r1
 a24:	d8 f7       	brcc	.-10     	; 0xa1c <MAINPG_start+0x2c>
 a26:	ec 5a       	subi	r30, 0xAC	; 172
 a28:	ff 4f       	sbci	r31, 0xFF	; 255
 a2a:	0c 94 46 18 	jmp	0x308c	; 0x308c <__tablejump2__>
			case MAINPG_INIT_HW:
				
				uart0_hal_init();
 a2e:	0e 94 9a 13 	call	0x2734	; 0x2734 <uart0_hal_init>
				uart1_hal_init();
 a32:	0e 94 b8 13 	call	0x2770	; 0x2770 <uart1_hal_init>
				TWI_HAL_init();
 a36:	0e 94 cf 17 	call	0x2f9e	; 0x2f9e <TWI_HAL_init>
				TC2_HAL_init();
 a3a:	0e 94 8e 16 	call	0x2d1c	; 0x2d1c <TC2_HAL_init>
				PM_HAL_adc_power_init();
 a3e:	0e 94 f1 17 	call	0x2fe2	; 0x2fe2 <PM_HAL_adc_power_init>
				PM_HAL_meth_power_init();
 a42:	0e 94 f8 17 	call	0x2ff0	; 0x2ff0 <PM_HAL_meth_power_init>
				PM_HAL_BC_power_init();
 a46:	0e 94 06 18 	call	0x300c	; 0x300c <PM_HAL_BC_power_init>
				PM_HAL_SCD30_power_init();
 a4a:	0e 94 ff 17 	call	0x2ffe	; 0x2ffe <PM_HAL_SCD30_power_init>
				
				//Set pull up
				set_bit(PORTB, 0);
 a4e:	85 b1       	in	r24, 0x05	; 5
 a50:	81 60       	ori	r24, 0x01	; 1
 a52:	85 b9       	out	0x05, r24	; 5
				set_bit(PORTB, 1);
 a54:	85 b1       	in	r24, 0x05	; 5
 a56:	82 60       	ori	r24, 0x02	; 2
 a58:	85 b9       	out	0x05, r24	; 5
				
				state=fromSleep?MAINPG_LORA_WAKEUP:MAINPG_LORA_JOIN_NETWORK;
 a5a:	d1 11       	cpse	r29, r1
 a5c:	cf cf       	rjmp	.-98     	; 0x9fc <MAINPG_start+0xc>
 a5e:	c1 e0       	ldi	r28, 0x01	; 1
 a60:	dd cf       	rjmp	.-70     	; 0xa1c <MAINPG_start+0x2c>
			break;
			/************************************************************************/
			/* LORA                                                                 */
			/************************************************************************/
			case MAINPG_LORA_JOIN_NETWORK:
				print_debug("Join\n\r");
 a62:	61 e8       	ldi	r22, 0x81	; 129
 a64:	71 e0       	ldi	r23, 0x01	; 1
 a66:	80 e0       	ldi	r24, 0x00	; 0
 a68:	0e 94 7c 17 	call	0x2ef8	; 0x2ef8 <send_msg>
				lmStatus=join_lora();
 a6c:	0e 94 57 0d 	call	0x1aae	; 0x1aae <join_lora>
				state=decode_join_response(lmStatus);
 a70:	0e 94 24 17 	call	0x2e48	; 0x2e48 <decode_join_response>
 a74:	c8 2f       	mov	r28, r24
			break;
 a76:	d2 cf       	rjmp	.-92     	; 0xa1c <MAINPG_start+0x2c>
			
			case MAINPG_LORA_WAKEUP:
				print_debug("LoRa WAKE UP\n\r");
 a78:	68 e8       	ldi	r22, 0x88	; 136
 a7a:	71 e0       	ldi	r23, 0x01	; 1
 a7c:	80 e0       	ldi	r24, 0x00	; 0
 a7e:	0e 94 7c 17 	call	0x2ef8	; 0x2ef8 <send_msg>
				lmStatus=LM_wake_up();
 a82:	0e 94 7f 18 	call	0x30fe	; 0x30fe <LM_wake_up>
				state=lmStatus==LM_STATUS_SUCCESS?MAINPG_INIT_RTC:MAINPG_FATAL_ERROR;
 a86:	81 11       	cpse	r24, r1
 a88:	bb cf       	rjmp	.-138    	; 0xa00 <MAINPG_start+0x10>
 a8a:	c5 e0       	ldi	r28, 0x05	; 5
 a8c:	c7 cf       	rjmp	.-114    	; 0xa1c <MAINPG_start+0x2c>
			break;
			
			case MAINPG_LORA_JOIN_TRY_AGAIN:
				print_debug("Try again\n\r");
 a8e:	67 e9       	ldi	r22, 0x97	; 151
 a90:	71 e0       	ldi	r23, 0x01	; 1
 a92:	80 e0       	ldi	r24, 0x00	; 0
 a94:	0e 94 7c 17 	call	0x2ef8	; 0x2ef8 <send_msg>
 a98:	2f ef       	ldi	r18, 0xFF	; 255
 a9a:	81 e1       	ldi	r24, 0x11	; 17
 a9c:	9a e7       	ldi	r25, 0x7A	; 122
 a9e:	21 50       	subi	r18, 0x01	; 1
 aa0:	80 40       	sbci	r24, 0x00	; 0
 aa2:	90 40       	sbci	r25, 0x00	; 0
 aa4:	e1 f7       	brne	.-8      	; 0xa9e <MAINPG_start+0xae>
 aa6:	00 c0       	rjmp	.+0      	; 0xaa8 <MAINPG_start+0xb8>
 aa8:	00 00       	nop
				_delay_ms(5000);
				state=MAINPG_LORA_JOIN_NETWORK;
 aaa:	c1 e0       	ldi	r28, 0x01	; 1
			break;
 aac:	b7 cf       	rjmp	.-146    	; 0xa1c <MAINPG_start+0x2c>
			
			case MAINPG_LORA_JOIN_CONF_ERR:
				print_debug("Conf err\n\r");
 aae:	63 ea       	ldi	r22, 0xA3	; 163
 ab0:	71 e0       	ldi	r23, 0x01	; 1
 ab2:	80 e0       	ldi	r24, 0x00	; 0
 ab4:	0e 94 7c 17 	call	0x2ef8	; 0x2ef8 <send_msg>
				state=MAINPG_END;
 ab8:	c1 e1       	ldi	r28, 0x11	; 17
			break;
 aba:	b0 cf       	rjmp	.-160    	; 0xa1c <MAINPG_start+0x2c>
			
			/************************************************************************/
			/* RTC                                                                  */
			/************************************************************************/
			case MAINPG_INIT_RTC:
				print_debug("INIT RTC\n\r");
 abc:	6e ea       	ldi	r22, 0xAE	; 174
 abe:	71 e0       	ldi	r23, 0x01	; 1
 ac0:	80 e0       	ldi	r24, 0x00	; 0
 ac2:	0e 94 7c 17 	call	0x2ef8	; 0x2ef8 <send_msg>
				rtcStatus=RTC_set_clock_out(1);
 ac6:	81 e0       	ldi	r24, 0x01	; 1
 ac8:	0e 94 1d 10 	call	0x203a	; 0x203a <RTC_set_clock_out>
				state=rtcStatus==RTC_STATUS_SUCCESS?MAINPG_CLEAR_WAKEUP:MAINPG_FATAL_ERROR;
 acc:	81 11       	cpse	r24, r1
 ace:	9a cf       	rjmp	.-204    	; 0xa04 <MAINPG_start+0x14>
 ad0:	c7 e0       	ldi	r28, 0x07	; 7
 ad2:	a4 cf       	rjmp	.-184    	; 0xa1c <MAINPG_start+0x2c>
				//state=rtcStatus==RTC_STATUS_SUCCESS?MAINPG_INIT_MRPP:MAINPG_FATAL_ERROR;
			break;
			
			case MAINPG_CLEAR_WAKEUP:
				print_debug("Clear interrupt\n\r");
 ad4:	69 eb       	ldi	r22, 0xB9	; 185
 ad6:	71 e0       	ldi	r23, 0x01	; 1
 ad8:	80 e0       	ldi	r24, 0x00	; 0
 ada:	0e 94 7c 17 	call	0x2ef8	; 0x2ef8 <send_msg>
				rtcStatus=RTC_clear_wake_up_interrupt();
 ade:	0e 94 cb 14 	call	0x2996	; 0x2996 <RTC_clear_wake_up_interrupt>
				state=rtcStatus==RTC_STATUS_SUCCESS?MAINPG_SET_WAKEUP:MAINPG_FATAL_ERROR;
 ae2:	81 11       	cpse	r24, r1
 ae4:	91 cf       	rjmp	.-222    	; 0xa08 <MAINPG_start+0x18>
 ae6:	c6 e0       	ldi	r28, 0x06	; 6
 ae8:	99 cf       	rjmp	.-206    	; 0xa1c <MAINPG_start+0x2c>
			break;
			
			case MAINPG_SET_WAKEUP:
				print_debug("Set wake interrupt\n\r");
 aea:	6b ec       	ldi	r22, 0xCB	; 203
 aec:	71 e0       	ldi	r23, 0x01	; 1
 aee:	80 e0       	ldi	r24, 0x00	; 0
 af0:	0e 94 7c 17 	call	0x2ef8	; 0x2ef8 <send_msg>
				rtcStatus=set_wakeup();
 af4:	0e 94 6c 18 	call	0x30d8	; 0x30d8 <set_wakeup>
				state=rtcStatus==RTC_STATUS_SUCCESS?MAINPG_INIT_MRPP:MAINPG_FATAL_ERROR;
 af8:	81 11       	cpse	r24, r1
 afa:	88 cf       	rjmp	.-240    	; 0xa0c <MAINPG_start+0x1c>
 afc:	c8 e0       	ldi	r28, 0x08	; 8
 afe:	8e cf       	rjmp	.-228    	; 0xa1c <MAINPG_start+0x2c>
			
			/************************************************************************/
			/* MRPP and data sampling                                               */
			/************************************************************************/
			case MAINPG_INIT_MRPP:
				print_debug("Mrpp init\n\r");
 b00:	60 ee       	ldi	r22, 0xE0	; 224
 b02:	71 e0       	ldi	r23, 0x01	; 1
 b04:	80 e0       	ldi	r24, 0x00	; 0
 b06:	0e 94 7c 17 	call	0x2ef8	; 0x2ef8 <send_msg>
				MRPP_init_group(collections, 1);
 b0a:	61 e0       	ldi	r22, 0x01	; 1
 b0c:	8b e1       	ldi	r24, 0x1B	; 27
 b0e:	99 e0       	ldi	r25, 0x09	; 9
 b10:	0e 94 17 15 	call	0x2a2e	; 0x2a2e <MRPP_init_group>
				state=MAINPG_SEND_HEADER;
 b14:	cc e0       	ldi	r28, 0x0C	; 12
			break;
 b16:	82 cf       	rjmp	.-252    	; 0xa1c <MAINPG_start+0x2c>
			
			case MAINPG_SEND_HEADER:
				if(!LM_is_free()){
 b18:	0e 94 56 18 	call	0x30ac	; 0x30ac <LM_is_free>
 b1c:	88 23       	and	r24, r24
 b1e:	09 f4       	brne	.+2      	; 0xb22 <MAINPG_start+0x132>
 b20:	7d cf       	rjmp	.-262    	; 0xa1c <MAINPG_start+0x2c>
					state=MAINPG_SEND_HEADER;
					break;
				}
				lmStatus=send_header();
 b22:	0e 94 5c 13 	call	0x26b8	; 0x26b8 <send_header>
				state=decode_header_tail_response(lmStatus, MAINPG_STAGE_0, MAINPG_SEND_HEADER);
 b26:	4c e0       	ldi	r20, 0x0C	; 12
 b28:	69 e0       	ldi	r22, 0x09	; 9
 b2a:	0e 94 70 17 	call	0x2ee0	; 0x2ee0 <decode_header_tail_response>
 b2e:	c8 2f       	mov	r28, r24
			break;
 b30:	75 cf       	rjmp	.-278    	; 0xa1c <MAINPG_start+0x2c>
			
			case MAINPG_STAGE_0:
				comeBackToState=MAINPG_STAGE_0;
				stageStatus=stage_0();
 b32:	0e 94 a5 0b 	call	0x174a	; 0x174a <stage_0>
				state=decode_stage_response(stageStatus, MAINPG_SEND_ALL_DATA);
 b36:	6b e0       	ldi	r22, 0x0B	; 11
 b38:	0e 94 88 17 	call	0x2f10	; 0x2f10 <decode_stage_response>
				lmStatus=send_header();
				state=decode_header_tail_response(lmStatus, MAINPG_STAGE_0, MAINPG_SEND_HEADER);
			break;
			
			case MAINPG_STAGE_0:
				comeBackToState=MAINPG_STAGE_0;
 b3c:	1c 2f       	mov	r17, r28
				stageStatus=stage_0();
				state=decode_stage_response(stageStatus, MAINPG_SEND_ALL_DATA);
 b3e:	c8 2f       	mov	r28, r24
			break;
 b40:	6d cf       	rjmp	.-294    	; 0xa1c <MAINPG_start+0x2c>
			
			case MAINPG_SEND_DATA:
				state=comeBackToState;
				if(MRPP_is_body_package_ready(&bodyIndex) && LM_is_free()){
 b42:	88 e2       	ldi	r24, 0x28	; 40
 b44:	99 e0       	ldi	r25, 0x09	; 9
 b46:	0e 94 3a 16 	call	0x2c74	; 0x2c74 <MRPP_is_body_package_ready>
 b4a:	88 23       	and	r24, r24
 b4c:	09 f4       	brne	.+2      	; 0xb50 <MAINPG_start+0x160>
 b4e:	60 cf       	rjmp	.-320    	; 0xa10 <MAINPG_start+0x20>
 b50:	0e 94 56 18 	call	0x30ac	; 0x30ac <LM_is_free>
 b54:	88 23       	and	r24, r24
 b56:	09 f4       	brne	.+2      	; 0xb5a <MAINPG_start+0x16a>
 b58:	5d cf       	rjmp	.-326    	; 0xa14 <MAINPG_start+0x24>
					lmStatus=send_body(bodyIndex);
 b5a:	80 91 28 09 	lds	r24, 0x0928	; 0x800928 <bodyIndex>
 b5e:	90 91 29 09 	lds	r25, 0x0929	; 0x800929 <bodyIndex+0x1>
 b62:	0e 94 3c 13 	call	0x2678	; 0x2678 <send_body>
					state=decode_body_response(bodyIndex, lmStatus, comeBackToState);
 b66:	41 2f       	mov	r20, r17
 b68:	68 2f       	mov	r22, r24
 b6a:	80 91 28 09 	lds	r24, 0x0928	; 0x800928 <bodyIndex>
 b6e:	90 91 29 09 	lds	r25, 0x0929	; 0x800929 <bodyIndex+0x1>
 b72:	0e 94 6d 16 	call	0x2cda	; 0x2cda <decode_body_response>
 b76:	c8 2f       	mov	r28, r24
 b78:	51 cf       	rjmp	.-350    	; 0xa1c <MAINPG_start+0x2c>
				}
			break;
			
			case MAINPG_SEND_ALL_DATA:
				if(MRPP_all_body_package_sent()){
 b7a:	0e 94 5b 18 	call	0x30b6	; 0x30b6 <MRPP_all_body_package_sent>
 b7e:	88 23       	and	r24, r24
 b80:	09 f4       	brne	.+2      	; 0xb84 <MAINPG_start+0x194>
 b82:	4a cf       	rjmp	.-364    	; 0xa18 <MAINPG_start+0x28>
					state=MAINPG_SEND_TAIL;
 b84:	cd e0       	ldi	r28, 0x0D	; 13
 b86:	4a cf       	rjmp	.-364    	; 0xa1c <MAINPG_start+0x2c>
					state=MAINPG_SEND_DATA;
				}
			break;
			
			case MAINPG_SEND_TAIL:	
				if(!LM_is_free()){
 b88:	0e 94 56 18 	call	0x30ac	; 0x30ac <LM_is_free>
 b8c:	88 23       	and	r24, r24
 b8e:	09 f4       	brne	.+2      	; 0xb92 <MAINPG_start+0x1a2>
 b90:	45 cf       	rjmp	.-374    	; 0xa1c <MAINPG_start+0x2c>
					state=MAINPG_SEND_TAIL;
					break;
				}
				lmStatus=send_tail();
 b92:	0e 94 7b 13 	call	0x26f6	; 0x26f6 <send_tail>
				state=decode_header_tail_response(lmStatus, MAINPG_SETUP_SLEEP, MAINPG_SEND_TAIL);
 b96:	4d e0       	ldi	r20, 0x0D	; 13
 b98:	6e e0       	ldi	r22, 0x0E	; 14
 b9a:	0e 94 70 17 	call	0x2ee0	; 0x2ee0 <decode_header_tail_response>
 b9e:	c8 2f       	mov	r28, r24
				
			break;
 ba0:	3d cf       	rjmp	.-390    	; 0xa1c <MAINPG_start+0x2c>
			
			/************************************************************************/
			/* Go to sleep                                                          */
			/************************************************************************/
			case MAINPG_SETUP_SLEEP:
				lmStatus=LM_put_to_sleep();
 ba2:	0e 94 7c 18 	call	0x30f8	; 0x30f8 <LM_put_to_sleep>
				// Set to false, so when it starts up it will do a restart of LORA module
				fromSleep=lmStatus==LM_STATUS_SUCCESS;
 ba6:	d1 e0       	ldi	r29, 0x01	; 1
 ba8:	81 11       	cpse	r24, r1
 baa:	d0 e0       	ldi	r29, 0x00	; 0
				
				state=MAINPG_SLEEP;
 bac:	cf e0       	ldi	r28, 0x0F	; 15
			break;
 bae:	36 cf       	rjmp	.-404    	; 0xa1c <MAINPG_start+0x2c>
			
			case MAINPG_SLEEP:
				print_debug("Sleep\n\r");
 bb0:	6c ee       	ldi	r22, 0xEC	; 236
 bb2:	71 e0       	ldi	r23, 0x01	; 1
 bb4:	80 e0       	ldi	r24, 0x00	; 0
 bb6:	0e 94 7c 17 	call	0x2ef8	; 0x2ef8 <send_msg>
				PM_HAL_enter_power_down();
 bba:	0e 94 d9 12 	call	0x25b2	; 0x25b2 <PM_HAL_enter_power_down>
				print_debug("Awake\n\r");
 bbe:	64 ef       	ldi	r22, 0xF4	; 244
 bc0:	71 e0       	ldi	r23, 0x01	; 1
 bc2:	80 e0       	ldi	r24, 0x00	; 0
 bc4:	0e 94 7c 17 	call	0x2ef8	; 0x2ef8 <send_msg>
				state=MAINPG_INIT_HW;
 bc8:	c0 e0       	ldi	r28, 0x00	; 0
			break;
 bca:	28 cf       	rjmp	.-432    	; 0xa1c <MAINPG_start+0x2c>
			
			/************************************************************************/
			/* Error handling                                                       */
			/************************************************************************/
			case MAINPG_FATAL_ERROR:
				print_debug("Fatal error\n\r");
 bcc:	6c ef       	ldi	r22, 0xFC	; 252
 bce:	71 e0       	ldi	r23, 0x01	; 1
 bd0:	80 e0       	ldi	r24, 0x00	; 0
 bd2:	0e 94 7c 17 	call	0x2ef8	; 0x2ef8 <send_msg>
				state=MAINPG_END;
 bd6:	c1 e1       	ldi	r28, 0x11	; 17
			break;
 bd8:	21 cf       	rjmp	.-446    	; 0xa1c <MAINPG_start+0x2c>
			
			case MAINPG_END:
				print_debug("END\n\r");
 bda:	6a e0       	ldi	r22, 0x0A	; 10
 bdc:	72 e0       	ldi	r23, 0x02	; 2
 bde:	80 e0       	ldi	r24, 0x00	; 0
 be0:	0e 94 7c 17 	call	0x2ef8	; 0x2ef8 <send_msg>
				return;
			break;	
		}
	}
}
 be4:	df 91       	pop	r29
 be6:	cf 91       	pop	r28
 be8:	1f 91       	pop	r17
 bea:	08 95       	ret

Disassembly of section .text.calc_crc8:

0000288c <calc_crc8>:
 *  Author: Mainframe
 */ 

#include "CRC8.h"

uint8_t calc_crc8(uint8_t data[], uint8_t length){
    288c:	ac 01       	movw	r20, r24
	    uint8_t remainder=CRC_INIT_VALUE;

	    for (uint8_t byte = 0; byte < length; byte++)
    288e:	30 e0       	ldi	r19, 0x00	; 0
 */ 

#include "CRC8.h"

uint8_t calc_crc8(uint8_t data[], uint8_t length){
	    uint8_t remainder=CRC_INIT_VALUE;
    2890:	8f ef       	ldi	r24, 0xFF	; 255

	    for (uint8_t byte = 0; byte < length; byte++)
    2892:	14 c0       	rjmp	.+40     	; 0x28bc <calc_crc8+0x30>
	    {
		    remainder ^= data[byte];
    2894:	fa 01       	movw	r30, r20
    2896:	e3 0f       	add	r30, r19
    2898:	f1 1d       	adc	r31, r1
    289a:	90 81       	ld	r25, Z
    289c:	89 27       	eor	r24, r25

		    for (uint8_t i = 8; i >0; --i)
    289e:	28 e0       	ldi	r18, 0x08	; 8
    28a0:	0a c0       	rjmp	.+20     	; 0x28b6 <calc_crc8+0x2a>
		    {
			    if(remainder & 0x80){
    28a2:	88 23       	and	r24, r24
    28a4:	34 f4       	brge	.+12     	; 0x28b2 <calc_crc8+0x26>
				    remainder=(remainder << 1) ^ CRC_POLYNOMIAL;
    28a6:	90 e0       	ldi	r25, 0x00	; 0
    28a8:	88 0f       	add	r24, r24
    28aa:	99 1f       	adc	r25, r25
    28ac:	91 e3       	ldi	r25, 0x31	; 49
    28ae:	89 27       	eor	r24, r25
    28b0:	01 c0       	rjmp	.+2      	; 0x28b4 <calc_crc8+0x28>
				    }else{
				    remainder=(remainder << 1);
    28b2:	88 0f       	add	r24, r24

	    for (uint8_t byte = 0; byte < length; byte++)
	    {
		    remainder ^= data[byte];

		    for (uint8_t i = 8; i >0; --i)
    28b4:	21 50       	subi	r18, 0x01	; 1
    28b6:	21 11       	cpse	r18, r1
    28b8:	f4 cf       	rjmp	.-24     	; 0x28a2 <calc_crc8+0x16>
#include "CRC8.h"

uint8_t calc_crc8(uint8_t data[], uint8_t length){
	    uint8_t remainder=CRC_INIT_VALUE;

	    for (uint8_t byte = 0; byte < length; byte++)
    28ba:	3f 5f       	subi	r19, 0xFF	; 255
    28bc:	36 17       	cp	r19, r22
    28be:	50 f3       	brcs	.-44     	; 0x2894 <calc_crc8+0x8>
				    remainder=(remainder << 1);
			    }
		    }
	    }
	    return remainder;
    28c0:	08 95       	ret

Disassembly of section .text.avrlibc.fplib:

00001e84 <__fixunssfsi>:
    1e84:	0e 94 bf 12 	call	0x257e	; 0x257e <__fp_splitA>
    1e88:	88 f0       	brcs	.+34     	; 0x1eac <__fixunssfsi+0x28>
    1e8a:	9f 57       	subi	r25, 0x7F	; 127
    1e8c:	98 f0       	brcs	.+38     	; 0x1eb4 <__fixunssfsi+0x30>
    1e8e:	b9 2f       	mov	r27, r25
    1e90:	99 27       	eor	r25, r25
    1e92:	b7 51       	subi	r27, 0x17	; 23
    1e94:	b0 f0       	brcs	.+44     	; 0x1ec2 <__fixunssfsi+0x3e>
    1e96:	e1 f0       	breq	.+56     	; 0x1ed0 <__fixunssfsi+0x4c>
    1e98:	66 0f       	add	r22, r22
    1e9a:	77 1f       	adc	r23, r23
    1e9c:	88 1f       	adc	r24, r24
    1e9e:	99 1f       	adc	r25, r25
    1ea0:	1a f0       	brmi	.+6      	; 0x1ea8 <__fixunssfsi+0x24>
    1ea2:	ba 95       	dec	r27
    1ea4:	c9 f7       	brne	.-14     	; 0x1e98 <__fixunssfsi+0x14>
    1ea6:	14 c0       	rjmp	.+40     	; 0x1ed0 <__fixunssfsi+0x4c>
    1ea8:	b1 30       	cpi	r27, 0x01	; 1
    1eaa:	91 f0       	breq	.+36     	; 0x1ed0 <__fixunssfsi+0x4c>
    1eac:	0e 94 1b 18 	call	0x3036	; 0x3036 <__fp_zero>
    1eb0:	b1 e0       	ldi	r27, 0x01	; 1
    1eb2:	08 95       	ret
    1eb4:	0c 94 1b 18 	jmp	0x3036	; 0x3036 <__fp_zero>
    1eb8:	67 2f       	mov	r22, r23
    1eba:	78 2f       	mov	r23, r24
    1ebc:	88 27       	eor	r24, r24
    1ebe:	b8 5f       	subi	r27, 0xF8	; 248
    1ec0:	39 f0       	breq	.+14     	; 0x1ed0 <__fixunssfsi+0x4c>
    1ec2:	b9 3f       	cpi	r27, 0xF9	; 249
    1ec4:	cc f3       	brlt	.-14     	; 0x1eb8 <__fixunssfsi+0x34>
    1ec6:	86 95       	lsr	r24
    1ec8:	77 95       	ror	r23
    1eca:	67 95       	ror	r22
    1ecc:	b3 95       	inc	r27
    1ece:	d9 f7       	brne	.-10     	; 0x1ec6 <__fixunssfsi+0x42>
    1ed0:	3e f4       	brtc	.+14     	; 0x1ee0 <__fixunssfsi+0x5c>
    1ed2:	90 95       	com	r25
    1ed4:	80 95       	com	r24
    1ed6:	70 95       	com	r23
    1ed8:	61 95       	neg	r22
    1eda:	7f 4f       	sbci	r23, 0xFF	; 255
    1edc:	8f 4f       	sbci	r24, 0xFF	; 255
    1ede:	9f 4f       	sbci	r25, 0xFF	; 255
    1ee0:	08 95       	ret

Disassembly of section .text.avrlibc.fplib:

0000256e <__fp_split3>:
    256e:	57 fd       	sbrc	r21, 7
    2570:	90 58       	subi	r25, 0x80	; 128
    2572:	44 0f       	add	r20, r20
    2574:	55 1f       	adc	r21, r21
    2576:	59 f0       	breq	.+22     	; 0x258e <__fp_splitA+0x10>
    2578:	5f 3f       	cpi	r21, 0xFF	; 255
    257a:	71 f0       	breq	.+28     	; 0x2598 <__fp_splitA+0x1a>
    257c:	47 95       	ror	r20

0000257e <__fp_splitA>:
    257e:	88 0f       	add	r24, r24
    2580:	97 fb       	bst	r25, 7
    2582:	99 1f       	adc	r25, r25
    2584:	61 f0       	breq	.+24     	; 0x259e <__fp_splitA+0x20>
    2586:	9f 3f       	cpi	r25, 0xFF	; 255
    2588:	79 f0       	breq	.+30     	; 0x25a8 <__fp_splitA+0x2a>
    258a:	87 95       	ror	r24
    258c:	08 95       	ret
    258e:	12 16       	cp	r1, r18
    2590:	13 06       	cpc	r1, r19
    2592:	14 06       	cpc	r1, r20
    2594:	55 1f       	adc	r21, r21
    2596:	f2 cf       	rjmp	.-28     	; 0x257c <__fp_split3+0xe>
    2598:	46 95       	lsr	r20
    259a:	f1 df       	rcall	.-30     	; 0x257e <__fp_splitA>
    259c:	08 c0       	rjmp	.+16     	; 0x25ae <__fp_splitA+0x30>
    259e:	16 16       	cp	r1, r22
    25a0:	17 06       	cpc	r1, r23
    25a2:	18 06       	cpc	r1, r24
    25a4:	99 1f       	adc	r25, r25
    25a6:	f1 cf       	rjmp	.-30     	; 0x258a <__fp_splitA+0xc>
    25a8:	86 95       	lsr	r24
    25aa:	71 05       	cpc	r23, r1
    25ac:	61 05       	cpc	r22, r1
    25ae:	08 94       	sec
    25b0:	08 95       	ret

Disassembly of section .text.avrlibc.fplib:

00003036 <__fp_zero>:
    3036:	e8 94       	clt

00003038 <__fp_szero>:
    3038:	bb 27       	eor	r27, r27
    303a:	66 27       	eor	r22, r22
    303c:	77 27       	eor	r23, r23
    303e:	cb 01       	movw	r24, r22
    3040:	97 f9       	bld	r25, 7
    3042:	08 95       	ret

Disassembly of section .text.libgcc:

0000308c <__tablejump2__>:
    308c:	ee 0f       	add	r30, r30
    308e:	ff 1f       	adc	r31, r31
    3090:	05 90       	lpm	r0, Z+
    3092:	f4 91       	lpm	r31, Z
    3094:	e0 2d       	mov	r30, r0
    3096:	09 94       	ijmp

Disassembly of section .text.libgcc.mul:

00002d9c <__umulhisi3>:
    2d9c:	a2 9f       	mul	r26, r18
    2d9e:	b0 01       	movw	r22, r0
    2da0:	b3 9f       	mul	r27, r19
    2da2:	c0 01       	movw	r24, r0
    2da4:	a3 9f       	mul	r26, r19
    2da6:	70 0d       	add	r23, r0
    2da8:	81 1d       	adc	r24, r1
    2daa:	11 24       	eor	r1, r1
    2dac:	91 1d       	adc	r25, r1
    2dae:	b2 9f       	mul	r27, r18
    2db0:	70 0d       	add	r23, r0
    2db2:	81 1d       	adc	r24, r1
    2db4:	11 24       	eor	r1, r1
    2db6:	91 1d       	adc	r25, r1
    2db8:	08 95       	ret

Disassembly of section .text.libgcc:

00002e7e <__movmemx_qi>:
    2e7e:	99 27       	eor	r25, r25

00002e80 <__movmemx_hi>:
    2e80:	77 fd       	sbrc	r23, 7
    2e82:	05 c0       	rjmp	.+10     	; 0x2e8e <__movmemx_hi+0xe>
    2e84:	05 90       	lpm	r0, Z+
    2e86:	0d 92       	st	X+, r0
    2e88:	01 97       	sbiw	r24, 0x01	; 1
    2e8a:	e1 f7       	brne	.-8      	; 0x2e84 <__movmemx_hi+0x4>
    2e8c:	08 95       	ret
    2e8e:	01 90       	ld	r0, Z+
    2e90:	0d 92       	st	X+, r0
    2e92:	01 97       	sbiw	r24, 0x01	; 1
    2e94:	e1 f7       	brne	.-8      	; 0x2e8e <__movmemx_hi+0xe>
    2e96:	08 95       	ret

Disassembly of section .text.avrlibc:

00002a92 <memcpy>:
    2a92:	cf 92       	push	r12
    2a94:	df 92       	push	r13
    2a96:	ef 92       	push	r14
    2a98:	dc 01       	movw	r26, r24
    2a9a:	6a 01       	movw	r12, r20
    2a9c:	e6 2e       	mov	r14, r22
    2a9e:	28 0f       	add	r18, r24
    2aa0:	39 1f       	adc	r19, r25
    2aa2:	a2 17       	cp	r26, r18
    2aa4:	b3 07       	cpc	r27, r19
    2aa6:	51 f0       	breq	.+20     	; 0x2abc <memcpy+0x2a>
    2aa8:	f6 01       	movw	r30, r12
    2aaa:	44 91       	lpm	r20, Z
    2aac:	e7 fc       	sbrc	r14, 7
    2aae:	40 81       	ld	r20, Z
    2ab0:	4d 93       	st	X+, r20
    2ab2:	4f ef       	ldi	r20, 0xFF	; 255
    2ab4:	c4 1a       	sub	r12, r20
    2ab6:	d4 0a       	sbc	r13, r20
    2ab8:	e4 0a       	sbc	r14, r20
    2aba:	f3 cf       	rjmp	.-26     	; 0x2aa2 <memcpy+0x10>
    2abc:	ef 90       	pop	r14
    2abe:	df 90       	pop	r13
    2ac0:	cf 90       	pop	r12
    2ac2:	08 95       	ret

Disassembly of section .text.avrlibc:

00002636 <strcmp>:
    2636:	cf 92       	push	r12
    2638:	df 92       	push	r13
    263a:	ef 92       	push	r14
    263c:	6b 01       	movw	r12, r22
    263e:	e8 2e       	mov	r14, r24
    2640:	f6 01       	movw	r30, r12
    2642:	84 91       	lpm	r24, Z
    2644:	e7 fc       	sbrc	r14, 7
    2646:	80 81       	ld	r24, Z
    2648:	f9 01       	movw	r30, r18
    264a:	54 91       	lpm	r21, Z
    264c:	47 fd       	sbrc	r20, 7
    264e:	50 81       	ld	r21, Z
    2650:	85 13       	cpse	r24, r21
    2652:	0b c0       	rjmp	.+22     	; 0x266a <strcmp+0x34>
    2654:	88 23       	and	r24, r24
    2656:	41 f0       	breq	.+16     	; 0x2668 <strcmp+0x32>
    2658:	8f ef       	ldi	r24, 0xFF	; 255
    265a:	c8 1a       	sub	r12, r24
    265c:	d8 0a       	sbc	r13, r24
    265e:	e8 0a       	sbc	r14, r24
    2660:	2f 5f       	subi	r18, 0xFF	; 255
    2662:	3f 4f       	sbci	r19, 0xFF	; 255
    2664:	4f 4f       	sbci	r20, 0xFF	; 255
    2666:	ec cf       	rjmp	.-40     	; 0x2640 <strcmp+0xa>
    2668:	58 2f       	mov	r21, r24
    266a:	90 e0       	ldi	r25, 0x00	; 0
    266c:	85 1b       	sub	r24, r21
    266e:	91 09       	sbc	r25, r1
    2670:	ef 90       	pop	r14
    2672:	df 90       	pop	r13
    2674:	cf 90       	pop	r12
    2676:	08 95       	ret

Disassembly of section .text.avrlibc:

00001d5e <strncmp>:
    1d5e:	cf 92       	push	r12
    1d60:	df 92       	push	r13
    1d62:	ef 92       	push	r14
    1d64:	0f 93       	push	r16
    1d66:	1f 93       	push	r17
    1d68:	6b 01       	movw	r12, r22
    1d6a:	e8 2e       	mov	r14, r24
    1d6c:	01 15       	cp	r16, r1
    1d6e:	11 05       	cpc	r17, r1
    1d70:	19 f1       	breq	.+70     	; 0x1db8 <strncmp+0x5a>
    1d72:	01 50       	subi	r16, 0x01	; 1
    1d74:	11 09       	sbc	r17, r1
    1d76:	f6 01       	movw	r30, r12
    1d78:	84 91       	lpm	r24, Z
    1d7a:	e7 fc       	sbrc	r14, 7
    1d7c:	80 81       	ld	r24, Z
    1d7e:	88 23       	and	r24, r24
    1d80:	99 f0       	breq	.+38     	; 0x1da8 <strncmp+0x4a>
    1d82:	f9 01       	movw	r30, r18
    1d84:	94 91       	lpm	r25, Z
    1d86:	47 fd       	sbrc	r20, 7
    1d88:	90 81       	ld	r25, Z
    1d8a:	99 23       	and	r25, r25
    1d8c:	69 f0       	breq	.+26     	; 0x1da8 <strncmp+0x4a>
    1d8e:	01 15       	cp	r16, r1
    1d90:	11 05       	cpc	r17, r1
    1d92:	51 f0       	breq	.+20     	; 0x1da8 <strncmp+0x4a>
    1d94:	89 13       	cpse	r24, r25
    1d96:	08 c0       	rjmp	.+16     	; 0x1da8 <strncmp+0x4a>
    1d98:	8f ef       	ldi	r24, 0xFF	; 255
    1d9a:	c8 1a       	sub	r12, r24
    1d9c:	d8 0a       	sbc	r13, r24
    1d9e:	e8 0a       	sbc	r14, r24
    1da0:	2f 5f       	subi	r18, 0xFF	; 255
    1da2:	3f 4f       	sbci	r19, 0xFF	; 255
    1da4:	4f 4f       	sbci	r20, 0xFF	; 255
    1da6:	e5 cf       	rjmp	.-54     	; 0x1d72 <strncmp+0x14>
    1da8:	90 e0       	ldi	r25, 0x00	; 0
    1daa:	f9 01       	movw	r30, r18
    1dac:	24 91       	lpm	r18, Z
    1dae:	47 fd       	sbrc	r20, 7
    1db0:	20 81       	ld	r18, Z
    1db2:	82 1b       	sub	r24, r18
    1db4:	91 09       	sbc	r25, r1
    1db6:	02 c0       	rjmp	.+4      	; 0x1dbc <strncmp+0x5e>
    1db8:	80 e0       	ldi	r24, 0x00	; 0
    1dba:	90 e0       	ldi	r25, 0x00	; 0
    1dbc:	1f 91       	pop	r17
    1dbe:	0f 91       	pop	r16
    1dc0:	ef 90       	pop	r14
    1dc2:	df 90       	pop	r13
    1dc4:	cf 90       	pop	r12
    1dc6:	08 95       	ret

Disassembly of section .text.avrlibc:

00002bb0 <strlen>:
    2bb0:	cf 92       	push	r12
    2bb2:	df 92       	push	r13
    2bb4:	ef 92       	push	r14
    2bb6:	6b 01       	movw	r12, r22
    2bb8:	e8 2e       	mov	r14, r24
    2bba:	a8 2f       	mov	r26, r24
    2bbc:	cb 01       	movw	r24, r22
    2bbe:	fc 01       	movw	r30, r24
    2bc0:	24 91       	lpm	r18, Z
    2bc2:	a7 fd       	sbrc	r26, 7
    2bc4:	20 81       	ld	r18, Z
    2bc6:	22 23       	and	r18, r18
    2bc8:	19 f0       	breq	.+6      	; 0x2bd0 <strlen+0x20>
    2bca:	01 96       	adiw	r24, 0x01	; 1
    2bcc:	a1 1d       	adc	r26, r1
    2bce:	f7 cf       	rjmp	.-18     	; 0x2bbe <strlen+0xe>
    2bd0:	8c 19       	sub	r24, r12
    2bd2:	9d 09       	sbc	r25, r13
    2bd4:	ef 90       	pop	r14
    2bd6:	df 90       	pop	r13
    2bd8:	cf 90       	pop	r12
    2bda:	08 95       	ret

Disassembly of section .text.avrlibc:

00002dba <strcpy>:
    2dba:	9a 01       	movw	r18, r20
    2dbc:	46 2f       	mov	r20, r22
    2dbe:	dc 01       	movw	r26, r24
    2dc0:	f9 01       	movw	r30, r18
    2dc2:	54 91       	lpm	r21, Z
    2dc4:	47 fd       	sbrc	r20, 7
    2dc6:	50 81       	ld	r21, Z
    2dc8:	5d 93       	st	X+, r21
    2dca:	55 23       	and	r21, r21
    2dcc:	21 f0       	breq	.+8      	; 0x2dd6 <strcpy+0x1c>
    2dce:	2f 5f       	subi	r18, 0xFF	; 255
    2dd0:	3f 4f       	sbci	r19, 0xFF	; 255
    2dd2:	4f 4f       	sbci	r20, 0xFF	; 255
    2dd4:	f5 cf       	rjmp	.-22     	; 0x2dc0 <strcpy+0x6>
    2dd6:	08 95       	ret

Disassembly of section .text.avrlibc:

000024e4 <sprintf>:
    24e4:	af e0       	ldi	r26, 0x0F	; 15
    24e6:	b0 e0       	ldi	r27, 0x00	; 0
    24e8:	e8 e7       	ldi	r30, 0x78	; 120
    24ea:	f2 e1       	ldi	r31, 0x12	; 18
    24ec:	0c 94 1d 14 	jmp	0x283a	; 0x283a <__prologue_saves__+0x1c>
    24f0:	0e 89       	ldd	r16, Y+22	; 0x16
    24f2:	1f 89       	ldd	r17, Y+23	; 0x17
    24f4:	86 e0       	ldi	r24, 0x06	; 6
    24f6:	8d 83       	std	Y+5, r24	; 0x05
    24f8:	1a 83       	std	Y+2, r17	; 0x02
    24fa:	09 83       	std	Y+1, r16	; 0x01
    24fc:	8f ef       	ldi	r24, 0xFF	; 255
    24fe:	9f e7       	ldi	r25, 0x7F	; 127
    2500:	9f 83       	std	Y+7, r25	; 0x07
    2502:	8e 83       	std	Y+6, r24	; 0x06
    2504:	9e 01       	movw	r18, r28
    2506:	25 5e       	subi	r18, 0xE5	; 229
    2508:	3f 4f       	sbci	r19, 0xFF	; 255
    250a:	48 8d       	ldd	r20, Y+24	; 0x18
    250c:	59 8d       	ldd	r21, Y+25	; 0x19
    250e:	6a 8d       	ldd	r22, Y+26	; 0x1a
    2510:	ce 01       	movw	r24, r28
    2512:	01 96       	adiw	r24, 0x01	; 1
    2514:	0e 94 89 01 	call	0x312	; 0x312 <vfprintf>
    2518:	e8 85       	ldd	r30, Y+8	; 0x08
    251a:	f9 85       	ldd	r31, Y+9	; 0x09
    251c:	e0 0f       	add	r30, r16
    251e:	f1 1f       	adc	r31, r17
    2520:	10 82       	st	Z, r1
    2522:	2f 96       	adiw	r28, 0x0f	; 15
    2524:	e4 e0       	ldi	r30, 0x04	; 4
    2526:	0c 94 8a 14 	jmp	0x2914	; 0x2914 <__epilogue_restores__+0x1c>

Disassembly of section .text.avrlibc:

00000312 <vfprintf>:
 312:	2f 92       	push	r2
 314:	3f 92       	push	r3
 316:	4f 92       	push	r4
 318:	6f 92       	push	r6
 31a:	7f 92       	push	r7
 31c:	8f 92       	push	r8
 31e:	9f 92       	push	r9
 320:	af 92       	push	r10
 322:	bf 92       	push	r11
 324:	cf 92       	push	r12
 326:	df 92       	push	r13
 328:	ef 92       	push	r14
 32a:	ff 92       	push	r15
 32c:	0f 93       	push	r16
 32e:	1f 93       	push	r17
 330:	cf 93       	push	r28
 332:	df 93       	push	r29
 334:	cd b7       	in	r28, 0x3d	; 61
 336:	de b7       	in	r29, 0x3e	; 62
 338:	62 97       	sbiw	r28, 0x12	; 18
 33a:	0f b6       	in	r0, 0x3f	; 63
 33c:	f8 94       	cli
 33e:	de bf       	out	0x3e, r29	; 62
 340:	0f be       	out	0x3f, r0	; 63
 342:	cd bf       	out	0x3d, r28	; 61
 344:	6c 01       	movw	r12, r24
 346:	3a 01       	movw	r6, r20
 348:	86 2e       	mov	r8, r22
 34a:	79 01       	movw	r14, r18
 34c:	fc 01       	movw	r30, r24
 34e:	10 86       	std	Z+8, r1	; 0x08
 350:	17 82       	std	Z+7, r1	; 0x07
 352:	84 81       	ldd	r24, Z+4	; 0x04
 354:	81 ff       	sbrs	r24, 1
 356:	e7 c1       	rjmp	.+974    	; 0x726 <__LOCK_REGION_LENGTH__+0x326>
 358:	9e 01       	movw	r18, r28
 35a:	2f 5f       	subi	r18, 0xFF	; 255
 35c:	3f 4f       	sbci	r19, 0xFF	; 255
 35e:	3d 87       	std	Y+13, r19	; 0x0d
 360:	2c 87       	std	Y+12, r18	; 0x0c
 362:	c9 01       	movw	r24, r18
 364:	a0 e8       	ldi	r26, 0x80	; 128
 366:	88 8b       	std	Y+16, r24	; 0x10
 368:	99 8b       	std	Y+17, r25	; 0x11
 36a:	aa 8b       	std	Y+18, r26	; 0x12
 36c:	9f e3       	ldi	r25, 0x3F	; 63
 36e:	99 2e       	mov	r9, r25
 370:	f3 01       	movw	r30, r6
 372:	84 91       	lpm	r24, Z
 374:	87 fc       	sbrc	r8, 7
 376:	80 81       	ld	r24, Z
 378:	88 23       	and	r24, r24
 37a:	09 f4       	brne	.+2      	; 0x37e <vfprintf+0x6c>
 37c:	d0 c1       	rjmp	.+928    	; 0x71e <__LOCK_REGION_LENGTH__+0x31e>
 37e:	48 2d       	mov	r20, r8
 380:	93 01       	movw	r18, r6
 382:	2f 5f       	subi	r18, 0xFF	; 255
 384:	3f 4f       	sbci	r19, 0xFF	; 255
 386:	4f 4f       	sbci	r20, 0xFF	; 255
 388:	85 32       	cpi	r24, 0x25	; 37
 38a:	19 f0       	breq	.+6      	; 0x392 <vfprintf+0x80>
 38c:	39 01       	movw	r6, r18
 38e:	84 2e       	mov	r8, r20
 390:	0a c0       	rjmp	.+20     	; 0x3a6 <vfprintf+0x94>
 392:	f9 01       	movw	r30, r18
 394:	84 91       	lpm	r24, Z
 396:	47 fd       	sbrc	r20, 7
 398:	80 81       	ld	r24, Z
 39a:	92 e0       	ldi	r25, 0x02	; 2
 39c:	69 0e       	add	r6, r25
 39e:	71 1c       	adc	r7, r1
 3a0:	81 1c       	adc	r8, r1
 3a2:	85 32       	cpi	r24, 0x25	; 37
 3a4:	29 f4       	brne	.+10     	; 0x3b0 <vfprintf+0x9e>
 3a6:	b6 01       	movw	r22, r12
 3a8:	90 e0       	ldi	r25, 0x00	; 0
 3aa:	0e 94 94 0d 	call	0x1b28	; 0x1b28 <fputc>
 3ae:	e0 cf       	rjmp	.-64     	; 0x370 <vfprintf+0x5e>
 3b0:	b1 2c       	mov	r11, r1
 3b2:	00 e0       	ldi	r16, 0x00	; 0
 3b4:	10 e0       	ldi	r17, 0x00	; 0
 3b6:	10 32       	cpi	r17, 0x20	; 32
 3b8:	a0 f4       	brcc	.+40     	; 0x3e2 <vfprintf+0xd0>
 3ba:	8b 32       	cpi	r24, 0x2B	; 43
 3bc:	69 f0       	breq	.+26     	; 0x3d8 <vfprintf+0xc6>
 3be:	30 f4       	brcc	.+12     	; 0x3cc <vfprintf+0xba>
 3c0:	80 32       	cpi	r24, 0x20	; 32
 3c2:	59 f0       	breq	.+22     	; 0x3da <vfprintf+0xc8>
 3c4:	83 32       	cpi	r24, 0x23	; 35
 3c6:	69 f4       	brne	.+26     	; 0x3e2 <vfprintf+0xd0>
 3c8:	10 61       	ori	r17, 0x10	; 16
 3ca:	2c c0       	rjmp	.+88     	; 0x424 <__LOCK_REGION_LENGTH__+0x24>
 3cc:	8d 32       	cpi	r24, 0x2D	; 45
 3ce:	39 f0       	breq	.+14     	; 0x3de <vfprintf+0xcc>
 3d0:	80 33       	cpi	r24, 0x30	; 48
 3d2:	39 f4       	brne	.+14     	; 0x3e2 <vfprintf+0xd0>
 3d4:	11 60       	ori	r17, 0x01	; 1
 3d6:	26 c0       	rjmp	.+76     	; 0x424 <__LOCK_REGION_LENGTH__+0x24>
 3d8:	12 60       	ori	r17, 0x02	; 2
 3da:	14 60       	ori	r17, 0x04	; 4
 3dc:	23 c0       	rjmp	.+70     	; 0x424 <__LOCK_REGION_LENGTH__+0x24>
 3de:	18 60       	ori	r17, 0x08	; 8
 3e0:	21 c0       	rjmp	.+66     	; 0x424 <__LOCK_REGION_LENGTH__+0x24>
 3e2:	17 fd       	sbrc	r17, 7
 3e4:	29 c0       	rjmp	.+82     	; 0x438 <__LOCK_REGION_LENGTH__+0x38>
 3e6:	90 ed       	ldi	r25, 0xD0	; 208
 3e8:	98 0f       	add	r25, r24
 3ea:	9a 30       	cpi	r25, 0x0A	; 10
 3ec:	78 f4       	brcc	.+30     	; 0x40c <__LOCK_REGION_LENGTH__+0xc>
 3ee:	16 ff       	sbrs	r17, 6
 3f0:	06 c0       	rjmp	.+12     	; 0x3fe <vfprintf+0xec>
 3f2:	aa e0       	ldi	r26, 0x0A	; 10
 3f4:	ba 9e       	mul	r11, r26
 3f6:	90 0d       	add	r25, r0
 3f8:	11 24       	eor	r1, r1
 3fa:	b9 2e       	mov	r11, r25
 3fc:	13 c0       	rjmp	.+38     	; 0x424 <__LOCK_REGION_LENGTH__+0x24>
 3fe:	ea e0       	ldi	r30, 0x0A	; 10
 400:	0e 9f       	mul	r16, r30
 402:	90 0d       	add	r25, r0
 404:	11 24       	eor	r1, r1
 406:	09 2f       	mov	r16, r25
 408:	10 62       	ori	r17, 0x20	; 32
 40a:	0c c0       	rjmp	.+24     	; 0x424 <__LOCK_REGION_LENGTH__+0x24>
 40c:	8e 32       	cpi	r24, 0x2E	; 46
 40e:	21 f4       	brne	.+8      	; 0x418 <__LOCK_REGION_LENGTH__+0x18>
 410:	16 fd       	sbrc	r17, 6
 412:	85 c1       	rjmp	.+778    	; 0x71e <__LOCK_REGION_LENGTH__+0x31e>
 414:	10 64       	ori	r17, 0x40	; 64
 416:	06 c0       	rjmp	.+12     	; 0x424 <__LOCK_REGION_LENGTH__+0x24>
 418:	8c 36       	cpi	r24, 0x6C	; 108
 41a:	11 f4       	brne	.+4      	; 0x420 <__LOCK_REGION_LENGTH__+0x20>
 41c:	10 68       	ori	r17, 0x80	; 128
 41e:	02 c0       	rjmp	.+4      	; 0x424 <__LOCK_REGION_LENGTH__+0x24>
 420:	88 36       	cpi	r24, 0x68	; 104
 422:	51 f4       	brne	.+20     	; 0x438 <__LOCK_REGION_LENGTH__+0x38>
 424:	f3 01       	movw	r30, r6
 426:	84 91       	lpm	r24, Z
 428:	87 fc       	sbrc	r8, 7
 42a:	80 81       	ld	r24, Z
 42c:	ff ef       	ldi	r31, 0xFF	; 255
 42e:	6f 1a       	sub	r6, r31
 430:	7f 0a       	sbc	r7, r31
 432:	8f 0a       	sbc	r8, r31
 434:	81 11       	cpse	r24, r1
 436:	bf cf       	rjmp	.-130    	; 0x3b6 <vfprintf+0xa4>
 438:	98 2f       	mov	r25, r24
 43a:	9f 7d       	andi	r25, 0xDF	; 223
 43c:	95 54       	subi	r25, 0x45	; 69
 43e:	93 30       	cpi	r25, 0x03	; 3
 440:	28 f4       	brcc	.+10     	; 0x44c <__LOCK_REGION_LENGTH__+0x4c>
 442:	24 e0       	ldi	r18, 0x04	; 4
 444:	e2 0e       	add	r14, r18
 446:	f1 1c       	adc	r15, r1
 448:	99 82       	std	Y+1, r9	; 0x01
 44a:	0f c0       	rjmp	.+30     	; 0x46a <__LOCK_REGION_LENGTH__+0x6a>
 44c:	83 36       	cpi	r24, 0x63	; 99
 44e:	31 f0       	breq	.+12     	; 0x45c <__LOCK_REGION_LENGTH__+0x5c>
 450:	83 37       	cpi	r24, 0x73	; 115
 452:	91 f0       	breq	.+36     	; 0x478 <__LOCK_REGION_LENGTH__+0x78>
 454:	83 35       	cpi	r24, 0x53	; 83
 456:	09 f0       	breq	.+2      	; 0x45a <__LOCK_REGION_LENGTH__+0x5a>
 458:	63 c0       	rjmp	.+198    	; 0x520 <__LOCK_REGION_LENGTH__+0x120>
 45a:	27 c0       	rjmp	.+78     	; 0x4aa <__LOCK_REGION_LENGTH__+0xaa>
 45c:	f7 01       	movw	r30, r14
 45e:	80 81       	ld	r24, Z
 460:	89 83       	std	Y+1, r24	; 0x01
 462:	97 01       	movw	r18, r14
 464:	2e 5f       	subi	r18, 0xFE	; 254
 466:	3f 4f       	sbci	r19, 0xFF	; 255
 468:	79 01       	movw	r14, r18
 46a:	28 88       	ldd	r2, Y+16	; 0x10
 46c:	39 88       	ldd	r3, Y+17	; 0x11
 46e:	4a 88       	ldd	r4, Y+18	; 0x12
 470:	aa 24       	eor	r10, r10
 472:	a3 94       	inc	r10
 474:	b1 2c       	mov	r11, r1
 476:	17 c0       	rjmp	.+46     	; 0x4a6 <__LOCK_REGION_LENGTH__+0xa6>
 478:	a7 01       	movw	r20, r14
 47a:	4d 5f       	subi	r20, 0xFD	; 253
 47c:	5f 4f       	sbci	r21, 0xFF	; 255
 47e:	5f 87       	std	Y+15, r21	; 0x0f
 480:	4e 87       	std	Y+14, r20	; 0x0e
 482:	f7 01       	movw	r30, r14
 484:	20 80       	ld	r2, Z
 486:	31 80       	ldd	r3, Z+1	; 0x01
 488:	42 80       	ldd	r4, Z+2	; 0x02
 48a:	16 ff       	sbrs	r17, 6
 48c:	03 c0       	rjmp	.+6      	; 0x494 <__LOCK_REGION_LENGTH__+0x94>
 48e:	4b 2d       	mov	r20, r11
 490:	50 e0       	ldi	r21, 0x00	; 0
 492:	02 c0       	rjmp	.+4      	; 0x498 <__LOCK_REGION_LENGTH__+0x98>
 494:	4f ef       	ldi	r20, 0xFF	; 255
 496:	5f ef       	ldi	r21, 0xFF	; 255
 498:	84 2d       	mov	r24, r4
 49a:	b1 01       	movw	r22, r2
 49c:	0e 94 61 14 	call	0x28c2	; 0x28c2 <strnlen>
 4a0:	5c 01       	movw	r10, r24
 4a2:	ee 84       	ldd	r14, Y+14	; 0x0e
 4a4:	ff 84       	ldd	r15, Y+15	; 0x0f
 4a6:	1f 77       	andi	r17, 0x7F	; 127
 4a8:	18 c0       	rjmp	.+48     	; 0x4da <__LOCK_REGION_LENGTH__+0xda>
 4aa:	97 01       	movw	r18, r14
 4ac:	2d 5f       	subi	r18, 0xFD	; 253
 4ae:	3f 4f       	sbci	r19, 0xFF	; 255
 4b0:	3f 87       	std	Y+15, r19	; 0x0f
 4b2:	2e 87       	std	Y+14, r18	; 0x0e
 4b4:	f7 01       	movw	r30, r14
 4b6:	20 80       	ld	r2, Z
 4b8:	31 80       	ldd	r3, Z+1	; 0x01
 4ba:	42 80       	ldd	r4, Z+2	; 0x02
 4bc:	16 ff       	sbrs	r17, 6
 4be:	03 c0       	rjmp	.+6      	; 0x4c6 <__LOCK_REGION_LENGTH__+0xc6>
 4c0:	4b 2d       	mov	r20, r11
 4c2:	50 e0       	ldi	r21, 0x00	; 0
 4c4:	02 c0       	rjmp	.+4      	; 0x4ca <__LOCK_REGION_LENGTH__+0xca>
 4c6:	4f ef       	ldi	r20, 0xFF	; 255
 4c8:	5f ef       	ldi	r21, 0xFF	; 255
 4ca:	84 2d       	mov	r24, r4
 4cc:	b1 01       	movw	r22, r2
 4ce:	0e 94 61 14 	call	0x28c2	; 0x28c2 <strnlen>
 4d2:	5c 01       	movw	r10, r24
 4d4:	10 68       	ori	r17, 0x80	; 128
 4d6:	ee 84       	ldd	r14, Y+14	; 0x0e
 4d8:	ff 84       	ldd	r15, Y+15	; 0x0f
 4da:	13 fd       	sbrc	r17, 3
 4dc:	1d c0       	rjmp	.+58     	; 0x518 <__LOCK_REGION_LENGTH__+0x118>
 4de:	80 2f       	mov	r24, r16
 4e0:	90 e0       	ldi	r25, 0x00	; 0
 4e2:	a8 16       	cp	r10, r24
 4e4:	b9 06       	cpc	r11, r25
 4e6:	c0 f4       	brcc	.+48     	; 0x518 <__LOCK_REGION_LENGTH__+0x118>
 4e8:	b6 01       	movw	r22, r12
 4ea:	80 e2       	ldi	r24, 0x20	; 32
 4ec:	90 e0       	ldi	r25, 0x00	; 0
 4ee:	0e 94 94 0d 	call	0x1b28	; 0x1b28 <fputc>
 4f2:	01 50       	subi	r16, 0x01	; 1
 4f4:	f4 cf       	rjmp	.-24     	; 0x4de <__LOCK_REGION_LENGTH__+0xde>
 4f6:	f1 01       	movw	r30, r2
 4f8:	84 91       	lpm	r24, Z
 4fa:	47 fc       	sbrc	r4, 7
 4fc:	80 81       	ld	r24, Z
 4fe:	ff ef       	ldi	r31, 0xFF	; 255
 500:	2f 1a       	sub	r2, r31
 502:	3f 0a       	sbc	r3, r31
 504:	4f 0a       	sbc	r4, r31
 506:	b6 01       	movw	r22, r12
 508:	90 e0       	ldi	r25, 0x00	; 0
 50a:	0e 94 94 0d 	call	0x1b28	; 0x1b28 <fputc>
 50e:	01 11       	cpse	r16, r1
 510:	01 50       	subi	r16, 0x01	; 1
 512:	21 e0       	ldi	r18, 0x01	; 1
 514:	a2 1a       	sub	r10, r18
 516:	b1 08       	sbc	r11, r1
 518:	a1 14       	cp	r10, r1
 51a:	b1 04       	cpc	r11, r1
 51c:	61 f7       	brne	.-40     	; 0x4f6 <__LOCK_REGION_LENGTH__+0xf6>
 51e:	f5 c0       	rjmp	.+490    	; 0x70a <__LOCK_REGION_LENGTH__+0x30a>
 520:	84 36       	cpi	r24, 0x64	; 100
 522:	11 f0       	breq	.+4      	; 0x528 <__LOCK_REGION_LENGTH__+0x128>
 524:	89 36       	cpi	r24, 0x69	; 105
 526:	71 f5       	brne	.+92     	; 0x584 <__LOCK_REGION_LENGTH__+0x184>
 528:	f7 01       	movw	r30, r14
 52a:	17 ff       	sbrs	r17, 7
 52c:	08 c0       	rjmp	.+16     	; 0x53e <__LOCK_REGION_LENGTH__+0x13e>
 52e:	60 81       	ld	r22, Z
 530:	71 81       	ldd	r23, Z+1	; 0x01
 532:	82 81       	ldd	r24, Z+2	; 0x02
 534:	93 81       	ldd	r25, Z+3	; 0x03
 536:	97 01       	movw	r18, r14
 538:	2c 5f       	subi	r18, 0xFC	; 252
 53a:	3f 4f       	sbci	r19, 0xFF	; 255
 53c:	09 c0       	rjmp	.+18     	; 0x550 <__LOCK_REGION_LENGTH__+0x150>
 53e:	60 81       	ld	r22, Z
 540:	71 81       	ldd	r23, Z+1	; 0x01
 542:	07 2e       	mov	r0, r23
 544:	00 0c       	add	r0, r0
 546:	88 0b       	sbc	r24, r24
 548:	99 0b       	sbc	r25, r25
 54a:	97 01       	movw	r18, r14
 54c:	2e 5f       	subi	r18, 0xFE	; 254
 54e:	3f 4f       	sbci	r19, 0xFF	; 255
 550:	79 01       	movw	r14, r18
 552:	1f 76       	andi	r17, 0x6F	; 111
 554:	31 2e       	mov	r3, r17
 556:	97 ff       	sbrs	r25, 7
 558:	0a c0       	rjmp	.+20     	; 0x56e <__LOCK_REGION_LENGTH__+0x16e>
 55a:	90 95       	com	r25
 55c:	80 95       	com	r24
 55e:	70 95       	com	r23
 560:	61 95       	neg	r22
 562:	7f 4f       	sbci	r23, 0xFF	; 255
 564:	8f 4f       	sbci	r24, 0xFF	; 255
 566:	9f 4f       	sbci	r25, 0xFF	; 255
 568:	31 2f       	mov	r19, r17
 56a:	30 68       	ori	r19, 0x80	; 128
 56c:	33 2e       	mov	r3, r19
 56e:	2a e0       	ldi	r18, 0x0A	; 10
 570:	30 e0       	ldi	r19, 0x00	; 0
 572:	ae 01       	movw	r20, r28
 574:	4f 5f       	subi	r20, 0xFF	; 255
 576:	5f 4f       	sbci	r21, 0xFF	; 255
 578:	0e 94 fd 09 	call	0x13fa	; 0x13fa <__ultoa_invert>
 57c:	48 2e       	mov	r4, r24
 57e:	4c 85       	ldd	r20, Y+12	; 0x0c
 580:	44 1a       	sub	r4, r20
 582:	4a c0       	rjmp	.+148    	; 0x618 <__LOCK_REGION_LENGTH__+0x218>
 584:	85 37       	cpi	r24, 0x75	; 117
 586:	29 f4       	brne	.+10     	; 0x592 <__LOCK_REGION_LENGTH__+0x192>
 588:	1f 7e       	andi	r17, 0xEF	; 239
 58a:	a1 2e       	mov	r10, r17
 58c:	2a e0       	ldi	r18, 0x0A	; 10
 58e:	30 e0       	ldi	r19, 0x00	; 0
 590:	25 c0       	rjmp	.+74     	; 0x5dc <__LOCK_REGION_LENGTH__+0x1dc>
 592:	51 2f       	mov	r21, r17
 594:	59 7f       	andi	r21, 0xF9	; 249
 596:	a5 2e       	mov	r10, r21
 598:	8f 36       	cpi	r24, 0x6F	; 111
 59a:	c1 f0       	breq	.+48     	; 0x5cc <__LOCK_REGION_LENGTH__+0x1cc>
 59c:	18 f4       	brcc	.+6      	; 0x5a4 <__LOCK_REGION_LENGTH__+0x1a4>
 59e:	88 35       	cpi	r24, 0x58	; 88
 5a0:	79 f0       	breq	.+30     	; 0x5c0 <__LOCK_REGION_LENGTH__+0x1c0>
 5a2:	bd c0       	rjmp	.+378    	; 0x71e <__LOCK_REGION_LENGTH__+0x31e>
 5a4:	80 37       	cpi	r24, 0x70	; 112
 5a6:	19 f0       	breq	.+6      	; 0x5ae <__LOCK_REGION_LENGTH__+0x1ae>
 5a8:	88 37       	cpi	r24, 0x78	; 120
 5aa:	21 f0       	breq	.+8      	; 0x5b4 <__LOCK_REGION_LENGTH__+0x1b4>
 5ac:	b8 c0       	rjmp	.+368    	; 0x71e <__LOCK_REGION_LENGTH__+0x31e>
 5ae:	85 2f       	mov	r24, r21
 5b0:	80 61       	ori	r24, 0x10	; 16
 5b2:	a8 2e       	mov	r10, r24
 5b4:	a4 fe       	sbrs	r10, 4
 5b6:	0d c0       	rjmp	.+26     	; 0x5d2 <__LOCK_REGION_LENGTH__+0x1d2>
 5b8:	9a 2d       	mov	r25, r10
 5ba:	94 60       	ori	r25, 0x04	; 4
 5bc:	a9 2e       	mov	r10, r25
 5be:	09 c0       	rjmp	.+18     	; 0x5d2 <__LOCK_REGION_LENGTH__+0x1d2>
 5c0:	14 ff       	sbrs	r17, 4
 5c2:	0a c0       	rjmp	.+20     	; 0x5d8 <__LOCK_REGION_LENGTH__+0x1d8>
 5c4:	a5 2f       	mov	r26, r21
 5c6:	a6 60       	ori	r26, 0x06	; 6
 5c8:	aa 2e       	mov	r10, r26
 5ca:	06 c0       	rjmp	.+12     	; 0x5d8 <__LOCK_REGION_LENGTH__+0x1d8>
 5cc:	28 e0       	ldi	r18, 0x08	; 8
 5ce:	30 e0       	ldi	r19, 0x00	; 0
 5d0:	05 c0       	rjmp	.+10     	; 0x5dc <__LOCK_REGION_LENGTH__+0x1dc>
 5d2:	20 e1       	ldi	r18, 0x10	; 16
 5d4:	30 e0       	ldi	r19, 0x00	; 0
 5d6:	02 c0       	rjmp	.+4      	; 0x5dc <__LOCK_REGION_LENGTH__+0x1dc>
 5d8:	20 e1       	ldi	r18, 0x10	; 16
 5da:	32 e0       	ldi	r19, 0x02	; 2
 5dc:	f7 01       	movw	r30, r14
 5de:	a7 fe       	sbrs	r10, 7
 5e0:	08 c0       	rjmp	.+16     	; 0x5f2 <__LOCK_REGION_LENGTH__+0x1f2>
 5e2:	60 81       	ld	r22, Z
 5e4:	71 81       	ldd	r23, Z+1	; 0x01
 5e6:	82 81       	ldd	r24, Z+2	; 0x02
 5e8:	93 81       	ldd	r25, Z+3	; 0x03
 5ea:	a7 01       	movw	r20, r14
 5ec:	4c 5f       	subi	r20, 0xFC	; 252
 5ee:	5f 4f       	sbci	r21, 0xFF	; 255
 5f0:	07 c0       	rjmp	.+14     	; 0x600 <__LOCK_REGION_LENGTH__+0x200>
 5f2:	60 81       	ld	r22, Z
 5f4:	71 81       	ldd	r23, Z+1	; 0x01
 5f6:	80 e0       	ldi	r24, 0x00	; 0
 5f8:	90 e0       	ldi	r25, 0x00	; 0
 5fa:	a7 01       	movw	r20, r14
 5fc:	4e 5f       	subi	r20, 0xFE	; 254
 5fe:	5f 4f       	sbci	r21, 0xFF	; 255
 600:	7a 01       	movw	r14, r20
 602:	ae 01       	movw	r20, r28
 604:	4f 5f       	subi	r20, 0xFF	; 255
 606:	5f 4f       	sbci	r21, 0xFF	; 255
 608:	0e 94 fd 09 	call	0x13fa	; 0x13fa <__ultoa_invert>
 60c:	48 2e       	mov	r4, r24
 60e:	5c 85       	ldd	r21, Y+12	; 0x0c
 610:	45 1a       	sub	r4, r21
 612:	8a 2d       	mov	r24, r10
 614:	8f 77       	andi	r24, 0x7F	; 127
 616:	38 2e       	mov	r3, r24
 618:	36 fe       	sbrs	r3, 6
 61a:	0d c0       	rjmp	.+26     	; 0x636 <__LOCK_REGION_LENGTH__+0x236>
 61c:	93 2d       	mov	r25, r3
 61e:	9e 7f       	andi	r25, 0xFE	; 254
 620:	a9 2e       	mov	r10, r25
 622:	4b 14       	cp	r4, r11
 624:	58 f4       	brcc	.+22     	; 0x63c <__LOCK_REGION_LENGTH__+0x23c>
 626:	34 fe       	sbrs	r3, 4
 628:	0b c0       	rjmp	.+22     	; 0x640 <__LOCK_REGION_LENGTH__+0x240>
 62a:	32 fc       	sbrc	r3, 2
 62c:	09 c0       	rjmp	.+18     	; 0x640 <__LOCK_REGION_LENGTH__+0x240>
 62e:	a3 2d       	mov	r26, r3
 630:	ae 7e       	andi	r26, 0xEE	; 238
 632:	aa 2e       	mov	r10, r26
 634:	05 c0       	rjmp	.+10     	; 0x640 <__LOCK_REGION_LENGTH__+0x240>
 636:	14 2d       	mov	r17, r4
 638:	a3 2c       	mov	r10, r3
 63a:	03 c0       	rjmp	.+6      	; 0x642 <__LOCK_REGION_LENGTH__+0x242>
 63c:	14 2d       	mov	r17, r4
 63e:	01 c0       	rjmp	.+2      	; 0x642 <__LOCK_REGION_LENGTH__+0x242>
 640:	1b 2d       	mov	r17, r11
 642:	a4 fe       	sbrs	r10, 4
 644:	0e c0       	rjmp	.+28     	; 0x662 <__LOCK_REGION_LENGTH__+0x262>
 646:	fe 01       	movw	r30, r28
 648:	e4 0d       	add	r30, r4
 64a:	f1 1d       	adc	r31, r1
 64c:	80 81       	ld	r24, Z
 64e:	80 33       	cpi	r24, 0x30	; 48
 650:	21 f4       	brne	.+8      	; 0x65a <__LOCK_REGION_LENGTH__+0x25a>
 652:	ea 2d       	mov	r30, r10
 654:	e9 7e       	andi	r30, 0xE9	; 233
 656:	ae 2e       	mov	r10, r30
 658:	08 c0       	rjmp	.+16     	; 0x66a <__LOCK_REGION_LENGTH__+0x26a>
 65a:	a2 fe       	sbrs	r10, 2
 65c:	05 c0       	rjmp	.+10     	; 0x668 <__LOCK_REGION_LENGTH__+0x268>
 65e:	1e 5f       	subi	r17, 0xFE	; 254
 660:	04 c0       	rjmp	.+8      	; 0x66a <__LOCK_REGION_LENGTH__+0x26a>
 662:	8a 2d       	mov	r24, r10
 664:	86 78       	andi	r24, 0x86	; 134
 666:	09 f0       	breq	.+2      	; 0x66a <__LOCK_REGION_LENGTH__+0x26a>
 668:	1f 5f       	subi	r17, 0xFF	; 255
 66a:	a3 fc       	sbrc	r10, 3
 66c:	11 c0       	rjmp	.+34     	; 0x690 <__LOCK_REGION_LENGTH__+0x290>
 66e:	a0 fe       	sbrs	r10, 0
 670:	06 c0       	rjmp	.+12     	; 0x67e <__LOCK_REGION_LENGTH__+0x27e>
 672:	10 17       	cp	r17, r16
 674:	88 f4       	brcc	.+34     	; 0x698 <__LOCK_REGION_LENGTH__+0x298>
 676:	04 0d       	add	r16, r4
 678:	b0 2e       	mov	r11, r16
 67a:	b1 1a       	sub	r11, r17
 67c:	0e c0       	rjmp	.+28     	; 0x69a <__LOCK_REGION_LENGTH__+0x29a>
 67e:	10 17       	cp	r17, r16
 680:	60 f4       	brcc	.+24     	; 0x69a <__LOCK_REGION_LENGTH__+0x29a>
 682:	b6 01       	movw	r22, r12
 684:	80 e2       	ldi	r24, 0x20	; 32
 686:	90 e0       	ldi	r25, 0x00	; 0
 688:	0e 94 94 0d 	call	0x1b28	; 0x1b28 <fputc>
 68c:	1f 5f       	subi	r17, 0xFF	; 255
 68e:	f7 cf       	rjmp	.-18     	; 0x67e <__LOCK_REGION_LENGTH__+0x27e>
 690:	10 17       	cp	r17, r16
 692:	18 f4       	brcc	.+6      	; 0x69a <__LOCK_REGION_LENGTH__+0x29a>
 694:	01 1b       	sub	r16, r17
 696:	02 c0       	rjmp	.+4      	; 0x69c <__LOCK_REGION_LENGTH__+0x29c>
 698:	b4 2c       	mov	r11, r4
 69a:	00 e0       	ldi	r16, 0x00	; 0
 69c:	a4 fe       	sbrs	r10, 4
 69e:	10 c0       	rjmp	.+32     	; 0x6c0 <__LOCK_REGION_LENGTH__+0x2c0>
 6a0:	b6 01       	movw	r22, r12
 6a2:	80 e3       	ldi	r24, 0x30	; 48
 6a4:	90 e0       	ldi	r25, 0x00	; 0
 6a6:	0e 94 94 0d 	call	0x1b28	; 0x1b28 <fputc>
 6aa:	a2 fe       	sbrs	r10, 2
 6ac:	17 c0       	rjmp	.+46     	; 0x6dc <__LOCK_REGION_LENGTH__+0x2dc>
 6ae:	a1 fc       	sbrc	r10, 1
 6b0:	03 c0       	rjmp	.+6      	; 0x6b8 <__LOCK_REGION_LENGTH__+0x2b8>
 6b2:	88 e7       	ldi	r24, 0x78	; 120
 6b4:	90 e0       	ldi	r25, 0x00	; 0
 6b6:	02 c0       	rjmp	.+4      	; 0x6bc <__LOCK_REGION_LENGTH__+0x2bc>
 6b8:	88 e5       	ldi	r24, 0x58	; 88
 6ba:	90 e0       	ldi	r25, 0x00	; 0
 6bc:	b6 01       	movw	r22, r12
 6be:	0c c0       	rjmp	.+24     	; 0x6d8 <__LOCK_REGION_LENGTH__+0x2d8>
 6c0:	8a 2d       	mov	r24, r10
 6c2:	86 78       	andi	r24, 0x86	; 134
 6c4:	59 f0       	breq	.+22     	; 0x6dc <__LOCK_REGION_LENGTH__+0x2dc>
 6c6:	a1 fe       	sbrs	r10, 1
 6c8:	02 c0       	rjmp	.+4      	; 0x6ce <__LOCK_REGION_LENGTH__+0x2ce>
 6ca:	8b e2       	ldi	r24, 0x2B	; 43
 6cc:	01 c0       	rjmp	.+2      	; 0x6d0 <__LOCK_REGION_LENGTH__+0x2d0>
 6ce:	80 e2       	ldi	r24, 0x20	; 32
 6d0:	a7 fc       	sbrc	r10, 7
 6d2:	8d e2       	ldi	r24, 0x2D	; 45
 6d4:	b6 01       	movw	r22, r12
 6d6:	90 e0       	ldi	r25, 0x00	; 0
 6d8:	0e 94 94 0d 	call	0x1b28	; 0x1b28 <fputc>
 6dc:	4b 14       	cp	r4, r11
 6de:	38 f4       	brcc	.+14     	; 0x6ee <__LOCK_REGION_LENGTH__+0x2ee>
 6e0:	b6 01       	movw	r22, r12
 6e2:	80 e3       	ldi	r24, 0x30	; 48
 6e4:	90 e0       	ldi	r25, 0x00	; 0
 6e6:	0e 94 94 0d 	call	0x1b28	; 0x1b28 <fputc>
 6ea:	ba 94       	dec	r11
 6ec:	f7 cf       	rjmp	.-18     	; 0x6dc <__LOCK_REGION_LENGTH__+0x2dc>
 6ee:	4a 94       	dec	r4
 6f0:	e1 e0       	ldi	r30, 0x01	; 1
 6f2:	f0 e0       	ldi	r31, 0x00	; 0
 6f4:	ec 0f       	add	r30, r28
 6f6:	fd 1f       	adc	r31, r29
 6f8:	e4 0d       	add	r30, r4
 6fa:	f1 1d       	adc	r31, r1
 6fc:	80 81       	ld	r24, Z
 6fe:	b6 01       	movw	r22, r12
 700:	90 e0       	ldi	r25, 0x00	; 0
 702:	0e 94 94 0d 	call	0x1b28	; 0x1b28 <fputc>
 706:	41 10       	cpse	r4, r1
 708:	f2 cf       	rjmp	.-28     	; 0x6ee <__LOCK_REGION_LENGTH__+0x2ee>
 70a:	00 23       	and	r16, r16
 70c:	09 f4       	brne	.+2      	; 0x710 <__LOCK_REGION_LENGTH__+0x310>
 70e:	30 ce       	rjmp	.-928    	; 0x370 <vfprintf+0x5e>
 710:	b6 01       	movw	r22, r12
 712:	80 e2       	ldi	r24, 0x20	; 32
 714:	90 e0       	ldi	r25, 0x00	; 0
 716:	0e 94 94 0d 	call	0x1b28	; 0x1b28 <fputc>
 71a:	01 50       	subi	r16, 0x01	; 1
 71c:	f6 cf       	rjmp	.-20     	; 0x70a <__LOCK_REGION_LENGTH__+0x30a>
 71e:	f6 01       	movw	r30, r12
 720:	87 81       	ldd	r24, Z+7	; 0x07
 722:	90 85       	ldd	r25, Z+8	; 0x08
 724:	02 c0       	rjmp	.+4      	; 0x72a <__LOCK_REGION_LENGTH__+0x32a>
 726:	8f ef       	ldi	r24, 0xFF	; 255
 728:	9f ef       	ldi	r25, 0xFF	; 255
 72a:	62 96       	adiw	r28, 0x12	; 18
 72c:	0f b6       	in	r0, 0x3f	; 63
 72e:	f8 94       	cli
 730:	de bf       	out	0x3e, r29	; 62
 732:	0f be       	out	0x3f, r0	; 63
 734:	cd bf       	out	0x3d, r28	; 61
 736:	df 91       	pop	r29
 738:	cf 91       	pop	r28
 73a:	1f 91       	pop	r17
 73c:	0f 91       	pop	r16
 73e:	ff 90       	pop	r15
 740:	ef 90       	pop	r14
 742:	df 90       	pop	r13
 744:	cf 90       	pop	r12
 746:	bf 90       	pop	r11
 748:	af 90       	pop	r10
 74a:	9f 90       	pop	r9
 74c:	8f 90       	pop	r8
 74e:	7f 90       	pop	r7
 750:	6f 90       	pop	r6
 752:	4f 90       	pop	r4
 754:	3f 90       	pop	r3
 756:	2f 90       	pop	r2
 758:	08 95       	ret

Disassembly of section .text.avrlibc:

000028c2 <strnlen>:
    28c2:	cf 92       	push	r12
    28c4:	df 92       	push	r13
    28c6:	ef 92       	push	r14
    28c8:	6b 01       	movw	r12, r22
    28ca:	e8 2e       	mov	r14, r24
    28cc:	a8 2f       	mov	r26, r24
    28ce:	cb 01       	movw	r24, r22
    28d0:	41 15       	cp	r20, r1
    28d2:	51 05       	cpc	r21, r1
    28d4:	31 f4       	brne	.+12     	; 0x28e2 <strnlen+0x20>
    28d6:	8c 19       	sub	r24, r12
    28d8:	9d 09       	sbc	r25, r13
    28da:	ef 90       	pop	r14
    28dc:	df 90       	pop	r13
    28de:	cf 90       	pop	r12
    28e0:	08 95       	ret
    28e2:	fc 01       	movw	r30, r24
    28e4:	24 91       	lpm	r18, Z
    28e6:	a7 fd       	sbrc	r26, 7
    28e8:	20 81       	ld	r18, Z
    28ea:	22 23       	and	r18, r18
    28ec:	a1 f3       	breq	.-24     	; 0x28d6 <strnlen+0x14>
    28ee:	01 96       	adiw	r24, 0x01	; 1
    28f0:	a1 1d       	adc	r26, r1
    28f2:	41 50       	subi	r20, 0x01	; 1
    28f4:	51 09       	sbc	r21, r1
    28f6:	ec cf       	rjmp	.-40     	; 0x28d0 <strnlen+0xe>

Disassembly of section .text.avrlibc:

00001b28 <fputc>:
    1b28:	0f 93       	push	r16
    1b2a:	1f 93       	push	r17
    1b2c:	cf 93       	push	r28
    1b2e:	df 93       	push	r29
    1b30:	fb 01       	movw	r30, r22
    1b32:	24 81       	ldd	r18, Z+4	; 0x04
    1b34:	21 fd       	sbrc	r18, 1
    1b36:	03 c0       	rjmp	.+6      	; 0x1b3e <fputc+0x16>
    1b38:	8f ef       	ldi	r24, 0xFF	; 255
    1b3a:	9f ef       	ldi	r25, 0xFF	; 255
    1b3c:	2c c0       	rjmp	.+88     	; 0x1b96 <fputc+0x6e>
    1b3e:	22 ff       	sbrs	r18, 2
    1b40:	16 c0       	rjmp	.+44     	; 0x1b6e <fputc+0x46>
    1b42:	47 81       	ldd	r20, Z+7	; 0x07
    1b44:	50 85       	ldd	r21, Z+8	; 0x08
    1b46:	25 81       	ldd	r18, Z+5	; 0x05
    1b48:	36 81       	ldd	r19, Z+6	; 0x06
    1b4a:	42 17       	cp	r20, r18
    1b4c:	53 07       	cpc	r21, r19
    1b4e:	44 f4       	brge	.+16     	; 0x1b60 <fputc+0x38>
    1b50:	a0 81       	ld	r26, Z
    1b52:	b1 81       	ldd	r27, Z+1	; 0x01
    1b54:	9d 01       	movw	r18, r26
    1b56:	2f 5f       	subi	r18, 0xFF	; 255
    1b58:	3f 4f       	sbci	r19, 0xFF	; 255
    1b5a:	31 83       	std	Z+1, r19	; 0x01
    1b5c:	20 83       	st	Z, r18
    1b5e:	8c 93       	st	X, r24
    1b60:	27 81       	ldd	r18, Z+7	; 0x07
    1b62:	30 85       	ldd	r19, Z+8	; 0x08
    1b64:	2f 5f       	subi	r18, 0xFF	; 255
    1b66:	3f 4f       	sbci	r19, 0xFF	; 255
    1b68:	30 87       	std	Z+8, r19	; 0x08
    1b6a:	27 83       	std	Z+7, r18	; 0x07
    1b6c:	14 c0       	rjmp	.+40     	; 0x1b96 <fputc+0x6e>
    1b6e:	8b 01       	movw	r16, r22
    1b70:	ec 01       	movw	r28, r24
    1b72:	fb 01       	movw	r30, r22
    1b74:	01 84       	ldd	r0, Z+9	; 0x09
    1b76:	f2 85       	ldd	r31, Z+10	; 0x0a
    1b78:	e0 2d       	mov	r30, r0
    1b7a:	09 95       	icall
    1b7c:	89 2b       	or	r24, r25
    1b7e:	e1 f6       	brne	.-72     	; 0x1b38 <fputc+0x10>
    1b80:	d8 01       	movw	r26, r16
    1b82:	17 96       	adiw	r26, 0x07	; 7
    1b84:	8d 91       	ld	r24, X+
    1b86:	9c 91       	ld	r25, X
    1b88:	18 97       	sbiw	r26, 0x08	; 8
    1b8a:	01 96       	adiw	r24, 0x01	; 1
    1b8c:	18 96       	adiw	r26, 0x08	; 8
    1b8e:	9c 93       	st	X, r25
    1b90:	8e 93       	st	-X, r24
    1b92:	17 97       	sbiw	r26, 0x07	; 7
    1b94:	ce 01       	movw	r24, r28
    1b96:	df 91       	pop	r29
    1b98:	cf 91       	pop	r28
    1b9a:	1f 91       	pop	r17
    1b9c:	0f 91       	pop	r16
    1b9e:	08 95       	ret

Disassembly of section .text.avrlibc:

000013fa <__ultoa_invert>:
    13fa:	fa 01       	movw	r30, r20
    13fc:	aa 27       	eor	r26, r26
    13fe:	28 30       	cpi	r18, 0x08	; 8
    1400:	51 f1       	breq	.+84     	; 0x1456 <__ultoa_invert+0x5c>
    1402:	20 31       	cpi	r18, 0x10	; 16
    1404:	81 f1       	breq	.+96     	; 0x1466 <__ultoa_invert+0x6c>
    1406:	e8 94       	clt
    1408:	6f 93       	push	r22
    140a:	6e 7f       	andi	r22, 0xFE	; 254
    140c:	6e 5f       	subi	r22, 0xFE	; 254
    140e:	7f 4f       	sbci	r23, 0xFF	; 255
    1410:	8f 4f       	sbci	r24, 0xFF	; 255
    1412:	9f 4f       	sbci	r25, 0xFF	; 255
    1414:	af 4f       	sbci	r26, 0xFF	; 255
    1416:	b1 e0       	ldi	r27, 0x01	; 1
    1418:	3e d0       	rcall	.+124    	; 0x1496 <__ultoa_invert+0x9c>
    141a:	b4 e0       	ldi	r27, 0x04	; 4
    141c:	3c d0       	rcall	.+120    	; 0x1496 <__ultoa_invert+0x9c>
    141e:	67 0f       	add	r22, r23
    1420:	78 1f       	adc	r23, r24
    1422:	89 1f       	adc	r24, r25
    1424:	9a 1f       	adc	r25, r26
    1426:	a1 1d       	adc	r26, r1
    1428:	68 0f       	add	r22, r24
    142a:	79 1f       	adc	r23, r25
    142c:	8a 1f       	adc	r24, r26
    142e:	91 1d       	adc	r25, r1
    1430:	a1 1d       	adc	r26, r1
    1432:	6a 0f       	add	r22, r26
    1434:	71 1d       	adc	r23, r1
    1436:	81 1d       	adc	r24, r1
    1438:	91 1d       	adc	r25, r1
    143a:	a1 1d       	adc	r26, r1
    143c:	20 d0       	rcall	.+64     	; 0x147e <__ultoa_invert+0x84>
    143e:	09 f4       	brne	.+2      	; 0x1442 <__ultoa_invert+0x48>
    1440:	68 94       	set
    1442:	3f 91       	pop	r19
    1444:	2a e0       	ldi	r18, 0x0A	; 10
    1446:	26 9f       	mul	r18, r22
    1448:	11 24       	eor	r1, r1
    144a:	30 19       	sub	r19, r0
    144c:	30 5d       	subi	r19, 0xD0	; 208
    144e:	31 93       	st	Z+, r19
    1450:	de f6       	brtc	.-74     	; 0x1408 <__ultoa_invert+0xe>
    1452:	cf 01       	movw	r24, r30
    1454:	08 95       	ret
    1456:	46 2f       	mov	r20, r22
    1458:	47 70       	andi	r20, 0x07	; 7
    145a:	40 5d       	subi	r20, 0xD0	; 208
    145c:	41 93       	st	Z+, r20
    145e:	b3 e0       	ldi	r27, 0x03	; 3
    1460:	0f d0       	rcall	.+30     	; 0x1480 <__ultoa_invert+0x86>
    1462:	c9 f7       	brne	.-14     	; 0x1456 <__ultoa_invert+0x5c>
    1464:	f6 cf       	rjmp	.-20     	; 0x1452 <__ultoa_invert+0x58>
    1466:	46 2f       	mov	r20, r22
    1468:	4f 70       	andi	r20, 0x0F	; 15
    146a:	40 5d       	subi	r20, 0xD0	; 208
    146c:	4a 33       	cpi	r20, 0x3A	; 58
    146e:	18 f0       	brcs	.+6      	; 0x1476 <__ultoa_invert+0x7c>
    1470:	49 5d       	subi	r20, 0xD9	; 217
    1472:	31 fd       	sbrc	r19, 1
    1474:	40 52       	subi	r20, 0x20	; 32
    1476:	41 93       	st	Z+, r20
    1478:	02 d0       	rcall	.+4      	; 0x147e <__ultoa_invert+0x84>
    147a:	a9 f7       	brne	.-22     	; 0x1466 <__ultoa_invert+0x6c>
    147c:	ea cf       	rjmp	.-44     	; 0x1452 <__ultoa_invert+0x58>
    147e:	b4 e0       	ldi	r27, 0x04	; 4
    1480:	a6 95       	lsr	r26
    1482:	97 95       	ror	r25
    1484:	87 95       	ror	r24
    1486:	77 95       	ror	r23
    1488:	67 95       	ror	r22
    148a:	ba 95       	dec	r27
    148c:	c9 f7       	brne	.-14     	; 0x1480 <__ultoa_invert+0x86>
    148e:	00 97       	sbiw	r24, 0x00	; 0
    1490:	61 05       	cpc	r22, r1
    1492:	71 05       	cpc	r23, r1
    1494:	08 95       	ret
    1496:	9b 01       	movw	r18, r22
    1498:	ac 01       	movw	r20, r24
    149a:	0a 2e       	mov	r0, r26
    149c:	06 94       	lsr	r0
    149e:	57 95       	ror	r21
    14a0:	47 95       	ror	r20
    14a2:	37 95       	ror	r19
    14a4:	27 95       	ror	r18
    14a6:	ba 95       	dec	r27
    14a8:	c9 f7       	brne	.-14     	; 0x149c <__ultoa_invert+0xa2>
    14aa:	62 0f       	add	r22, r18
    14ac:	73 1f       	adc	r23, r19
    14ae:	84 1f       	adc	r24, r20
    14b0:	95 1f       	adc	r25, r21
    14b2:	a0 1d       	adc	r26, r0
    14b4:	08 95       	ret

Disassembly of section .text.libgcc.prologue:

0000281e <__prologue_saves__>:
    281e:	2f 92       	push	r2
    2820:	3f 92       	push	r3
    2822:	4f 92       	push	r4
    2824:	5f 92       	push	r5
    2826:	6f 92       	push	r6
    2828:	7f 92       	push	r7
    282a:	8f 92       	push	r8
    282c:	9f 92       	push	r9
    282e:	af 92       	push	r10
    2830:	bf 92       	push	r11
    2832:	cf 92       	push	r12
    2834:	df 92       	push	r13
    2836:	ef 92       	push	r14
    2838:	ff 92       	push	r15
    283a:	0f 93       	push	r16
    283c:	1f 93       	push	r17
    283e:	cf 93       	push	r28
    2840:	df 93       	push	r29
    2842:	cd b7       	in	r28, 0x3d	; 61
    2844:	de b7       	in	r29, 0x3e	; 62
    2846:	ca 1b       	sub	r28, r26
    2848:	db 0b       	sbc	r29, r27
    284a:	0f b6       	in	r0, 0x3f	; 63
    284c:	f8 94       	cli
    284e:	de bf       	out	0x3e, r29	; 62
    2850:	0f be       	out	0x3f, r0	; 63
    2852:	cd bf       	out	0x3d, r28	; 61
    2854:	09 94       	ijmp

Disassembly of section .text.libgcc.prologue:

000028f8 <__epilogue_restores__>:
    28f8:	2a 88       	ldd	r2, Y+18	; 0x12
    28fa:	39 88       	ldd	r3, Y+17	; 0x11
    28fc:	48 88       	ldd	r4, Y+16	; 0x10
    28fe:	5f 84       	ldd	r5, Y+15	; 0x0f
    2900:	6e 84       	ldd	r6, Y+14	; 0x0e
    2902:	7d 84       	ldd	r7, Y+13	; 0x0d
    2904:	8c 84       	ldd	r8, Y+12	; 0x0c
    2906:	9b 84       	ldd	r9, Y+11	; 0x0b
    2908:	aa 84       	ldd	r10, Y+10	; 0x0a
    290a:	b9 84       	ldd	r11, Y+9	; 0x09
    290c:	c8 84       	ldd	r12, Y+8	; 0x08
    290e:	df 80       	ldd	r13, Y+7	; 0x07
    2910:	ee 80       	ldd	r14, Y+6	; 0x06
    2912:	fd 80       	ldd	r15, Y+5	; 0x05
    2914:	0c 81       	ldd	r16, Y+4	; 0x04
    2916:	1b 81       	ldd	r17, Y+3	; 0x03
    2918:	aa 81       	ldd	r26, Y+2	; 0x02
    291a:	b9 81       	ldd	r27, Y+1	; 0x01
    291c:	ce 0f       	add	r28, r30
    291e:	d1 1d       	adc	r29, r1
    2920:	0f b6       	in	r0, 0x3f	; 63
    2922:	f8 94       	cli
    2924:	de bf       	out	0x3e, r29	; 62
    2926:	0f be       	out	0x3f, r0	; 63
    2928:	cd bf       	out	0x3d, r28	; 61
    292a:	ed 01       	movw	r28, r26
    292c:	08 95       	ret
