
methane_sensor_v0.elf:     file format elf32-avr

Sections:
Idx Name          Size      VMA       LMA       File off  Algn
  0 .data         00000000  00800100  00800100  00001026  2**0
                  ALLOC, LOAD, DATA
  1 .text         0000011a  00000000  00000000  000000d4  2**1
                  CONTENTS, ALLOC, LOAD, READONLY, CODE
  2 .bss          0000012c  00800100  00800100  00001026  2**0
                  ALLOC
  3 .comment      0000005b  00000000  00000000  00001026  2**0
                  CONTENTS, READONLY
  4 .debug_aranges 00000158  00000000  00000000  00001081  2**0
                  CONTENTS, READONLY, DEBUGGING
  5 .debug_info   000023d7  00000000  00000000  000011d9  2**0
                  CONTENTS, READONLY, DEBUGGING
  6 .debug_abbrev 00000ea2  00000000  00000000  000035b0  2**0
                  CONTENTS, READONLY, DEBUGGING
  7 .debug_line   00000aca  00000000  00000000  00004452  2**0
                  CONTENTS, READONLY, DEBUGGING
  8 .debug_frame  00000334  00000000  00000000  00004f1c  2**2
                  CONTENTS, READONLY, DEBUGGING
  9 .debug_str    000003ae  00000000  00000000  00005250  2**0
                  CONTENTS, READONLY, DEBUGGING
 10 .debug_loc    000007e8  00000000  00000000  000055fe  2**0
                  CONTENTS, READONLY, DEBUGGING
 11 .debug_ranges 000000f8  00000000  00000000  00005de6  2**0
                  CONTENTS, READONLY, DEBUGGING
 12 .text         00000004  00000f42  00000f42  00001016  2**1
                  CONTENTS, ALLOC, LOAD, READONLY, CODE
 13 .note.gnu.avr.deviceinfo 00000040  00000000  00000000  00005ee0  2**2
                  CONTENTS, READONLY, DEBUGGING
 14 .text.__vector_1 00000014  00000ece  00000ece  00000fa2  2**1
                  CONTENTS, ALLOC, LOAD, READONLY, CODE
 15 .text.uart0_hal_init 0000003c  00000d52  00000d52  00000e26  2**1
                  CONTENTS, ALLOC, LOAD, READONLY, CODE
 16 .text.uart0_hal_send_message 00000034  00000e32  00000e32  00000f06  2**1
                  CONTENTS, ALLOC, LOAD, READONLY, CODE
 17 .text.__vector_20 0000004a  00000c34  00000c34  00000d08  2**1
                  CONTENTS, ALLOC, LOAD, READONLY, CODE
 18 .text.__vector_18 00000074  00000a32  00000a32  00000b06  2**1
                  CONTENTS, ALLOC, LOAD, READONLY, CODE
 19 .bss.rx_buffer_has_message 00000001  00800364  00800364  00001026  2**0
                  ALLOC
 20 .bss.rx_buffer_data_len 00000001  00800365  00800365  00001026  2**0
                  ALLOC
 21 .bss.tx_buffer_cursor 00000001  00800366  00800366  00001026  2**0
                  ALLOC
 22 .bss.tx_buffer_data_len 00000001  00800367  00800367  00001026  2**0
                  ALLOC
 23 .text.__vector_30 0000004a  00000c7e  00000c7e  00000d52  2**1
                  CONTENTS, ALLOC, LOAD, READONLY, CODE
 24 .text.__vector_28 00000070  00000aa6  00000aa6  00000b7a  2**1
                  CONTENTS, ALLOC, LOAD, READONLY, CODE
 25 .bss.rx_buffer_has_message 00000001  00800368  00800368  00001026  2**0
                  ALLOC
 26 .bss.rx_buffer_data_len 00000001  00800369  00800369  00001026  2**0
                  ALLOC
 27 .bss.rx_buffer 00000064  008002f4  008002f4  00001026  2**0
                  ALLOC
 28 .bss.tx_buffer_cursor 00000001  0080036a  0080036a  00001026  2**0
                  ALLOC
 29 .bss.tx_buffer_data_len 00000001  0080036b  0080036b  00001026  2**0
                  ALLOC
 30 .bss.tx_buffer 000000c8  0080022c  0080022c  00001026  2**0
                  ALLOC
 31 .text.main    00000006  00000f36  00000f36  0000100a  2**1
                  CONTENTS, ALLOC, LOAD, READONLY, CODE
 32 .text.calc_ppm_methane 00000096  000008aa  000008aa  0000097e  2**1
                  CONTENTS, ALLOC, LOAD, READONLY, CODE
 33 .data.PPM_factor 00000004  00800358  00000f46  0000101a  2**0
                  CONTENTS, ALLOC, LOAD, DATA
 34 .data.RRL     00000004  0080035c  00000f4a  0000101e  2**0
                  CONTENTS, ALLOC, LOAD, DATA
 35 .data.Vc      00000004  00800360  00000f4e  00001022  2**0
                  CONTENTS, ALLOC, LOAD, DATA
 36 .progmemx.data 0000000b  0000011a  0000011a  000001ee  2**0
                  CONTENTS, ALLOC, LOAD, READONLY, PROGMEMX
 37 .text.test_calc_ppm_methane 0000006e  00000b16  00000b16  00000bea  2**1
                  CONTENTS, ALLOC, LOAD, READONLY, CODE
 38 .text.test_ADC_module_start 00000052  00000be2  00000be2  00000cb6  2**1
                  CONTENTS, ALLOC, LOAD, READONLY, CODE
 39 .text.avrlibc.fplib 0000000e  00000ee2  00000ee2  00000fb6  2**1
                  CONTENTS, ALLOC, LOAD, READONLY, CODE
 40 .text.avrlibc.fplib 000000ce  00000720  00000720  000007f4  2**1
                  CONTENTS, ALLOC, LOAD, READONLY, CODE
 41 .text.avrlibc.fplib 00000008  00000f26  00000f26  00000ffa  2**1
                  CONTENTS, ALLOC, LOAD, READONLY, CODE
 42 .text.avrlibc.fplib 000000de  0000056e  0000056e  00000642  2**1
                  CONTENTS, ALLOC, LOAD, READONLY, CODE
 43 .text.avrlibc.fplib 0000005e  00000b84  00000b84  00000c58  2**1
                  CONTENTS, ALLOC, LOAD, READONLY, CODE
 44 .text.avrlibc.fplib 0000007a  00000940  00000940  00000a14  2**1
                  CONTENTS, ALLOC, LOAD, READONLY, CODE
 45 .text.avrlibc.fplib 0000000c  00000f1a  00000f1a  00000fee  2**1
                  CONTENTS, ALLOC, LOAD, READONLY, CODE
 46 .text.avrlibc.fplib 00000006  00000f3c  00000f3c  00001010  2**1
                  CONTENTS, ALLOC, LOAD, READONLY, CODE
 47 .text.avrlibc.fplib 0000000e  00000ef0  00000ef0  00000fc4  2**1
                  CONTENTS, ALLOC, LOAD, READONLY, CODE
 48 .text.avrlibc.fplib 0000000e  00000efe  00000efe  00000fd2  2**1
                  CONTENTS, ALLOC, LOAD, READONLY, CODE
 49 .text.avrlibc.fplib 00000022  00000e92  00000e92  00000f66  2**1
                  CONTENTS, ALLOC, LOAD, READONLY, CODE
 50 .text.avrlibc.fplib 00000044  00000d0e  00000d0e  00000de2  2**1
                  CONTENTS, ALLOC, LOAD, READONLY, CODE
 51 .text.avrlibc.fplib 0000000e  00000f0c  00000f0c  00000fe0  2**1
                  CONTENTS, ALLOC, LOAD, READONLY, CODE
 52 .text.avrlibc.fplib 00000008  00000f2e  00000f2e  00001002  2**1
                  CONTENTS, ALLOC, LOAD, READONLY, CODE
 53 .text.avrlibc.fplib 000000d4  0000064c  0000064c  00000720  2**1
                  CONTENTS, ALLOC, LOAD, READONLY, CODE
 54 .text.libgcc  0000001a  00000eb4  00000eb4  00000f88  2**1
                  CONTENTS, ALLOC, LOAD, READONLY, CODE
 55 .text.avrlibc 0000002c  00000e66  00000e66  00000f3a  2**1
                  CONTENTS, ALLOC, LOAD, READONLY, CODE
 56 .text.avrlibc 00000046  00000cc8  00000cc8  00000d9c  2**1
                  CONTENTS, ALLOC, LOAD, READONLY, CODE
 57 .text.avrlibc 00000448  00000126  00000126  000001fa  2**1
                  CONTENTS, ALLOC, LOAD, READONLY, CODE
 58 .text.avrlibc 00000036  00000dc6  00000dc6  00000e9a  2**1
                  CONTENTS, ALLOC, LOAD, READONLY, CODE
 59 .text.avrlibc 00000078  000009ba  000009ba  00000a8e  2**1
                  CONTENTS, ALLOC, LOAD, READONLY, CODE
 60 .text.avrlibc 000000bc  000007ee  000007ee  000008c2  2**1
                  CONTENTS, ALLOC, LOAD, READONLY, CODE
 61 .text.libgcc.prologue 00000038  00000d8e  00000d8e  00000e62  2**1
                  CONTENTS, ALLOC, LOAD, READONLY, CODE
 62 .text.libgcc.prologue 00000036  00000dfc  00000dfc  00000ed0  2**1
                  CONTENTS, ALLOC, LOAD, READONLY, CODE

Disassembly of section .text:

00000000 <__vectors>:
   0:	0c 94 63 00 	jmp	0xc6	; 0xc6 <__ctors_end>
   4:	0c 94 67 07 	jmp	0xece	; 0xece <__vector_1>
   8:	0c 94 a1 07 	jmp	0xf42	; 0xf42 <__bad_interrupt>
   c:	0c 94 a1 07 	jmp	0xf42	; 0xf42 <__bad_interrupt>
  10:	0c 94 a1 07 	jmp	0xf42	; 0xf42 <__bad_interrupt>
  14:	0c 94 a1 07 	jmp	0xf42	; 0xf42 <__bad_interrupt>
  18:	0c 94 a1 07 	jmp	0xf42	; 0xf42 <__bad_interrupt>
  1c:	0c 94 a1 07 	jmp	0xf42	; 0xf42 <__bad_interrupt>
  20:	0c 94 a1 07 	jmp	0xf42	; 0xf42 <__bad_interrupt>
  24:	0c 94 a1 07 	jmp	0xf42	; 0xf42 <__bad_interrupt>
  28:	0c 94 a1 07 	jmp	0xf42	; 0xf42 <__bad_interrupt>
  2c:	0c 94 a1 07 	jmp	0xf42	; 0xf42 <__bad_interrupt>
  30:	0c 94 a1 07 	jmp	0xf42	; 0xf42 <__bad_interrupt>
  34:	0c 94 a1 07 	jmp	0xf42	; 0xf42 <__bad_interrupt>
  38:	0c 94 a1 07 	jmp	0xf42	; 0xf42 <__bad_interrupt>
  3c:	0c 94 a1 07 	jmp	0xf42	; 0xf42 <__bad_interrupt>
  40:	0c 94 a1 07 	jmp	0xf42	; 0xf42 <__bad_interrupt>
  44:	0c 94 a1 07 	jmp	0xf42	; 0xf42 <__bad_interrupt>
  48:	0c 94 19 05 	jmp	0xa32	; 0xa32 <__vector_18>
  4c:	0c 94 a1 07 	jmp	0xf42	; 0xf42 <__bad_interrupt>
  50:	0c 94 1a 06 	jmp	0xc34	; 0xc34 <__vector_20>
  54:	0c 94 a1 07 	jmp	0xf42	; 0xf42 <__bad_interrupt>
  58:	0c 94 a1 07 	jmp	0xf42	; 0xf42 <__bad_interrupt>
  5c:	0c 94 a1 07 	jmp	0xf42	; 0xf42 <__bad_interrupt>
  60:	0c 94 a1 07 	jmp	0xf42	; 0xf42 <__bad_interrupt>
  64:	0c 94 a1 07 	jmp	0xf42	; 0xf42 <__bad_interrupt>
  68:	0c 94 a1 07 	jmp	0xf42	; 0xf42 <__bad_interrupt>
  6c:	0c 94 a1 07 	jmp	0xf42	; 0xf42 <__bad_interrupt>
  70:	0c 94 53 05 	jmp	0xaa6	; 0xaa6 <__vector_28>
  74:	0c 94 a1 07 	jmp	0xf42	; 0xf42 <__bad_interrupt>
  78:	0c 94 3f 06 	jmp	0xc7e	; 0xc7e <__vector_30>
  7c:	0c 94 a1 07 	jmp	0xf42	; 0xf42 <__bad_interrupt>
  80:	0c 94 a1 07 	jmp	0xf42	; 0xf42 <__bad_interrupt>
  84:	0c 94 a1 07 	jmp	0xf42	; 0xf42 <__bad_interrupt>
  88:	0c 94 a1 07 	jmp	0xf42	; 0xf42 <__bad_interrupt>
  8c:	0c 94 a1 07 	jmp	0xf42	; 0xf42 <__bad_interrupt>
  90:	0c 94 a1 07 	jmp	0xf42	; 0xf42 <__bad_interrupt>
  94:	0c 94 a1 07 	jmp	0xf42	; 0xf42 <__bad_interrupt>
  98:	0c 94 a1 07 	jmp	0xf42	; 0xf42 <__bad_interrupt>
  9c:	0c 94 a1 07 	jmp	0xf42	; 0xf42 <__bad_interrupt>
  a0:	0c 94 a1 07 	jmp	0xf42	; 0xf42 <__bad_interrupt>
  a4:	0c 94 a1 07 	jmp	0xf42	; 0xf42 <__bad_interrupt>
  a8:	0c 94 a1 07 	jmp	0xf42	; 0xf42 <__bad_interrupt>
  ac:	0c 94 a1 07 	jmp	0xf42	; 0xf42 <__bad_interrupt>
  b0:	0c 94 a1 07 	jmp	0xf42	; 0xf42 <__bad_interrupt>

000000b4 <.dinit>:
  b4:	01 00       	.word	0x0001	; ????
  b6:	03 58       	subi	r16, 0x83	; 131
  b8:	80 03       	fmuls	r16, r16
  ba:	58 03       	fmul	r21, r16
  bc:	64 00       	.word	0x0064	; ????
  be:	0f 46       	sbci	r16, 0x6F	; 111
  c0:	03 64       	ori	r16, 0x43	; 67
  c2:	03 6c       	ori	r16, 0xC3	; 195
  c4:	80 00       	.word	0x0080	; ????

000000c6 <__ctors_end>:
  c6:	11 24       	eor	r1, r1
  c8:	1f be       	out	0x3f, r1	; 63
  ca:	cf ef       	ldi	r28, 0xFF	; 255
  cc:	d8 e0       	ldi	r29, 0x08	; 8
  ce:	de bf       	out	0x3e, r29	; 62
  d0:	cd bf       	out	0x3d, r28	; 61

000000d2 <__do_copy_data>:
  d2:	e4 eb       	ldi	r30, 0xB4	; 180
  d4:	f0 e0       	ldi	r31, 0x00	; 0
  d6:	40 e0       	ldi	r20, 0x00	; 0
  d8:	17 c0       	rjmp	.+46     	; 0x108 <__do_clear_bss+0x8>
  da:	b5 91       	lpm	r27, Z+
  dc:	a5 91       	lpm	r26, Z+
  de:	35 91       	lpm	r19, Z+
  e0:	25 91       	lpm	r18, Z+
  e2:	05 91       	lpm	r16, Z+
  e4:	07 fd       	sbrc	r16, 7
  e6:	0c c0       	rjmp	.+24     	; 0x100 <__do_clear_bss>
  e8:	95 91       	lpm	r25, Z+
  ea:	85 91       	lpm	r24, Z+
  ec:	ef 01       	movw	r28, r30
  ee:	f9 2f       	mov	r31, r25
  f0:	e8 2f       	mov	r30, r24
  f2:	05 90       	lpm	r0, Z+
  f4:	0d 92       	st	X+, r0
  f6:	a2 17       	cp	r26, r18
  f8:	b3 07       	cpc	r27, r19
  fa:	d9 f7       	brne	.-10     	; 0xf2 <__do_copy_data+0x20>
  fc:	fe 01       	movw	r30, r28
  fe:	04 c0       	rjmp	.+8      	; 0x108 <__do_clear_bss+0x8>

00000100 <__do_clear_bss>:
 100:	1d 92       	st	X+, r1
 102:	a2 17       	cp	r26, r18
 104:	b3 07       	cpc	r27, r19
 106:	e1 f7       	brne	.-8      	; 0x100 <__do_clear_bss>
 108:	e5 3c       	cpi	r30, 0xC5	; 197
 10a:	f4 07       	cpc	r31, r20
 10c:	31 f7       	brne	.-52     	; 0xda <__do_copy_data+0x8>
 10e:	0e 94 9b 07 	call	0xf36	; 0xf36 <main>
 112:	0c 94 8b 00 	jmp	0x116	; 0x116 <_exit>

00000116 <_exit>:
 116:	f8 94       	cli

00000118 <__stop_program>:
 118:	ff cf       	rjmp	.-2      	; 0x118 <__stop_program>

Disassembly of section .text:

00000f42 <__bad_interrupt>:
 f42:	0c 94 00 00 	jmp	0	; 0x0 <__TEXT_REGION_ORIGIN__>

Disassembly of section .text.__vector_1:

00000ece <__vector_1>:
 ece:	1f 92       	push	r1
 ed0:	0f 92       	push	r0
 ed2:	0f b6       	in	r0, 0x3f	; 63
 ed4:	0f 92       	push	r0
 ed6:	11 24       	eor	r1, r1
 ed8:	0f 90       	pop	r0
 eda:	0f be       	out	0x3f, r0	; 63
 edc:	0f 90       	pop	r0
 ede:	1f 90       	pop	r1
 ee0:	18 95       	reti

Disassembly of section .text.uart0_hal_init:

00000d52 <uart0_hal_init>:
 d52:	e1 ec       	ldi	r30, 0xC1	; 193
 d54:	f0 e0       	ldi	r31, 0x00	; 0
 d56:	80 81       	ld	r24, Z
 d58:	80 61       	ori	r24, 0x10	; 16
 d5a:	80 83       	st	Z, r24
 d5c:	80 81       	ld	r24, Z
 d5e:	88 60       	ori	r24, 0x08	; 8
 d60:	80 83       	st	Z, r24
 d62:	80 81       	ld	r24, Z
 d64:	80 68       	ori	r24, 0x80	; 128
 d66:	80 83       	st	Z, r24
 d68:	80 81       	ld	r24, Z
 d6a:	80 64       	ori	r24, 0x40	; 64
 d6c:	80 83       	st	Z, r24
 d6e:	e0 ec       	ldi	r30, 0xC0	; 192
 d70:	f0 e0       	ldi	r31, 0x00	; 0
 d72:	80 81       	ld	r24, Z
 d74:	82 60       	ori	r24, 0x02	; 2
 d76:	80 83       	st	Z, r24
 d78:	86 e0       	ldi	r24, 0x06	; 6
 d7a:	80 93 c2 00 	sts	0x00C2, r24	; 0x8000c2 <__TEXT_REGION_LENGTH__+0x7f80c2>
 d7e:	80 e1       	ldi	r24, 0x10	; 16
 d80:	90 e0       	ldi	r25, 0x00	; 0
 d82:	90 93 c5 00 	sts	0x00C5, r25	; 0x8000c5 <__TEXT_REGION_LENGTH__+0x7f80c5>
 d86:	80 93 c4 00 	sts	0x00C4, r24	; 0x8000c4 <__TEXT_REGION_LENGTH__+0x7f80c4>
 d8a:	78 94       	sei
 d8c:	08 95       	ret

Disassembly of section .text.uart0_hal_send_message:

00000e32 <uart0_hal_send_message>:
 e32:	dc 01       	movw	r26, r24
 e34:	90 e0       	ldi	r25, 0x00	; 0
 e36:	0b c0       	rjmp	.+22     	; 0xe4e <uart0_hal_send_message+0x1c>
 e38:	29 2f       	mov	r18, r25
 e3a:	30 e0       	ldi	r19, 0x00	; 0
 e3c:	fd 01       	movw	r30, r26
 e3e:	e2 0f       	add	r30, r18
 e40:	f3 1f       	adc	r31, r19
 e42:	40 81       	ld	r20, Z
 e44:	f9 01       	movw	r30, r18
 e46:	ec 59       	subi	r30, 0x9C	; 156
 e48:	fe 4f       	sbci	r31, 0xFE	; 254
 e4a:	40 83       	st	Z, r20
 e4c:	9f 5f       	subi	r25, 0xFF	; 255
 e4e:	96 17       	cp	r25, r22
 e50:	98 f3       	brcs	.-26     	; 0xe38 <uart0_hal_send_message+0x6>
 e52:	60 93 67 03 	sts	0x0367, r22	; 0x800367 <tx_buffer_data_len>
 e56:	81 e0       	ldi	r24, 0x01	; 1
 e58:	80 93 66 03 	sts	0x0366, r24	; 0x800366 <tx_buffer_cursor>
 e5c:	80 91 64 01 	lds	r24, 0x0164	; 0x800164 <tx_buffer>
 e60:	80 93 c6 00 	sts	0x00C6, r24	; 0x8000c6 <__TEXT_REGION_LENGTH__+0x7f80c6>
 e64:	08 95       	ret

Disassembly of section .text.__vector_20:

00000c34 <__vector_20>:
 c34:	1f 92       	push	r1
 c36:	0f 92       	push	r0
 c38:	0f b6       	in	r0, 0x3f	; 63
 c3a:	0f 92       	push	r0
 c3c:	11 24       	eor	r1, r1
 c3e:	8f 93       	push	r24
 c40:	ef 93       	push	r30
 c42:	ff 93       	push	r31
 c44:	e0 91 66 03 	lds	r30, 0x0366	; 0x800366 <tx_buffer_cursor>
 c48:	80 91 67 03 	lds	r24, 0x0367	; 0x800367 <tx_buffer_data_len>
 c4c:	e8 17       	cp	r30, r24
 c4e:	58 f4       	brcc	.+22     	; 0xc66 <__vector_20+0x32>
 c50:	81 e0       	ldi	r24, 0x01	; 1
 c52:	8e 0f       	add	r24, r30
 c54:	80 93 66 03 	sts	0x0366, r24	; 0x800366 <tx_buffer_cursor>
 c58:	f0 e0       	ldi	r31, 0x00	; 0
 c5a:	ec 59       	subi	r30, 0x9C	; 156
 c5c:	fe 4f       	sbci	r31, 0xFE	; 254
 c5e:	80 81       	ld	r24, Z
 c60:	80 93 c6 00 	sts	0x00C6, r24	; 0x8000c6 <__TEXT_REGION_LENGTH__+0x7f80c6>
 c64:	04 c0       	rjmp	.+8      	; 0xc6e <__vector_20+0x3a>
 c66:	10 92 66 03 	sts	0x0366, r1	; 0x800366 <tx_buffer_cursor>
 c6a:	10 92 67 03 	sts	0x0367, r1	; 0x800367 <tx_buffer_data_len>
 c6e:	ff 91       	pop	r31
 c70:	ef 91       	pop	r30
 c72:	8f 91       	pop	r24
 c74:	0f 90       	pop	r0
 c76:	0f be       	out	0x3f, r0	; 63
 c78:	0f 90       	pop	r0
 c7a:	1f 90       	pop	r1
 c7c:	18 95       	reti

Disassembly of section .text.__vector_18:

00000a32 <__vector_18>:
 a32:	1f 92       	push	r1
 a34:	0f 92       	push	r0
 a36:	0f b6       	in	r0, 0x3f	; 63
 a38:	0f 92       	push	r0
 a3a:	11 24       	eor	r1, r1
 a3c:	2f 93       	push	r18
 a3e:	8f 93       	push	r24
 a40:	9f 93       	push	r25
 a42:	ef 93       	push	r30
 a44:	ff 93       	push	r31
 a46:	80 91 64 03 	lds	r24, 0x0364	; 0x800364 <rx_buffer_has_message>
 a4a:	81 11       	cpse	r24, r1
 a4c:	0e c0       	rjmp	.+28     	; 0xa6a <__vector_18+0x38>
 a4e:	e0 91 65 03 	lds	r30, 0x0365	; 0x800365 <rx_buffer_data_len>
 a52:	e4 36       	cpi	r30, 0x64	; 100
 a54:	50 f4       	brcc	.+20     	; 0xa6a <__vector_18+0x38>
 a56:	81 e0       	ldi	r24, 0x01	; 1
 a58:	8e 0f       	add	r24, r30
 a5a:	80 93 65 03 	sts	0x0365, r24	; 0x800365 <rx_buffer_data_len>
 a5e:	f0 e0       	ldi	r31, 0x00	; 0
 a60:	80 91 c6 00 	lds	r24, 0x00C6	; 0x8000c6 <__TEXT_REGION_LENGTH__+0x7f80c6>
 a64:	e0 50       	subi	r30, 0x00	; 0
 a66:	ff 4f       	sbci	r31, 0xFF	; 255
 a68:	80 83       	st	Z, r24
 a6a:	80 91 65 03 	lds	r24, 0x0365	; 0x800365 <rx_buffer_data_len>
 a6e:	83 30       	cpi	r24, 0x03	; 3
 a70:	80 f0       	brcs	.+32     	; 0xa92 <__vector_18+0x60>
 a72:	90 e0       	ldi	r25, 0x00	; 0
 a74:	fc 01       	movw	r30, r24
 a76:	e1 50       	subi	r30, 0x01	; 1
 a78:	ff 4f       	sbci	r31, 0xFF	; 255
 a7a:	20 81       	ld	r18, Z
 a7c:	2a 30       	cpi	r18, 0x0A	; 10
 a7e:	49 f4       	brne	.+18     	; 0xa92 <__vector_18+0x60>
 a80:	fc 01       	movw	r30, r24
 a82:	e2 50       	subi	r30, 0x02	; 2
 a84:	ff 4f       	sbci	r31, 0xFF	; 255
 a86:	80 81       	ld	r24, Z
 a88:	8d 30       	cpi	r24, 0x0D	; 13
 a8a:	19 f4       	brne	.+6      	; 0xa92 <__vector_18+0x60>
 a8c:	81 e0       	ldi	r24, 0x01	; 1
 a8e:	80 93 64 03 	sts	0x0364, r24	; 0x800364 <rx_buffer_has_message>
 a92:	ff 91       	pop	r31
 a94:	ef 91       	pop	r30
 a96:	9f 91       	pop	r25
 a98:	8f 91       	pop	r24
 a9a:	2f 91       	pop	r18
 a9c:	0f 90       	pop	r0
 a9e:	0f be       	out	0x3f, r0	; 63
 aa0:	0f 90       	pop	r0
 aa2:	1f 90       	pop	r1
 aa4:	18 95       	reti

Disassembly of section .text.__vector_30:

00000c7e <__vector_30>:


/************************************************************************/
/* Write data complete vect                                             */
/************************************************************************/
ISR(USART1_TX_vect){
 c7e:	1f 92       	push	r1
 c80:	0f 92       	push	r0
 c82:	0f b6       	in	r0, 0x3f	; 63
 c84:	0f 92       	push	r0
 c86:	11 24       	eor	r1, r1
 c88:	8f 93       	push	r24
 c8a:	ef 93       	push	r30
 c8c:	ff 93       	push	r31
	if(tx_buffer_cursor<tx_buffer_data_len){
 c8e:	e0 91 6a 03 	lds	r30, 0x036A	; 0x80036a <tx_buffer_cursor>
 c92:	80 91 6b 03 	lds	r24, 0x036B	; 0x80036b <tx_buffer_data_len>
 c96:	e8 17       	cp	r30, r24
 c98:	58 f4       	brcc	.+22     	; 0xcb0 <__vector_30+0x32>
		UDR1=tx_buffer[tx_buffer_cursor++];
 c9a:	81 e0       	ldi	r24, 0x01	; 1
 c9c:	8e 0f       	add	r24, r30
 c9e:	80 93 6a 03 	sts	0x036A, r24	; 0x80036a <tx_buffer_cursor>
 ca2:	f0 e0       	ldi	r31, 0x00	; 0
 ca4:	e4 5d       	subi	r30, 0xD4	; 212
 ca6:	fd 4f       	sbci	r31, 0xFD	; 253
 ca8:	80 81       	ld	r24, Z
 caa:	80 93 ce 00 	sts	0x00CE, r24	; 0x8000ce <__TEXT_REGION_LENGTH__+0x7f80ce>
 cae:	04 c0       	rjmp	.+8      	; 0xcb8 <__vector_30+0x3a>
		}else{
		tx_buffer_cursor=0;
 cb0:	10 92 6a 03 	sts	0x036A, r1	; 0x80036a <tx_buffer_cursor>
		tx_buffer_data_len=0;
 cb4:	10 92 6b 03 	sts	0x036B, r1	; 0x80036b <tx_buffer_data_len>
	}
}
 cb8:	ff 91       	pop	r31
 cba:	ef 91       	pop	r30
 cbc:	8f 91       	pop	r24
 cbe:	0f 90       	pop	r0
 cc0:	0f be       	out	0x3f, r0	; 63
 cc2:	0f 90       	pop	r0
 cc4:	1f 90       	pop	r1
 cc6:	18 95       	reti

Disassembly of section .text.__vector_28:

00000aa6 <__vector_28>:
	{
		msg[i]=rx_buffer[i];
	}
	uart1_hal_clear_rx_buffer();
	return rx_buffer_data_len-2;
}
 aa6:	1f 92       	push	r1
 aa8:	0f 92       	push	r0
 aaa:	0f b6       	in	r0, 0x3f	; 63
 aac:	0f 92       	push	r0
 aae:	11 24       	eor	r1, r1
 ab0:	2f 93       	push	r18
 ab2:	8f 93       	push	r24
 ab4:	9f 93       	push	r25
 ab6:	ef 93       	push	r30
 ab8:	ff 93       	push	r31
 aba:	80 91 68 03 	lds	r24, 0x0368	; 0x800368 <rx_buffer_has_message>
 abe:	81 11       	cpse	r24, r1
 ac0:	0e c0       	rjmp	.+28     	; 0xade <__vector_28+0x38>
 ac2:	e0 91 69 03 	lds	r30, 0x0369	; 0x800369 <rx_buffer_data_len>
 ac6:	e4 36       	cpi	r30, 0x64	; 100
 ac8:	50 f4       	brcc	.+20     	; 0xade <__vector_28+0x38>
 aca:	81 e0       	ldi	r24, 0x01	; 1
 acc:	8e 0f       	add	r24, r30
 ace:	80 93 69 03 	sts	0x0369, r24	; 0x800369 <rx_buffer_data_len>
 ad2:	f0 e0       	ldi	r31, 0x00	; 0
 ad4:	80 91 ce 00 	lds	r24, 0x00CE	; 0x8000ce <__TEXT_REGION_LENGTH__+0x7f80ce>
 ad8:	ec 50       	subi	r30, 0x0C	; 12
 ada:	fd 4f       	sbci	r31, 0xFD	; 253
 adc:	80 83       	st	Z, r24
 ade:	80 91 69 03 	lds	r24, 0x0369	; 0x800369 <rx_buffer_data_len>
 ae2:	90 e0       	ldi	r25, 0x00	; 0
 ae4:	fc 01       	movw	r30, r24
 ae6:	ed 50       	subi	r30, 0x0D	; 13
 ae8:	fd 4f       	sbci	r31, 0xFD	; 253
 aea:	20 81       	ld	r18, Z
 aec:	2d 30       	cpi	r18, 0x0D	; 13
 aee:	49 f4       	brne	.+18     	; 0xb02 <__vector_28+0x5c>
 af0:	fc 01       	movw	r30, r24
 af2:	ee 50       	subi	r30, 0x0E	; 14
 af4:	fd 4f       	sbci	r31, 0xFD	; 253
 af6:	80 81       	ld	r24, Z
 af8:	8a 30       	cpi	r24, 0x0A	; 10
 afa:	19 f4       	brne	.+6      	; 0xb02 <__vector_28+0x5c>
 afc:	81 e0       	ldi	r24, 0x01	; 1
 afe:	80 93 68 03 	sts	0x0368, r24	; 0x800368 <rx_buffer_has_message>
 b02:	ff 91       	pop	r31
 b04:	ef 91       	pop	r30
 b06:	9f 91       	pop	r25
 b08:	8f 91       	pop	r24
 b0a:	2f 91       	pop	r18
 b0c:	0f 90       	pop	r0
 b0e:	0f be       	out	0x3f, r0	; 63
 b10:	0f 90       	pop	r0
 b12:	1f 90       	pop	r1
 b14:	18 95       	reti

Disassembly of section .text.main:

00000f36 <main>:
 f36:	0e 94 f1 05 	call	0xbe2	; 0xbe2 <test_ADC_module_start>
 f3a:	ff cf       	rjmp	.-2      	; 0xf3a <main+0x4>

Disassembly of section .text.calc_ppm_methane:

000008aa <calc_ppm_methane>:
 8aa:	8f 92       	push	r8
 8ac:	9f 92       	push	r9
 8ae:	af 92       	push	r10
 8b0:	bf 92       	push	r11
 8b2:	cf 92       	push	r12
 8b4:	df 92       	push	r13
 8b6:	ef 92       	push	r14
 8b8:	ff 92       	push	r15
 8ba:	bc 01       	movw	r22, r24
 8bc:	80 e0       	ldi	r24, 0x00	; 0
 8be:	90 e0       	ldi	r25, 0x00	; 0
 8c0:	0e 94 a0 04 	call	0x940	; 0x940 <__floatunsisf>
 8c4:	20 e0       	ldi	r18, 0x00	; 0
 8c6:	30 e0       	ldi	r19, 0x00	; 0
 8c8:	40 e8       	ldi	r20, 0x80	; 128
 8ca:	59 e3       	ldi	r21, 0x39	; 57
 8cc:	0e 94 97 07 	call	0xf2e	; 0xf2e <__mulsf3>
 8d0:	80 90 60 03 	lds	r8, 0x0360	; 0x800360 <Vc>
 8d4:	90 90 61 03 	lds	r9, 0x0361	; 0x800361 <Vc+0x1>
 8d8:	a0 90 62 03 	lds	r10, 0x0362	; 0x800362 <Vc+0x2>
 8dc:	b0 90 63 03 	lds	r11, 0x0363	; 0x800363 <Vc+0x3>
 8e0:	a5 01       	movw	r20, r10
 8e2:	94 01       	movw	r18, r8
 8e4:	0e 94 97 07 	call	0xf2e	; 0xf2e <__mulsf3>
 8e8:	6b 01       	movw	r12, r22
 8ea:	7c 01       	movw	r14, r24
 8ec:	9b 01       	movw	r18, r22
 8ee:	ac 01       	movw	r20, r24
 8f0:	c5 01       	movw	r24, r10
 8f2:	b4 01       	movw	r22, r8
 8f4:	0e 94 71 07 	call	0xee2	; 0xee2 <__subsf3>
 8f8:	a7 01       	movw	r20, r14
 8fa:	96 01       	movw	r18, r12
 8fc:	0e 94 93 07 	call	0xf26	; 0xf26 <__divsf3>
 900:	20 91 5c 03 	lds	r18, 0x035C	; 0x80035c <RRL>
 904:	30 91 5d 03 	lds	r19, 0x035D	; 0x80035d <RRL+0x1>
 908:	40 91 5e 03 	lds	r20, 0x035E	; 0x80035e <RRL+0x2>
 90c:	50 91 5f 03 	lds	r21, 0x035F	; 0x80035f <RRL+0x3>
 910:	0e 94 97 07 	call	0xf2e	; 0xf2e <__mulsf3>
 914:	20 91 58 03 	lds	r18, 0x0358	; 0x800358 <PPM_factor>
 918:	30 91 59 03 	lds	r19, 0x0359	; 0x800359 <PPM_factor+0x1>
 91c:	40 91 5a 03 	lds	r20, 0x035A	; 0x80035a <PPM_factor+0x2>
 920:	50 91 5b 03 	lds	r21, 0x035B	; 0x80035b <PPM_factor+0x3>
 924:	0e 94 97 07 	call	0xf2e	; 0xf2e <__mulsf3>
 928:	0e 94 c2 05 	call	0xb84	; 0xb84 <__fixunssfsi>
 92c:	cb 01       	movw	r24, r22
 92e:	ff 90       	pop	r15
 930:	ef 90       	pop	r14
 932:	df 90       	pop	r13
 934:	cf 90       	pop	r12
 936:	bf 90       	pop	r11
 938:	af 90       	pop	r10
 93a:	9f 90       	pop	r9
 93c:	8f 90       	pop	r8
 93e:	08 95       	ret

Disassembly of section .text.test_calc_ppm_methane:

00000b16 <test_calc_ppm_methane>:
 b16:	0f 93       	push	r16
 b18:	1f 93       	push	r17
 b1a:	cf 93       	push	r28
 b1c:	df 93       	push	r29
 b1e:	cd b7       	in	r28, 0x3d	; 61
 b20:	de b7       	in	r29, 0x3e	; 62
 b22:	64 97       	sbiw	r28, 0x14	; 20
 b24:	0f b6       	in	r0, 0x3f	; 63
 b26:	f8 94       	cli
 b28:	de bf       	out	0x3e, r29	; 62
 b2a:	0f be       	out	0x3f, r0	; 63
 b2c:	cd bf       	out	0x3d, r28	; 61
 b2e:	80 ed       	ldi	r24, 0xD0	; 208
 b30:	97 e0       	ldi	r25, 0x07	; 7
 b32:	0e 94 55 04 	call	0x8aa	; 0x8aa <calc_ppm_methane>
 b36:	9f 93       	push	r25
 b38:	8f 93       	push	r24
 b3a:	8a e1       	ldi	r24, 0x1A	; 26
 b3c:	91 e0       	ldi	r25, 0x01	; 1
 b3e:	a0 e0       	ldi	r26, 0x00	; 0
 b40:	af 93       	push	r26
 b42:	9f 93       	push	r25
 b44:	8f 93       	push	r24
 b46:	8e 01       	movw	r16, r28
 b48:	0f 5f       	subi	r16, 0xFF	; 255
 b4a:	1f 4f       	sbci	r17, 0xFF	; 255
 b4c:	1f 93       	push	r17
 b4e:	0f 93       	push	r16
 b50:	0e 94 64 06 	call	0xcc8	; 0xcc8 <sprintf>
 b54:	b8 01       	movw	r22, r16
 b56:	80 e8       	ldi	r24, 0x80	; 128
 b58:	0e 94 33 07 	call	0xe66	; 0xe66 <strlen>
 b5c:	68 2f       	mov	r22, r24
 b5e:	c8 01       	movw	r24, r16
 b60:	0e 94 19 07 	call	0xe32	; 0xe32 <uart0_hal_send_message>
 b64:	0f b6       	in	r0, 0x3f	; 63
 b66:	f8 94       	cli
 b68:	de bf       	out	0x3e, r29	; 62
 b6a:	0f be       	out	0x3f, r0	; 63
 b6c:	cd bf       	out	0x3d, r28	; 61
 b6e:	64 96       	adiw	r28, 0x14	; 20
 b70:	0f b6       	in	r0, 0x3f	; 63
 b72:	f8 94       	cli
 b74:	de bf       	out	0x3e, r29	; 62
 b76:	0f be       	out	0x3f, r0	; 63
 b78:	cd bf       	out	0x3d, r28	; 61
 b7a:	df 91       	pop	r29
 b7c:	cf 91       	pop	r28
 b7e:	1f 91       	pop	r17
 b80:	0f 91       	pop	r16
 b82:	08 95       	ret

Disassembly of section .text.test_ADC_module_start:

00000be2 <test_ADC_module_start>:
 be2:	cf 93       	push	r28
 be4:	df 93       	push	r29
 be6:	00 d0       	rcall	.+0      	; 0xbe8 <test_ADC_module_start+0x6>
 be8:	00 d0       	rcall	.+0      	; 0xbea <test_ADC_module_start+0x8>
 bea:	00 d0       	rcall	.+0      	; 0xbec <test_ADC_module_start+0xa>
 bec:	cd b7       	in	r28, 0x3d	; 61
 bee:	de b7       	in	r29, 0x3e	; 62
 bf0:	0e 94 a9 06 	call	0xd52	; 0xd52 <uart0_hal_init>
 bf4:	2f e1       	ldi	r18, 0x1F	; 31
 bf6:	31 e0       	ldi	r19, 0x01	; 1
 bf8:	40 e0       	ldi	r20, 0x00	; 0
 bfa:	86 e0       	ldi	r24, 0x06	; 6
 bfc:	f9 01       	movw	r30, r18
 bfe:	8e 01       	movw	r16, r28
 c00:	0f 5f       	subi	r16, 0xFF	; 255
 c02:	1f 4f       	sbci	r17, 0xFF	; 255
 c04:	d8 01       	movw	r26, r16
 c06:	74 2f       	mov	r23, r20
 c08:	0e 94 5a 07 	call	0xeb4	; 0xeb4 <__movmemx_qi>
 c0c:	b8 01       	movw	r22, r16
 c0e:	80 e8       	ldi	r24, 0x80	; 128
 c10:	0e 94 33 07 	call	0xe66	; 0xe66 <strlen>
 c14:	68 2f       	mov	r22, r24
 c16:	c8 01       	movw	r24, r16
 c18:	0e 94 19 07 	call	0xe32	; 0xe32 <uart0_hal_send_message>
 c1c:	0e 94 8b 05 	call	0xb16	; 0xb16 <test_calc_ppm_methane>
	#else
		//round up by default
		__ticks_dc = (uint32_t)(ceil(fabs(__tmp)));
	#endif

	__builtin_avr_delay_cycles(__ticks_dc);
 c20:	2f ef       	ldi	r18, 0xFF	; 255
 c22:	89 e6       	ldi	r24, 0x69	; 105
 c24:	98 e1       	ldi	r25, 0x18	; 24
 c26:	21 50       	subi	r18, 0x01	; 1
 c28:	80 40       	sbci	r24, 0x00	; 0
 c2a:	90 40       	sbci	r25, 0x00	; 0
 c2c:	e1 f7       	brne	.-8      	; 0xc26 <test_ADC_module_start+0x44>
 c2e:	00 c0       	rjmp	.+0      	; 0xc30 <test_ADC_module_start+0x4e>
 c30:	00 00       	nop
 c32:	f4 cf       	rjmp	.-24     	; 0xc1c <test_ADC_module_start+0x3a>

Disassembly of section .text.avrlibc.fplib:

00000ee2 <__subsf3>:
 ee2:	50 58       	subi	r21, 0x80	; 128

00000ee4 <__addsf3>:
 ee4:	bb 27       	eor	r27, r27
 ee6:	aa 27       	eor	r26, r26
 ee8:	0e 94 90 03 	call	0x720	; 0x720 <__addsf3x>
 eec:	0c 94 49 07 	jmp	0xe92	; 0xe92 <__fp_round>

Disassembly of section .text.avrlibc.fplib:

00000720 <__addsf3x>:
 720:	11 c0       	rjmp	.+34     	; 0x744 <__addsf3x+0x24>
 722:	0e 94 78 07 	call	0xef0	; 0xef0 <__fp_pscA>
 726:	38 f0       	brcs	.+14     	; 0x736 <__addsf3x+0x16>
 728:	0e 94 7f 07 	call	0xefe	; 0xefe <__fp_pscB>
 72c:	20 f0       	brcs	.+8      	; 0x736 <__addsf3x+0x16>
 72e:	39 f4       	brne	.+14     	; 0x73e <__addsf3x+0x1e>
 730:	9f 3f       	cpi	r25, 0xFF	; 255
 732:	19 f4       	brne	.+6      	; 0x73a <__addsf3x+0x1a>
 734:	26 f4       	brtc	.+8      	; 0x73e <__addsf3x+0x1e>
 736:	0c 94 9e 07 	jmp	0xf3c	; 0xf3c <__fp_nan>
 73a:	0e f4       	brtc	.+2      	; 0x73e <__addsf3x+0x1e>
 73c:	e0 95       	com	r30
 73e:	e7 fb       	bst	r30, 7
 740:	0c 94 8d 07 	jmp	0xf1a	; 0xf1a <__fp_inf>
 744:	e9 2f       	mov	r30, r25
 746:	0e 94 87 06 	call	0xd0e	; 0xd0e <__fp_split3>
 74a:	58 f3       	brcs	.-42     	; 0x722 <__addsf3x+0x2>
 74c:	ba 17       	cp	r27, r26
 74e:	62 07       	cpc	r22, r18
 750:	73 07       	cpc	r23, r19
 752:	84 07       	cpc	r24, r20
 754:	95 07       	cpc	r25, r21
 756:	20 f0       	brcs	.+8      	; 0x760 <__addsf3x+0x40>
 758:	79 f4       	brne	.+30     	; 0x778 <__addsf3x+0x58>
 75a:	a6 f5       	brtc	.+104    	; 0x7c4 <__addsf3x+0xa4>
 75c:	0c 94 86 07 	jmp	0xf0c	; 0xf0c <__fp_zero>
 760:	0e f4       	brtc	.+2      	; 0x764 <__addsf3x+0x44>
 762:	e0 95       	com	r30
 764:	0b 2e       	mov	r0, r27
 766:	ba 2f       	mov	r27, r26
 768:	a0 2d       	mov	r26, r0
 76a:	0b 01       	movw	r0, r22
 76c:	b9 01       	movw	r22, r18
 76e:	90 01       	movw	r18, r0
 770:	0c 01       	movw	r0, r24
 772:	ca 01       	movw	r24, r20
 774:	a0 01       	movw	r20, r0
 776:	11 24       	eor	r1, r1
 778:	ff 27       	eor	r31, r31
 77a:	59 1b       	sub	r21, r25
 77c:	99 f0       	breq	.+38     	; 0x7a4 <__addsf3x+0x84>
 77e:	59 3f       	cpi	r21, 0xF9	; 249
 780:	50 f4       	brcc	.+20     	; 0x796 <__addsf3x+0x76>
 782:	50 3e       	cpi	r21, 0xE0	; 224
 784:	68 f1       	brcs	.+90     	; 0x7e0 <__addsf3x+0xc0>
 786:	1a 16       	cp	r1, r26
 788:	f0 40       	sbci	r31, 0x00	; 0
 78a:	a2 2f       	mov	r26, r18
 78c:	23 2f       	mov	r18, r19
 78e:	34 2f       	mov	r19, r20
 790:	44 27       	eor	r20, r20
 792:	58 5f       	subi	r21, 0xF8	; 248
 794:	f3 cf       	rjmp	.-26     	; 0x77c <__addsf3x+0x5c>
 796:	46 95       	lsr	r20
 798:	37 95       	ror	r19
 79a:	27 95       	ror	r18
 79c:	a7 95       	ror	r26
 79e:	f0 40       	sbci	r31, 0x00	; 0
 7a0:	53 95       	inc	r21
 7a2:	c9 f7       	brne	.-14     	; 0x796 <__addsf3x+0x76>
 7a4:	7e f4       	brtc	.+30     	; 0x7c4 <__addsf3x+0xa4>
 7a6:	1f 16       	cp	r1, r31
 7a8:	ba 0b       	sbc	r27, r26
 7aa:	62 0b       	sbc	r22, r18
 7ac:	73 0b       	sbc	r23, r19
 7ae:	84 0b       	sbc	r24, r20
 7b0:	ba f0       	brmi	.+46     	; 0x7e0 <__addsf3x+0xc0>
 7b2:	91 50       	subi	r25, 0x01	; 1
 7b4:	a1 f0       	breq	.+40     	; 0x7de <__addsf3x+0xbe>
 7b6:	ff 0f       	add	r31, r31
 7b8:	bb 1f       	adc	r27, r27
 7ba:	66 1f       	adc	r22, r22
 7bc:	77 1f       	adc	r23, r23
 7be:	88 1f       	adc	r24, r24
 7c0:	c2 f7       	brpl	.-16     	; 0x7b2 <__addsf3x+0x92>
 7c2:	0e c0       	rjmp	.+28     	; 0x7e0 <__addsf3x+0xc0>
 7c4:	ba 0f       	add	r27, r26
 7c6:	62 1f       	adc	r22, r18
 7c8:	73 1f       	adc	r23, r19
 7ca:	84 1f       	adc	r24, r20
 7cc:	48 f4       	brcc	.+18     	; 0x7e0 <__addsf3x+0xc0>
 7ce:	87 95       	ror	r24
 7d0:	77 95       	ror	r23
 7d2:	67 95       	ror	r22
 7d4:	b7 95       	ror	r27
 7d6:	f7 95       	ror	r31
 7d8:	9e 3f       	cpi	r25, 0xFE	; 254
 7da:	08 f0       	brcs	.+2      	; 0x7de <__addsf3x+0xbe>
 7dc:	b0 cf       	rjmp	.-160    	; 0x73e <__addsf3x+0x1e>
 7de:	93 95       	inc	r25
 7e0:	88 0f       	add	r24, r24
 7e2:	08 f0       	brcs	.+2      	; 0x7e6 <__addsf3x+0xc6>
 7e4:	99 27       	eor	r25, r25
 7e6:	ee 0f       	add	r30, r30
 7e8:	97 95       	ror	r25
 7ea:	87 95       	ror	r24
 7ec:	08 95       	ret

Disassembly of section .text.avrlibc.fplib:

00000f26 <__divsf3>:
 f26:	0e 94 b7 02 	call	0x56e	; 0x56e <__divsf3x>
 f2a:	0c 94 49 07 	jmp	0xe92	; 0xe92 <__fp_round>

Disassembly of section .text.avrlibc.fplib:

0000056e <__divsf3x>:
 56e:	10 c0       	rjmp	.+32     	; 0x590 <__divsf3x+0x22>
 570:	0e 94 7f 07 	call	0xefe	; 0xefe <__fp_pscB>
 574:	58 f0       	brcs	.+22     	; 0x58c <__divsf3x+0x1e>
 576:	0e 94 78 07 	call	0xef0	; 0xef0 <__fp_pscA>
 57a:	40 f0       	brcs	.+16     	; 0x58c <__divsf3x+0x1e>
 57c:	29 f4       	brne	.+10     	; 0x588 <__divsf3x+0x1a>
 57e:	5f 3f       	cpi	r21, 0xFF	; 255
 580:	29 f0       	breq	.+10     	; 0x58c <__divsf3x+0x1e>
 582:	0c 94 8d 07 	jmp	0xf1a	; 0xf1a <__fp_inf>
 586:	51 11       	cpse	r21, r1
 588:	0c 94 87 07 	jmp	0xf0e	; 0xf0e <__fp_szero>
 58c:	0c 94 9e 07 	jmp	0xf3c	; 0xf3c <__fp_nan>
 590:	0e 94 87 06 	call	0xd0e	; 0xd0e <__fp_split3>
 594:	68 f3       	brcs	.-38     	; 0x570 <__divsf3x+0x2>

00000596 <__divsf3_pse>:
 596:	99 23       	and	r25, r25
 598:	b1 f3       	breq	.-20     	; 0x586 <__divsf3x+0x18>
 59a:	55 23       	and	r21, r21
 59c:	91 f3       	breq	.-28     	; 0x582 <__divsf3x+0x14>
 59e:	95 1b       	sub	r25, r21
 5a0:	55 0b       	sbc	r21, r21
 5a2:	bb 27       	eor	r27, r27
 5a4:	aa 27       	eor	r26, r26
 5a6:	62 17       	cp	r22, r18
 5a8:	73 07       	cpc	r23, r19
 5aa:	84 07       	cpc	r24, r20
 5ac:	38 f0       	brcs	.+14     	; 0x5bc <__divsf3_pse+0x26>
 5ae:	9f 5f       	subi	r25, 0xFF	; 255
 5b0:	5f 4f       	sbci	r21, 0xFF	; 255
 5b2:	22 0f       	add	r18, r18
 5b4:	33 1f       	adc	r19, r19
 5b6:	44 1f       	adc	r20, r20
 5b8:	aa 1f       	adc	r26, r26
 5ba:	a9 f3       	breq	.-22     	; 0x5a6 <__divsf3_pse+0x10>
 5bc:	35 d0       	rcall	.+106    	; 0x628 <__divsf3_pse+0x92>
 5be:	0e 2e       	mov	r0, r30
 5c0:	3a f0       	brmi	.+14     	; 0x5d0 <__divsf3_pse+0x3a>
 5c2:	e0 e8       	ldi	r30, 0x80	; 128
 5c4:	32 d0       	rcall	.+100    	; 0x62a <__divsf3_pse+0x94>
 5c6:	91 50       	subi	r25, 0x01	; 1
 5c8:	50 40       	sbci	r21, 0x00	; 0
 5ca:	e6 95       	lsr	r30
 5cc:	00 1c       	adc	r0, r0
 5ce:	ca f7       	brpl	.-14     	; 0x5c2 <__divsf3_pse+0x2c>
 5d0:	2b d0       	rcall	.+86     	; 0x628 <__divsf3_pse+0x92>
 5d2:	fe 2f       	mov	r31, r30
 5d4:	29 d0       	rcall	.+82     	; 0x628 <__divsf3_pse+0x92>
 5d6:	66 0f       	add	r22, r22
 5d8:	77 1f       	adc	r23, r23
 5da:	88 1f       	adc	r24, r24
 5dc:	bb 1f       	adc	r27, r27
 5de:	26 17       	cp	r18, r22
 5e0:	37 07       	cpc	r19, r23
 5e2:	48 07       	cpc	r20, r24
 5e4:	ab 07       	cpc	r26, r27
 5e6:	b0 e8       	ldi	r27, 0x80	; 128
 5e8:	09 f0       	breq	.+2      	; 0x5ec <__divsf3_pse+0x56>
 5ea:	bb 0b       	sbc	r27, r27
 5ec:	80 2d       	mov	r24, r0
 5ee:	bf 01       	movw	r22, r30
 5f0:	ff 27       	eor	r31, r31
 5f2:	93 58       	subi	r25, 0x83	; 131
 5f4:	5f 4f       	sbci	r21, 0xFF	; 255
 5f6:	3a f0       	brmi	.+14     	; 0x606 <__divsf3_pse+0x70>
 5f8:	9e 3f       	cpi	r25, 0xFE	; 254
 5fa:	51 05       	cpc	r21, r1
 5fc:	78 f0       	brcs	.+30     	; 0x61c <__divsf3_pse+0x86>
 5fe:	0c 94 8d 07 	jmp	0xf1a	; 0xf1a <__fp_inf>
 602:	0c 94 87 07 	jmp	0xf0e	; 0xf0e <__fp_szero>
 606:	5f 3f       	cpi	r21, 0xFF	; 255
 608:	e4 f3       	brlt	.-8      	; 0x602 <__divsf3_pse+0x6c>
 60a:	98 3e       	cpi	r25, 0xE8	; 232
 60c:	d4 f3       	brlt	.-12     	; 0x602 <__divsf3_pse+0x6c>
 60e:	86 95       	lsr	r24
 610:	77 95       	ror	r23
 612:	67 95       	ror	r22
 614:	b7 95       	ror	r27
 616:	f7 95       	ror	r31
 618:	9f 5f       	subi	r25, 0xFF	; 255
 61a:	c9 f7       	brne	.-14     	; 0x60e <__divsf3_pse+0x78>
 61c:	88 0f       	add	r24, r24
 61e:	91 1d       	adc	r25, r1
 620:	96 95       	lsr	r25
 622:	87 95       	ror	r24
 624:	97 f9       	bld	r25, 7
 626:	08 95       	ret
 628:	e1 e0       	ldi	r30, 0x01	; 1
 62a:	66 0f       	add	r22, r22
 62c:	77 1f       	adc	r23, r23
 62e:	88 1f       	adc	r24, r24
 630:	bb 1f       	adc	r27, r27
 632:	62 17       	cp	r22, r18
 634:	73 07       	cpc	r23, r19
 636:	84 07       	cpc	r24, r20
 638:	ba 07       	cpc	r27, r26
 63a:	20 f0       	brcs	.+8      	; 0x644 <__divsf3_pse+0xae>
 63c:	62 1b       	sub	r22, r18
 63e:	73 0b       	sbc	r23, r19
 640:	84 0b       	sbc	r24, r20
 642:	ba 0b       	sbc	r27, r26
 644:	ee 1f       	adc	r30, r30
 646:	88 f7       	brcc	.-30     	; 0x62a <__divsf3_pse+0x94>
 648:	e0 95       	com	r30
 64a:	08 95       	ret

Disassembly of section .text.avrlibc.fplib:

00000b84 <__fixunssfsi>:
 b84:	0e 94 8f 06 	call	0xd1e	; 0xd1e <__fp_splitA>
 b88:	88 f0       	brcs	.+34     	; 0xbac <__fixunssfsi+0x28>
 b8a:	9f 57       	subi	r25, 0x7F	; 127
 b8c:	98 f0       	brcs	.+38     	; 0xbb4 <__fixunssfsi+0x30>
 b8e:	b9 2f       	mov	r27, r25
 b90:	99 27       	eor	r25, r25
 b92:	b7 51       	subi	r27, 0x17	; 23
 b94:	b0 f0       	brcs	.+44     	; 0xbc2 <__fixunssfsi+0x3e>
 b96:	e1 f0       	breq	.+56     	; 0xbd0 <__fixunssfsi+0x4c>
 b98:	66 0f       	add	r22, r22
 b9a:	77 1f       	adc	r23, r23
 b9c:	88 1f       	adc	r24, r24
 b9e:	99 1f       	adc	r25, r25
 ba0:	1a f0       	brmi	.+6      	; 0xba8 <__fixunssfsi+0x24>
 ba2:	ba 95       	dec	r27
 ba4:	c9 f7       	brne	.-14     	; 0xb98 <__fixunssfsi+0x14>
 ba6:	14 c0       	rjmp	.+40     	; 0xbd0 <__fixunssfsi+0x4c>
 ba8:	b1 30       	cpi	r27, 0x01	; 1
 baa:	91 f0       	breq	.+36     	; 0xbd0 <__fixunssfsi+0x4c>
 bac:	0e 94 86 07 	call	0xf0c	; 0xf0c <__fp_zero>
 bb0:	b1 e0       	ldi	r27, 0x01	; 1
 bb2:	08 95       	ret
 bb4:	0c 94 86 07 	jmp	0xf0c	; 0xf0c <__fp_zero>
 bb8:	67 2f       	mov	r22, r23
 bba:	78 2f       	mov	r23, r24
 bbc:	88 27       	eor	r24, r24
 bbe:	b8 5f       	subi	r27, 0xF8	; 248
 bc0:	39 f0       	breq	.+14     	; 0xbd0 <__fixunssfsi+0x4c>
 bc2:	b9 3f       	cpi	r27, 0xF9	; 249
 bc4:	cc f3       	brlt	.-14     	; 0xbb8 <__fixunssfsi+0x34>
 bc6:	86 95       	lsr	r24
 bc8:	77 95       	ror	r23
 bca:	67 95       	ror	r22
 bcc:	b3 95       	inc	r27
 bce:	d9 f7       	brne	.-10     	; 0xbc6 <__fixunssfsi+0x42>
 bd0:	3e f4       	brtc	.+14     	; 0xbe0 <__fixunssfsi+0x5c>
 bd2:	90 95       	com	r25
 bd4:	80 95       	com	r24
 bd6:	70 95       	com	r23
 bd8:	61 95       	neg	r22
 bda:	7f 4f       	sbci	r23, 0xFF	; 255
 bdc:	8f 4f       	sbci	r24, 0xFF	; 255
 bde:	9f 4f       	sbci	r25, 0xFF	; 255
 be0:	08 95       	ret

Disassembly of section .text.avrlibc.fplib:

00000940 <__floatunsisf>:
 940:	e8 94       	clt
 942:	09 c0       	rjmp	.+18     	; 0x956 <__floatsisf+0x12>

00000944 <__floatsisf>:
 944:	97 fb       	bst	r25, 7
 946:	3e f4       	brtc	.+14     	; 0x956 <__floatsisf+0x12>
 948:	90 95       	com	r25
 94a:	80 95       	com	r24
 94c:	70 95       	com	r23
 94e:	61 95       	neg	r22
 950:	7f 4f       	sbci	r23, 0xFF	; 255
 952:	8f 4f       	sbci	r24, 0xFF	; 255
 954:	9f 4f       	sbci	r25, 0xFF	; 255
 956:	99 23       	and	r25, r25
 958:	a9 f0       	breq	.+42     	; 0x984 <__floatsisf+0x40>
 95a:	f9 2f       	mov	r31, r25
 95c:	96 e9       	ldi	r25, 0x96	; 150
 95e:	bb 27       	eor	r27, r27
 960:	93 95       	inc	r25
 962:	f6 95       	lsr	r31
 964:	87 95       	ror	r24
 966:	77 95       	ror	r23
 968:	67 95       	ror	r22
 96a:	b7 95       	ror	r27
 96c:	f1 11       	cpse	r31, r1
 96e:	f8 cf       	rjmp	.-16     	; 0x960 <__floatsisf+0x1c>
 970:	fa f4       	brpl	.+62     	; 0x9b0 <__floatsisf+0x6c>
 972:	bb 0f       	add	r27, r27
 974:	11 f4       	brne	.+4      	; 0x97a <__floatsisf+0x36>
 976:	60 ff       	sbrs	r22, 0
 978:	1b c0       	rjmp	.+54     	; 0x9b0 <__floatsisf+0x6c>
 97a:	6f 5f       	subi	r22, 0xFF	; 255
 97c:	7f 4f       	sbci	r23, 0xFF	; 255
 97e:	8f 4f       	sbci	r24, 0xFF	; 255
 980:	9f 4f       	sbci	r25, 0xFF	; 255
 982:	16 c0       	rjmp	.+44     	; 0x9b0 <__floatsisf+0x6c>
 984:	88 23       	and	r24, r24
 986:	11 f0       	breq	.+4      	; 0x98c <__floatsisf+0x48>
 988:	96 e9       	ldi	r25, 0x96	; 150
 98a:	11 c0       	rjmp	.+34     	; 0x9ae <__floatsisf+0x6a>
 98c:	77 23       	and	r23, r23
 98e:	21 f0       	breq	.+8      	; 0x998 <__floatsisf+0x54>
 990:	9e e8       	ldi	r25, 0x8E	; 142
 992:	87 2f       	mov	r24, r23
 994:	76 2f       	mov	r23, r22
 996:	05 c0       	rjmp	.+10     	; 0x9a2 <__floatsisf+0x5e>
 998:	66 23       	and	r22, r22
 99a:	71 f0       	breq	.+28     	; 0x9b8 <__floatsisf+0x74>
 99c:	96 e8       	ldi	r25, 0x86	; 134
 99e:	86 2f       	mov	r24, r22
 9a0:	70 e0       	ldi	r23, 0x00	; 0
 9a2:	60 e0       	ldi	r22, 0x00	; 0
 9a4:	2a f0       	brmi	.+10     	; 0x9b0 <__floatsisf+0x6c>
 9a6:	9a 95       	dec	r25
 9a8:	66 0f       	add	r22, r22
 9aa:	77 1f       	adc	r23, r23
 9ac:	88 1f       	adc	r24, r24
 9ae:	da f7       	brpl	.-10     	; 0x9a6 <__floatsisf+0x62>
 9b0:	88 0f       	add	r24, r24
 9b2:	96 95       	lsr	r25
 9b4:	87 95       	ror	r24
 9b6:	97 f9       	bld	r25, 7
 9b8:	08 95       	ret

Disassembly of section .text.avrlibc.fplib:

00000f1a <__fp_inf>:
 f1a:	97 f9       	bld	r25, 7
 f1c:	9f 67       	ori	r25, 0x7F	; 127
 f1e:	80 e8       	ldi	r24, 0x80	; 128
 f20:	70 e0       	ldi	r23, 0x00	; 0
 f22:	60 e0       	ldi	r22, 0x00	; 0
 f24:	08 95       	ret

Disassembly of section .text.avrlibc.fplib:

00000f3c <__fp_nan>:
 f3c:	9f ef       	ldi	r25, 0xFF	; 255
 f3e:	80 ec       	ldi	r24, 0xC0	; 192
 f40:	08 95       	ret

Disassembly of section .text.avrlibc.fplib:

00000ef0 <__fp_pscA>:
 ef0:	00 24       	eor	r0, r0
 ef2:	0a 94       	dec	r0
 ef4:	16 16       	cp	r1, r22
 ef6:	17 06       	cpc	r1, r23
 ef8:	18 06       	cpc	r1, r24
 efa:	09 06       	cpc	r0, r25
 efc:	08 95       	ret

Disassembly of section .text.avrlibc.fplib:

00000efe <__fp_pscB>:
 efe:	00 24       	eor	r0, r0
 f00:	0a 94       	dec	r0
 f02:	12 16       	cp	r1, r18
 f04:	13 06       	cpc	r1, r19
 f06:	14 06       	cpc	r1, r20
 f08:	05 06       	cpc	r0, r21
 f0a:	08 95       	ret

Disassembly of section .text.avrlibc.fplib:

00000e92 <__fp_round>:
 e92:	09 2e       	mov	r0, r25
 e94:	03 94       	inc	r0
 e96:	00 0c       	add	r0, r0
 e98:	11 f4       	brne	.+4      	; 0xe9e <__fp_round+0xc>
 e9a:	88 23       	and	r24, r24
 e9c:	52 f0       	brmi	.+20     	; 0xeb2 <__fp_round+0x20>
 e9e:	bb 0f       	add	r27, r27
 ea0:	40 f4       	brcc	.+16     	; 0xeb2 <__fp_round+0x20>
 ea2:	bf 2b       	or	r27, r31
 ea4:	11 f4       	brne	.+4      	; 0xeaa <__fp_round+0x18>
 ea6:	60 ff       	sbrs	r22, 0
 ea8:	04 c0       	rjmp	.+8      	; 0xeb2 <__fp_round+0x20>
 eaa:	6f 5f       	subi	r22, 0xFF	; 255
 eac:	7f 4f       	sbci	r23, 0xFF	; 255
 eae:	8f 4f       	sbci	r24, 0xFF	; 255
 eb0:	9f 4f       	sbci	r25, 0xFF	; 255
 eb2:	08 95       	ret

Disassembly of section .text.avrlibc.fplib:

00000d0e <__fp_split3>:
 d0e:	57 fd       	sbrc	r21, 7
 d10:	90 58       	subi	r25, 0x80	; 128
 d12:	44 0f       	add	r20, r20
 d14:	55 1f       	adc	r21, r21
 d16:	59 f0       	breq	.+22     	; 0xd2e <__fp_splitA+0x10>
 d18:	5f 3f       	cpi	r21, 0xFF	; 255
 d1a:	71 f0       	breq	.+28     	; 0xd38 <__fp_splitA+0x1a>
 d1c:	47 95       	ror	r20

00000d1e <__fp_splitA>:
 d1e:	88 0f       	add	r24, r24
 d20:	97 fb       	bst	r25, 7
 d22:	99 1f       	adc	r25, r25
 d24:	61 f0       	breq	.+24     	; 0xd3e <__fp_splitA+0x20>
 d26:	9f 3f       	cpi	r25, 0xFF	; 255
 d28:	79 f0       	breq	.+30     	; 0xd48 <__fp_splitA+0x2a>
 d2a:	87 95       	ror	r24
 d2c:	08 95       	ret
 d2e:	12 16       	cp	r1, r18
 d30:	13 06       	cpc	r1, r19
 d32:	14 06       	cpc	r1, r20
 d34:	55 1f       	adc	r21, r21
 d36:	f2 cf       	rjmp	.-28     	; 0xd1c <__fp_split3+0xe>
 d38:	46 95       	lsr	r20
 d3a:	f1 df       	rcall	.-30     	; 0xd1e <__fp_splitA>
 d3c:	08 c0       	rjmp	.+16     	; 0xd4e <__fp_splitA+0x30>
 d3e:	16 16       	cp	r1, r22
 d40:	17 06       	cpc	r1, r23
 d42:	18 06       	cpc	r1, r24
 d44:	99 1f       	adc	r25, r25
 d46:	f1 cf       	rjmp	.-30     	; 0xd2a <__fp_splitA+0xc>
 d48:	86 95       	lsr	r24
 d4a:	71 05       	cpc	r23, r1
 d4c:	61 05       	cpc	r22, r1
 d4e:	08 94       	sec
 d50:	08 95       	ret

Disassembly of section .text.avrlibc.fplib:

00000f0c <__fp_zero>:
 f0c:	e8 94       	clt

00000f0e <__fp_szero>:
 f0e:	bb 27       	eor	r27, r27
 f10:	66 27       	eor	r22, r22
 f12:	77 27       	eor	r23, r23
 f14:	cb 01       	movw	r24, r22
 f16:	97 f9       	bld	r25, 7
 f18:	08 95       	ret

Disassembly of section .text.avrlibc.fplib:

00000f2e <__mulsf3>:
 f2e:	0e 94 26 03 	call	0x64c	; 0x64c <__mulsf3x>
 f32:	0c 94 49 07 	jmp	0xe92	; 0xe92 <__fp_round>

Disassembly of section .text.avrlibc.fplib:

0000064c <__mulsf3x>:
 64c:	0f c0       	rjmp	.+30     	; 0x66c <__mulsf3x+0x20>
 64e:	0e 94 78 07 	call	0xef0	; 0xef0 <__fp_pscA>
 652:	38 f0       	brcs	.+14     	; 0x662 <__mulsf3x+0x16>
 654:	0e 94 7f 07 	call	0xefe	; 0xefe <__fp_pscB>
 658:	20 f0       	brcs	.+8      	; 0x662 <__mulsf3x+0x16>
 65a:	95 23       	and	r25, r21
 65c:	11 f0       	breq	.+4      	; 0x662 <__mulsf3x+0x16>
 65e:	0c 94 8d 07 	jmp	0xf1a	; 0xf1a <__fp_inf>
 662:	0c 94 9e 07 	jmp	0xf3c	; 0xf3c <__fp_nan>
 666:	11 24       	eor	r1, r1
 668:	0c 94 87 07 	jmp	0xf0e	; 0xf0e <__fp_szero>
 66c:	0e 94 87 06 	call	0xd0e	; 0xd0e <__fp_split3>
 670:	70 f3       	brcs	.-36     	; 0x64e <__mulsf3x+0x2>

00000672 <__mulsf3_pse>:
 672:	95 9f       	mul	r25, r21
 674:	c1 f3       	breq	.-16     	; 0x666 <__mulsf3x+0x1a>
 676:	95 0f       	add	r25, r21
 678:	50 e0       	ldi	r21, 0x00	; 0
 67a:	55 1f       	adc	r21, r21
 67c:	62 9f       	mul	r22, r18
 67e:	f0 01       	movw	r30, r0
 680:	72 9f       	mul	r23, r18
 682:	bb 27       	eor	r27, r27
 684:	f0 0d       	add	r31, r0
 686:	b1 1d       	adc	r27, r1
 688:	63 9f       	mul	r22, r19
 68a:	aa 27       	eor	r26, r26
 68c:	f0 0d       	add	r31, r0
 68e:	b1 1d       	adc	r27, r1
 690:	aa 1f       	adc	r26, r26
 692:	64 9f       	mul	r22, r20
 694:	66 27       	eor	r22, r22
 696:	b0 0d       	add	r27, r0
 698:	a1 1d       	adc	r26, r1
 69a:	66 1f       	adc	r22, r22
 69c:	82 9f       	mul	r24, r18
 69e:	22 27       	eor	r18, r18
 6a0:	b0 0d       	add	r27, r0
 6a2:	a1 1d       	adc	r26, r1
 6a4:	62 1f       	adc	r22, r18
 6a6:	73 9f       	mul	r23, r19
 6a8:	b0 0d       	add	r27, r0
 6aa:	a1 1d       	adc	r26, r1
 6ac:	62 1f       	adc	r22, r18
 6ae:	83 9f       	mul	r24, r19
 6b0:	a0 0d       	add	r26, r0
 6b2:	61 1d       	adc	r22, r1
 6b4:	22 1f       	adc	r18, r18
 6b6:	74 9f       	mul	r23, r20
 6b8:	33 27       	eor	r19, r19
 6ba:	a0 0d       	add	r26, r0
 6bc:	61 1d       	adc	r22, r1
 6be:	23 1f       	adc	r18, r19
 6c0:	84 9f       	mul	r24, r20
 6c2:	60 0d       	add	r22, r0
 6c4:	21 1d       	adc	r18, r1
 6c6:	82 2f       	mov	r24, r18
 6c8:	76 2f       	mov	r23, r22
 6ca:	6a 2f       	mov	r22, r26
 6cc:	11 24       	eor	r1, r1
 6ce:	9f 57       	subi	r25, 0x7F	; 127
 6d0:	50 40       	sbci	r21, 0x00	; 0
 6d2:	9a f0       	brmi	.+38     	; 0x6fa <__mulsf3_pse+0x88>
 6d4:	f1 f0       	breq	.+60     	; 0x712 <__mulsf3_pse+0xa0>
 6d6:	88 23       	and	r24, r24
 6d8:	4a f0       	brmi	.+18     	; 0x6ec <__mulsf3_pse+0x7a>
 6da:	ee 0f       	add	r30, r30
 6dc:	ff 1f       	adc	r31, r31
 6de:	bb 1f       	adc	r27, r27
 6e0:	66 1f       	adc	r22, r22
 6e2:	77 1f       	adc	r23, r23
 6e4:	88 1f       	adc	r24, r24
 6e6:	91 50       	subi	r25, 0x01	; 1
 6e8:	50 40       	sbci	r21, 0x00	; 0
 6ea:	a9 f7       	brne	.-22     	; 0x6d6 <__mulsf3_pse+0x64>
 6ec:	9e 3f       	cpi	r25, 0xFE	; 254
 6ee:	51 05       	cpc	r21, r1
 6f0:	80 f0       	brcs	.+32     	; 0x712 <__mulsf3_pse+0xa0>
 6f2:	0c 94 8d 07 	jmp	0xf1a	; 0xf1a <__fp_inf>
 6f6:	0c 94 87 07 	jmp	0xf0e	; 0xf0e <__fp_szero>
 6fa:	5f 3f       	cpi	r21, 0xFF	; 255
 6fc:	e4 f3       	brlt	.-8      	; 0x6f6 <__mulsf3_pse+0x84>
 6fe:	98 3e       	cpi	r25, 0xE8	; 232
 700:	d4 f3       	brlt	.-12     	; 0x6f6 <__mulsf3_pse+0x84>
 702:	86 95       	lsr	r24
 704:	77 95       	ror	r23
 706:	67 95       	ror	r22
 708:	b7 95       	ror	r27
 70a:	f7 95       	ror	r31
 70c:	e7 95       	ror	r30
 70e:	9f 5f       	subi	r25, 0xFF	; 255
 710:	c1 f7       	brne	.-16     	; 0x702 <__mulsf3_pse+0x90>
 712:	fe 2b       	or	r31, r30
 714:	88 0f       	add	r24, r24
 716:	91 1d       	adc	r25, r1
 718:	96 95       	lsr	r25
 71a:	87 95       	ror	r24
 71c:	97 f9       	bld	r25, 7
 71e:	08 95       	ret

Disassembly of section .text.libgcc:

00000eb4 <__movmemx_qi>:
 eb4:	99 27       	eor	r25, r25

00000eb6 <__movmemx_hi>:
 eb6:	77 fd       	sbrc	r23, 7
 eb8:	05 c0       	rjmp	.+10     	; 0xec4 <__movmemx_hi+0xe>
 eba:	05 90       	lpm	r0, Z+
 ebc:	0d 92       	st	X+, r0
 ebe:	01 97       	sbiw	r24, 0x01	; 1
 ec0:	e1 f7       	brne	.-8      	; 0xeba <__movmemx_hi+0x4>
 ec2:	08 95       	ret
 ec4:	01 90       	ld	r0, Z+
 ec6:	0d 92       	st	X+, r0
 ec8:	01 97       	sbiw	r24, 0x01	; 1
 eca:	e1 f7       	brne	.-8      	; 0xec4 <__movmemx_hi+0xe>
 ecc:	08 95       	ret

Disassembly of section .text.avrlibc:

00000e66 <strlen>:
 e66:	cf 92       	push	r12
 e68:	df 92       	push	r13
 e6a:	ef 92       	push	r14
 e6c:	6b 01       	movw	r12, r22
 e6e:	e8 2e       	mov	r14, r24
 e70:	a8 2f       	mov	r26, r24
 e72:	cb 01       	movw	r24, r22
 e74:	fc 01       	movw	r30, r24
 e76:	24 91       	lpm	r18, Z
 e78:	a7 fd       	sbrc	r26, 7
 e7a:	20 81       	ld	r18, Z
 e7c:	22 23       	and	r18, r18
 e7e:	19 f0       	breq	.+6      	; 0xe86 <strlen+0x20>
 e80:	01 96       	adiw	r24, 0x01	; 1
 e82:	a1 1d       	adc	r26, r1
 e84:	f7 cf       	rjmp	.-18     	; 0xe74 <strlen+0xe>
 e86:	8c 19       	sub	r24, r12
 e88:	9d 09       	sbc	r25, r13
 e8a:	ef 90       	pop	r14
 e8c:	df 90       	pop	r13
 e8e:	cf 90       	pop	r12
 e90:	08 95       	ret

Disassembly of section .text.avrlibc:

00000cc8 <sprintf>:
 cc8:	af e0       	ldi	r26, 0x0F	; 15
 cca:	b0 e0       	ldi	r27, 0x00	; 0
 ccc:	ea e6       	ldi	r30, 0x6A	; 106
 cce:	f6 e0       	ldi	r31, 0x06	; 6
 cd0:	0c 94 d5 06 	jmp	0xdaa	; 0xdaa <__prologue_saves__+0x1c>
 cd4:	0e 89       	ldd	r16, Y+22	; 0x16
 cd6:	1f 89       	ldd	r17, Y+23	; 0x17
 cd8:	86 e0       	ldi	r24, 0x06	; 6
 cda:	8d 83       	std	Y+5, r24	; 0x05
 cdc:	1a 83       	std	Y+2, r17	; 0x02
 cde:	09 83       	std	Y+1, r16	; 0x01
 ce0:	8f ef       	ldi	r24, 0xFF	; 255
 ce2:	9f e7       	ldi	r25, 0x7F	; 127
 ce4:	9f 83       	std	Y+7, r25	; 0x07
 ce6:	8e 83       	std	Y+6, r24	; 0x06
 ce8:	9e 01       	movw	r18, r28
 cea:	25 5e       	subi	r18, 0xE5	; 229
 cec:	3f 4f       	sbci	r19, 0xFF	; 255
 cee:	48 8d       	ldd	r20, Y+24	; 0x18
 cf0:	59 8d       	ldd	r21, Y+25	; 0x19
 cf2:	6a 8d       	ldd	r22, Y+26	; 0x1a
 cf4:	ce 01       	movw	r24, r28
 cf6:	01 96       	adiw	r24, 0x01	; 1
 cf8:	0e 94 93 00 	call	0x126	; 0x126 <vfprintf>
 cfc:	e8 85       	ldd	r30, Y+8	; 0x08
 cfe:	f9 85       	ldd	r31, Y+9	; 0x09
 d00:	e0 0f       	add	r30, r16
 d02:	f1 1f       	adc	r31, r17
 d04:	10 82       	st	Z, r1
 d06:	2f 96       	adiw	r28, 0x0f	; 15
 d08:	e4 e0       	ldi	r30, 0x04	; 4
 d0a:	0c 94 0c 07 	jmp	0xe18	; 0xe18 <__epilogue_restores__+0x1c>

Disassembly of section .text.avrlibc:

00000126 <vfprintf>:
 126:	2f 92       	push	r2
 128:	3f 92       	push	r3
 12a:	4f 92       	push	r4
 12c:	6f 92       	push	r6
 12e:	7f 92       	push	r7
 130:	8f 92       	push	r8
 132:	9f 92       	push	r9
 134:	af 92       	push	r10
 136:	bf 92       	push	r11
 138:	cf 92       	push	r12
 13a:	df 92       	push	r13
 13c:	ef 92       	push	r14
 13e:	ff 92       	push	r15
 140:	0f 93       	push	r16
 142:	1f 93       	push	r17
 144:	cf 93       	push	r28
 146:	df 93       	push	r29
 148:	cd b7       	in	r28, 0x3d	; 61
 14a:	de b7       	in	r29, 0x3e	; 62
 14c:	62 97       	sbiw	r28, 0x12	; 18
 14e:	0f b6       	in	r0, 0x3f	; 63
 150:	f8 94       	cli
 152:	de bf       	out	0x3e, r29	; 62
 154:	0f be       	out	0x3f, r0	; 63
 156:	cd bf       	out	0x3d, r28	; 61
 158:	6c 01       	movw	r12, r24
 15a:	3a 01       	movw	r6, r20
 15c:	86 2e       	mov	r8, r22
 15e:	79 01       	movw	r14, r18
 160:	fc 01       	movw	r30, r24
 162:	10 86       	std	Z+8, r1	; 0x08
 164:	17 82       	std	Z+7, r1	; 0x07
 166:	84 81       	ldd	r24, Z+4	; 0x04
 168:	81 ff       	sbrs	r24, 1
 16a:	e7 c1       	rjmp	.+974    	; 0x53a <__EEPROM_REGION_LENGTH__+0x13a>
 16c:	9e 01       	movw	r18, r28
 16e:	2f 5f       	subi	r18, 0xFF	; 255
 170:	3f 4f       	sbci	r19, 0xFF	; 255
 172:	3d 87       	std	Y+13, r19	; 0x0d
 174:	2c 87       	std	Y+12, r18	; 0x0c
 176:	c9 01       	movw	r24, r18
 178:	a0 e8       	ldi	r26, 0x80	; 128
 17a:	88 8b       	std	Y+16, r24	; 0x10
 17c:	99 8b       	std	Y+17, r25	; 0x11
 17e:	aa 8b       	std	Y+18, r26	; 0x12
 180:	9f e3       	ldi	r25, 0x3F	; 63
 182:	99 2e       	mov	r9, r25
 184:	f3 01       	movw	r30, r6
 186:	84 91       	lpm	r24, Z
 188:	87 fc       	sbrc	r8, 7
 18a:	80 81       	ld	r24, Z
 18c:	88 23       	and	r24, r24
 18e:	09 f4       	brne	.+2      	; 0x192 <vfprintf+0x6c>
 190:	d0 c1       	rjmp	.+928    	; 0x532 <__EEPROM_REGION_LENGTH__+0x132>
 192:	48 2d       	mov	r20, r8
 194:	93 01       	movw	r18, r6
 196:	2f 5f       	subi	r18, 0xFF	; 255
 198:	3f 4f       	sbci	r19, 0xFF	; 255
 19a:	4f 4f       	sbci	r20, 0xFF	; 255
 19c:	85 32       	cpi	r24, 0x25	; 37
 19e:	19 f0       	breq	.+6      	; 0x1a6 <vfprintf+0x80>
 1a0:	39 01       	movw	r6, r18
 1a2:	84 2e       	mov	r8, r20
 1a4:	0a c0       	rjmp	.+20     	; 0x1ba <vfprintf+0x94>
 1a6:	f9 01       	movw	r30, r18
 1a8:	84 91       	lpm	r24, Z
 1aa:	47 fd       	sbrc	r20, 7
 1ac:	80 81       	ld	r24, Z
 1ae:	92 e0       	ldi	r25, 0x02	; 2
 1b0:	69 0e       	add	r6, r25
 1b2:	71 1c       	adc	r7, r1
 1b4:	81 1c       	adc	r8, r1
 1b6:	85 32       	cpi	r24, 0x25	; 37
 1b8:	29 f4       	brne	.+10     	; 0x1c4 <vfprintf+0x9e>
 1ba:	b6 01       	movw	r22, r12
 1bc:	90 e0       	ldi	r25, 0x00	; 0
 1be:	0e 94 dd 04 	call	0x9ba	; 0x9ba <fputc>
 1c2:	e0 cf       	rjmp	.-64     	; 0x184 <vfprintf+0x5e>
 1c4:	b1 2c       	mov	r11, r1
 1c6:	00 e0       	ldi	r16, 0x00	; 0
 1c8:	10 e0       	ldi	r17, 0x00	; 0
 1ca:	10 32       	cpi	r17, 0x20	; 32
 1cc:	a0 f4       	brcc	.+40     	; 0x1f6 <vfprintf+0xd0>
 1ce:	8b 32       	cpi	r24, 0x2B	; 43
 1d0:	69 f0       	breq	.+26     	; 0x1ec <vfprintf+0xc6>
 1d2:	30 f4       	brcc	.+12     	; 0x1e0 <vfprintf+0xba>
 1d4:	80 32       	cpi	r24, 0x20	; 32
 1d6:	59 f0       	breq	.+22     	; 0x1ee <vfprintf+0xc8>
 1d8:	83 32       	cpi	r24, 0x23	; 35
 1da:	69 f4       	brne	.+26     	; 0x1f6 <vfprintf+0xd0>
 1dc:	10 61       	ori	r17, 0x10	; 16
 1de:	2c c0       	rjmp	.+88     	; 0x238 <vfprintf+0x112>
 1e0:	8d 32       	cpi	r24, 0x2D	; 45
 1e2:	39 f0       	breq	.+14     	; 0x1f2 <vfprintf+0xcc>
 1e4:	80 33       	cpi	r24, 0x30	; 48
 1e6:	39 f4       	brne	.+14     	; 0x1f6 <vfprintf+0xd0>
 1e8:	11 60       	ori	r17, 0x01	; 1
 1ea:	26 c0       	rjmp	.+76     	; 0x238 <vfprintf+0x112>
 1ec:	12 60       	ori	r17, 0x02	; 2
 1ee:	14 60       	ori	r17, 0x04	; 4
 1f0:	23 c0       	rjmp	.+70     	; 0x238 <vfprintf+0x112>
 1f2:	18 60       	ori	r17, 0x08	; 8
 1f4:	21 c0       	rjmp	.+66     	; 0x238 <vfprintf+0x112>
 1f6:	17 fd       	sbrc	r17, 7
 1f8:	29 c0       	rjmp	.+82     	; 0x24c <vfprintf+0x126>
 1fa:	90 ed       	ldi	r25, 0xD0	; 208
 1fc:	98 0f       	add	r25, r24
 1fe:	9a 30       	cpi	r25, 0x0A	; 10
 200:	78 f4       	brcc	.+30     	; 0x220 <vfprintf+0xfa>
 202:	16 ff       	sbrs	r17, 6
 204:	06 c0       	rjmp	.+12     	; 0x212 <vfprintf+0xec>
 206:	aa e0       	ldi	r26, 0x0A	; 10
 208:	ba 9e       	mul	r11, r26
 20a:	90 0d       	add	r25, r0
 20c:	11 24       	eor	r1, r1
 20e:	b9 2e       	mov	r11, r25
 210:	13 c0       	rjmp	.+38     	; 0x238 <vfprintf+0x112>
 212:	ea e0       	ldi	r30, 0x0A	; 10
 214:	0e 9f       	mul	r16, r30
 216:	90 0d       	add	r25, r0
 218:	11 24       	eor	r1, r1
 21a:	09 2f       	mov	r16, r25
 21c:	10 62       	ori	r17, 0x20	; 32
 21e:	0c c0       	rjmp	.+24     	; 0x238 <vfprintf+0x112>
 220:	8e 32       	cpi	r24, 0x2E	; 46
 222:	21 f4       	brne	.+8      	; 0x22c <vfprintf+0x106>
 224:	16 fd       	sbrc	r17, 6
 226:	85 c1       	rjmp	.+778    	; 0x532 <__EEPROM_REGION_LENGTH__+0x132>
 228:	10 64       	ori	r17, 0x40	; 64
 22a:	06 c0       	rjmp	.+12     	; 0x238 <vfprintf+0x112>
 22c:	8c 36       	cpi	r24, 0x6C	; 108
 22e:	11 f4       	brne	.+4      	; 0x234 <vfprintf+0x10e>
 230:	10 68       	ori	r17, 0x80	; 128
 232:	02 c0       	rjmp	.+4      	; 0x238 <vfprintf+0x112>
 234:	88 36       	cpi	r24, 0x68	; 104
 236:	51 f4       	brne	.+20     	; 0x24c <vfprintf+0x126>
 238:	f3 01       	movw	r30, r6
 23a:	84 91       	lpm	r24, Z
 23c:	87 fc       	sbrc	r8, 7
 23e:	80 81       	ld	r24, Z
 240:	ff ef       	ldi	r31, 0xFF	; 255
 242:	6f 1a       	sub	r6, r31
 244:	7f 0a       	sbc	r7, r31
 246:	8f 0a       	sbc	r8, r31
 248:	81 11       	cpse	r24, r1
 24a:	bf cf       	rjmp	.-130    	; 0x1ca <vfprintf+0xa4>
 24c:	98 2f       	mov	r25, r24
 24e:	9f 7d       	andi	r25, 0xDF	; 223
 250:	95 54       	subi	r25, 0x45	; 69
 252:	93 30       	cpi	r25, 0x03	; 3
 254:	28 f4       	brcc	.+10     	; 0x260 <vfprintf+0x13a>
 256:	24 e0       	ldi	r18, 0x04	; 4
 258:	e2 0e       	add	r14, r18
 25a:	f1 1c       	adc	r15, r1
 25c:	99 82       	std	Y+1, r9	; 0x01
 25e:	0f c0       	rjmp	.+30     	; 0x27e <vfprintf+0x158>
 260:	83 36       	cpi	r24, 0x63	; 99
 262:	31 f0       	breq	.+12     	; 0x270 <vfprintf+0x14a>
 264:	83 37       	cpi	r24, 0x73	; 115
 266:	91 f0       	breq	.+36     	; 0x28c <vfprintf+0x166>
 268:	83 35       	cpi	r24, 0x53	; 83
 26a:	09 f0       	breq	.+2      	; 0x26e <vfprintf+0x148>
 26c:	63 c0       	rjmp	.+198    	; 0x334 <vfprintf+0x20e>
 26e:	27 c0       	rjmp	.+78     	; 0x2be <vfprintf+0x198>
 270:	f7 01       	movw	r30, r14
 272:	80 81       	ld	r24, Z
 274:	89 83       	std	Y+1, r24	; 0x01
 276:	97 01       	movw	r18, r14
 278:	2e 5f       	subi	r18, 0xFE	; 254
 27a:	3f 4f       	sbci	r19, 0xFF	; 255
 27c:	79 01       	movw	r14, r18
 27e:	28 88       	ldd	r2, Y+16	; 0x10
 280:	39 88       	ldd	r3, Y+17	; 0x11
 282:	4a 88       	ldd	r4, Y+18	; 0x12
 284:	aa 24       	eor	r10, r10
 286:	a3 94       	inc	r10
 288:	b1 2c       	mov	r11, r1
 28a:	17 c0       	rjmp	.+46     	; 0x2ba <vfprintf+0x194>
 28c:	a7 01       	movw	r20, r14
 28e:	4d 5f       	subi	r20, 0xFD	; 253
 290:	5f 4f       	sbci	r21, 0xFF	; 255
 292:	5f 87       	std	Y+15, r21	; 0x0f
 294:	4e 87       	std	Y+14, r20	; 0x0e
 296:	f7 01       	movw	r30, r14
 298:	20 80       	ld	r2, Z
 29a:	31 80       	ldd	r3, Z+1	; 0x01
 29c:	42 80       	ldd	r4, Z+2	; 0x02
 29e:	16 ff       	sbrs	r17, 6
 2a0:	03 c0       	rjmp	.+6      	; 0x2a8 <vfprintf+0x182>
 2a2:	4b 2d       	mov	r20, r11
 2a4:	50 e0       	ldi	r21, 0x00	; 0
 2a6:	02 c0       	rjmp	.+4      	; 0x2ac <vfprintf+0x186>
 2a8:	4f ef       	ldi	r20, 0xFF	; 255
 2aa:	5f ef       	ldi	r21, 0xFF	; 255
 2ac:	84 2d       	mov	r24, r4
 2ae:	b1 01       	movw	r22, r2
 2b0:	0e 94 e3 06 	call	0xdc6	; 0xdc6 <strnlen>
 2b4:	5c 01       	movw	r10, r24
 2b6:	ee 84       	ldd	r14, Y+14	; 0x0e
 2b8:	ff 84       	ldd	r15, Y+15	; 0x0f
 2ba:	1f 77       	andi	r17, 0x7F	; 127
 2bc:	18 c0       	rjmp	.+48     	; 0x2ee <vfprintf+0x1c8>
 2be:	97 01       	movw	r18, r14
 2c0:	2d 5f       	subi	r18, 0xFD	; 253
 2c2:	3f 4f       	sbci	r19, 0xFF	; 255
 2c4:	3f 87       	std	Y+15, r19	; 0x0f
 2c6:	2e 87       	std	Y+14, r18	; 0x0e
 2c8:	f7 01       	movw	r30, r14
 2ca:	20 80       	ld	r2, Z
 2cc:	31 80       	ldd	r3, Z+1	; 0x01
 2ce:	42 80       	ldd	r4, Z+2	; 0x02
 2d0:	16 ff       	sbrs	r17, 6
 2d2:	03 c0       	rjmp	.+6      	; 0x2da <vfprintf+0x1b4>
 2d4:	4b 2d       	mov	r20, r11
 2d6:	50 e0       	ldi	r21, 0x00	; 0
 2d8:	02 c0       	rjmp	.+4      	; 0x2de <vfprintf+0x1b8>
 2da:	4f ef       	ldi	r20, 0xFF	; 255
 2dc:	5f ef       	ldi	r21, 0xFF	; 255
 2de:	84 2d       	mov	r24, r4
 2e0:	b1 01       	movw	r22, r2
 2e2:	0e 94 e3 06 	call	0xdc6	; 0xdc6 <strnlen>
 2e6:	5c 01       	movw	r10, r24
 2e8:	10 68       	ori	r17, 0x80	; 128
 2ea:	ee 84       	ldd	r14, Y+14	; 0x0e
 2ec:	ff 84       	ldd	r15, Y+15	; 0x0f
 2ee:	13 fd       	sbrc	r17, 3
 2f0:	1d c0       	rjmp	.+58     	; 0x32c <vfprintf+0x206>
 2f2:	80 2f       	mov	r24, r16
 2f4:	90 e0       	ldi	r25, 0x00	; 0
 2f6:	a8 16       	cp	r10, r24
 2f8:	b9 06       	cpc	r11, r25
 2fa:	c0 f4       	brcc	.+48     	; 0x32c <vfprintf+0x206>
 2fc:	b6 01       	movw	r22, r12
 2fe:	80 e2       	ldi	r24, 0x20	; 32
 300:	90 e0       	ldi	r25, 0x00	; 0
 302:	0e 94 dd 04 	call	0x9ba	; 0x9ba <fputc>
 306:	01 50       	subi	r16, 0x01	; 1
 308:	f4 cf       	rjmp	.-24     	; 0x2f2 <vfprintf+0x1cc>
 30a:	f1 01       	movw	r30, r2
 30c:	84 91       	lpm	r24, Z
 30e:	47 fc       	sbrc	r4, 7
 310:	80 81       	ld	r24, Z
 312:	ff ef       	ldi	r31, 0xFF	; 255
 314:	2f 1a       	sub	r2, r31
 316:	3f 0a       	sbc	r3, r31
 318:	4f 0a       	sbc	r4, r31
 31a:	b6 01       	movw	r22, r12
 31c:	90 e0       	ldi	r25, 0x00	; 0
 31e:	0e 94 dd 04 	call	0x9ba	; 0x9ba <fputc>
 322:	01 11       	cpse	r16, r1
 324:	01 50       	subi	r16, 0x01	; 1
 326:	21 e0       	ldi	r18, 0x01	; 1
 328:	a2 1a       	sub	r10, r18
 32a:	b1 08       	sbc	r11, r1
 32c:	a1 14       	cp	r10, r1
 32e:	b1 04       	cpc	r11, r1
 330:	61 f7       	brne	.-40     	; 0x30a <vfprintf+0x1e4>
 332:	f5 c0       	rjmp	.+490    	; 0x51e <__EEPROM_REGION_LENGTH__+0x11e>
 334:	84 36       	cpi	r24, 0x64	; 100
 336:	11 f0       	breq	.+4      	; 0x33c <vfprintf+0x216>
 338:	89 36       	cpi	r24, 0x69	; 105
 33a:	71 f5       	brne	.+92     	; 0x398 <vfprintf+0x272>
 33c:	f7 01       	movw	r30, r14
 33e:	17 ff       	sbrs	r17, 7
 340:	08 c0       	rjmp	.+16     	; 0x352 <vfprintf+0x22c>
 342:	60 81       	ld	r22, Z
 344:	71 81       	ldd	r23, Z+1	; 0x01
 346:	82 81       	ldd	r24, Z+2	; 0x02
 348:	93 81       	ldd	r25, Z+3	; 0x03
 34a:	97 01       	movw	r18, r14
 34c:	2c 5f       	subi	r18, 0xFC	; 252
 34e:	3f 4f       	sbci	r19, 0xFF	; 255
 350:	09 c0       	rjmp	.+18     	; 0x364 <vfprintf+0x23e>
 352:	60 81       	ld	r22, Z
 354:	71 81       	ldd	r23, Z+1	; 0x01
 356:	07 2e       	mov	r0, r23
 358:	00 0c       	add	r0, r0
 35a:	88 0b       	sbc	r24, r24
 35c:	99 0b       	sbc	r25, r25
 35e:	97 01       	movw	r18, r14
 360:	2e 5f       	subi	r18, 0xFE	; 254
 362:	3f 4f       	sbci	r19, 0xFF	; 255
 364:	79 01       	movw	r14, r18
 366:	1f 76       	andi	r17, 0x6F	; 111
 368:	31 2e       	mov	r3, r17
 36a:	97 ff       	sbrs	r25, 7
 36c:	0a c0       	rjmp	.+20     	; 0x382 <vfprintf+0x25c>
 36e:	90 95       	com	r25
 370:	80 95       	com	r24
 372:	70 95       	com	r23
 374:	61 95       	neg	r22
 376:	7f 4f       	sbci	r23, 0xFF	; 255
 378:	8f 4f       	sbci	r24, 0xFF	; 255
 37a:	9f 4f       	sbci	r25, 0xFF	; 255
 37c:	31 2f       	mov	r19, r17
 37e:	30 68       	ori	r19, 0x80	; 128
 380:	33 2e       	mov	r3, r19
 382:	2a e0       	ldi	r18, 0x0A	; 10
 384:	30 e0       	ldi	r19, 0x00	; 0
 386:	ae 01       	movw	r20, r28
 388:	4f 5f       	subi	r20, 0xFF	; 255
 38a:	5f 4f       	sbci	r21, 0xFF	; 255
 38c:	0e 94 f7 03 	call	0x7ee	; 0x7ee <__ultoa_invert>
 390:	48 2e       	mov	r4, r24
 392:	4c 85       	ldd	r20, Y+12	; 0x0c
 394:	44 1a       	sub	r4, r20
 396:	4a c0       	rjmp	.+148    	; 0x42c <__EEPROM_REGION_LENGTH__+0x2c>
 398:	85 37       	cpi	r24, 0x75	; 117
 39a:	29 f4       	brne	.+10     	; 0x3a6 <vfprintf+0x280>
 39c:	1f 7e       	andi	r17, 0xEF	; 239
 39e:	a1 2e       	mov	r10, r17
 3a0:	2a e0       	ldi	r18, 0x0A	; 10
 3a2:	30 e0       	ldi	r19, 0x00	; 0
 3a4:	25 c0       	rjmp	.+74     	; 0x3f0 <vfprintf+0x2ca>
 3a6:	51 2f       	mov	r21, r17
 3a8:	59 7f       	andi	r21, 0xF9	; 249
 3aa:	a5 2e       	mov	r10, r21
 3ac:	8f 36       	cpi	r24, 0x6F	; 111
 3ae:	c1 f0       	breq	.+48     	; 0x3e0 <vfprintf+0x2ba>
 3b0:	18 f4       	brcc	.+6      	; 0x3b8 <vfprintf+0x292>
 3b2:	88 35       	cpi	r24, 0x58	; 88
 3b4:	79 f0       	breq	.+30     	; 0x3d4 <vfprintf+0x2ae>
 3b6:	bd c0       	rjmp	.+378    	; 0x532 <__EEPROM_REGION_LENGTH__+0x132>
 3b8:	80 37       	cpi	r24, 0x70	; 112
 3ba:	19 f0       	breq	.+6      	; 0x3c2 <vfprintf+0x29c>
 3bc:	88 37       	cpi	r24, 0x78	; 120
 3be:	21 f0       	breq	.+8      	; 0x3c8 <vfprintf+0x2a2>
 3c0:	b8 c0       	rjmp	.+368    	; 0x532 <__EEPROM_REGION_LENGTH__+0x132>
 3c2:	85 2f       	mov	r24, r21
 3c4:	80 61       	ori	r24, 0x10	; 16
 3c6:	a8 2e       	mov	r10, r24
 3c8:	a4 fe       	sbrs	r10, 4
 3ca:	0d c0       	rjmp	.+26     	; 0x3e6 <vfprintf+0x2c0>
 3cc:	9a 2d       	mov	r25, r10
 3ce:	94 60       	ori	r25, 0x04	; 4
 3d0:	a9 2e       	mov	r10, r25
 3d2:	09 c0       	rjmp	.+18     	; 0x3e6 <vfprintf+0x2c0>
 3d4:	14 ff       	sbrs	r17, 4
 3d6:	0a c0       	rjmp	.+20     	; 0x3ec <vfprintf+0x2c6>
 3d8:	a5 2f       	mov	r26, r21
 3da:	a6 60       	ori	r26, 0x06	; 6
 3dc:	aa 2e       	mov	r10, r26
 3de:	06 c0       	rjmp	.+12     	; 0x3ec <vfprintf+0x2c6>
 3e0:	28 e0       	ldi	r18, 0x08	; 8
 3e2:	30 e0       	ldi	r19, 0x00	; 0
 3e4:	05 c0       	rjmp	.+10     	; 0x3f0 <vfprintf+0x2ca>
 3e6:	20 e1       	ldi	r18, 0x10	; 16
 3e8:	30 e0       	ldi	r19, 0x00	; 0
 3ea:	02 c0       	rjmp	.+4      	; 0x3f0 <vfprintf+0x2ca>
 3ec:	20 e1       	ldi	r18, 0x10	; 16
 3ee:	32 e0       	ldi	r19, 0x02	; 2
 3f0:	f7 01       	movw	r30, r14
 3f2:	a7 fe       	sbrs	r10, 7
 3f4:	08 c0       	rjmp	.+16     	; 0x406 <__EEPROM_REGION_LENGTH__+0x6>
 3f6:	60 81       	ld	r22, Z
 3f8:	71 81       	ldd	r23, Z+1	; 0x01
 3fa:	82 81       	ldd	r24, Z+2	; 0x02
 3fc:	93 81       	ldd	r25, Z+3	; 0x03
 3fe:	a7 01       	movw	r20, r14
 400:	4c 5f       	subi	r20, 0xFC	; 252
 402:	5f 4f       	sbci	r21, 0xFF	; 255
 404:	07 c0       	rjmp	.+14     	; 0x414 <__EEPROM_REGION_LENGTH__+0x14>
 406:	60 81       	ld	r22, Z
 408:	71 81       	ldd	r23, Z+1	; 0x01
 40a:	80 e0       	ldi	r24, 0x00	; 0
 40c:	90 e0       	ldi	r25, 0x00	; 0
 40e:	a7 01       	movw	r20, r14
 410:	4e 5f       	subi	r20, 0xFE	; 254
 412:	5f 4f       	sbci	r21, 0xFF	; 255
 414:	7a 01       	movw	r14, r20
 416:	ae 01       	movw	r20, r28
 418:	4f 5f       	subi	r20, 0xFF	; 255
 41a:	5f 4f       	sbci	r21, 0xFF	; 255
 41c:	0e 94 f7 03 	call	0x7ee	; 0x7ee <__ultoa_invert>
 420:	48 2e       	mov	r4, r24
 422:	5c 85       	ldd	r21, Y+12	; 0x0c
 424:	45 1a       	sub	r4, r21
 426:	8a 2d       	mov	r24, r10
 428:	8f 77       	andi	r24, 0x7F	; 127
 42a:	38 2e       	mov	r3, r24
 42c:	36 fe       	sbrs	r3, 6
 42e:	0d c0       	rjmp	.+26     	; 0x44a <__EEPROM_REGION_LENGTH__+0x4a>
 430:	93 2d       	mov	r25, r3
 432:	9e 7f       	andi	r25, 0xFE	; 254
 434:	a9 2e       	mov	r10, r25
 436:	4b 14       	cp	r4, r11
 438:	58 f4       	brcc	.+22     	; 0x450 <__EEPROM_REGION_LENGTH__+0x50>
 43a:	34 fe       	sbrs	r3, 4
 43c:	0b c0       	rjmp	.+22     	; 0x454 <__EEPROM_REGION_LENGTH__+0x54>
 43e:	32 fc       	sbrc	r3, 2
 440:	09 c0       	rjmp	.+18     	; 0x454 <__EEPROM_REGION_LENGTH__+0x54>
 442:	a3 2d       	mov	r26, r3
 444:	ae 7e       	andi	r26, 0xEE	; 238
 446:	aa 2e       	mov	r10, r26
 448:	05 c0       	rjmp	.+10     	; 0x454 <__EEPROM_REGION_LENGTH__+0x54>
 44a:	14 2d       	mov	r17, r4
 44c:	a3 2c       	mov	r10, r3
 44e:	03 c0       	rjmp	.+6      	; 0x456 <__EEPROM_REGION_LENGTH__+0x56>
 450:	14 2d       	mov	r17, r4
 452:	01 c0       	rjmp	.+2      	; 0x456 <__EEPROM_REGION_LENGTH__+0x56>
 454:	1b 2d       	mov	r17, r11
 456:	a4 fe       	sbrs	r10, 4
 458:	0e c0       	rjmp	.+28     	; 0x476 <__EEPROM_REGION_LENGTH__+0x76>
 45a:	fe 01       	movw	r30, r28
 45c:	e4 0d       	add	r30, r4
 45e:	f1 1d       	adc	r31, r1
 460:	80 81       	ld	r24, Z
 462:	80 33       	cpi	r24, 0x30	; 48
 464:	21 f4       	brne	.+8      	; 0x46e <__EEPROM_REGION_LENGTH__+0x6e>
 466:	ea 2d       	mov	r30, r10
 468:	e9 7e       	andi	r30, 0xE9	; 233
 46a:	ae 2e       	mov	r10, r30
 46c:	08 c0       	rjmp	.+16     	; 0x47e <__EEPROM_REGION_LENGTH__+0x7e>
 46e:	a2 fe       	sbrs	r10, 2
 470:	05 c0       	rjmp	.+10     	; 0x47c <__EEPROM_REGION_LENGTH__+0x7c>
 472:	1e 5f       	subi	r17, 0xFE	; 254
 474:	04 c0       	rjmp	.+8      	; 0x47e <__EEPROM_REGION_LENGTH__+0x7e>
 476:	8a 2d       	mov	r24, r10
 478:	86 78       	andi	r24, 0x86	; 134
 47a:	09 f0       	breq	.+2      	; 0x47e <__EEPROM_REGION_LENGTH__+0x7e>
 47c:	1f 5f       	subi	r17, 0xFF	; 255
 47e:	a3 fc       	sbrc	r10, 3
 480:	11 c0       	rjmp	.+34     	; 0x4a4 <__EEPROM_REGION_LENGTH__+0xa4>
 482:	a0 fe       	sbrs	r10, 0
 484:	06 c0       	rjmp	.+12     	; 0x492 <__EEPROM_REGION_LENGTH__+0x92>
 486:	10 17       	cp	r17, r16
 488:	88 f4       	brcc	.+34     	; 0x4ac <__EEPROM_REGION_LENGTH__+0xac>
 48a:	04 0d       	add	r16, r4
 48c:	b0 2e       	mov	r11, r16
 48e:	b1 1a       	sub	r11, r17
 490:	0e c0       	rjmp	.+28     	; 0x4ae <__EEPROM_REGION_LENGTH__+0xae>
 492:	10 17       	cp	r17, r16
 494:	60 f4       	brcc	.+24     	; 0x4ae <__EEPROM_REGION_LENGTH__+0xae>
 496:	b6 01       	movw	r22, r12
 498:	80 e2       	ldi	r24, 0x20	; 32
 49a:	90 e0       	ldi	r25, 0x00	; 0
 49c:	0e 94 dd 04 	call	0x9ba	; 0x9ba <fputc>
 4a0:	1f 5f       	subi	r17, 0xFF	; 255
 4a2:	f7 cf       	rjmp	.-18     	; 0x492 <__EEPROM_REGION_LENGTH__+0x92>
 4a4:	10 17       	cp	r17, r16
 4a6:	18 f4       	brcc	.+6      	; 0x4ae <__EEPROM_REGION_LENGTH__+0xae>
 4a8:	01 1b       	sub	r16, r17
 4aa:	02 c0       	rjmp	.+4      	; 0x4b0 <__EEPROM_REGION_LENGTH__+0xb0>
 4ac:	b4 2c       	mov	r11, r4
 4ae:	00 e0       	ldi	r16, 0x00	; 0
 4b0:	a4 fe       	sbrs	r10, 4
 4b2:	10 c0       	rjmp	.+32     	; 0x4d4 <__EEPROM_REGION_LENGTH__+0xd4>
 4b4:	b6 01       	movw	r22, r12
 4b6:	80 e3       	ldi	r24, 0x30	; 48
 4b8:	90 e0       	ldi	r25, 0x00	; 0
 4ba:	0e 94 dd 04 	call	0x9ba	; 0x9ba <fputc>
 4be:	a2 fe       	sbrs	r10, 2
 4c0:	17 c0       	rjmp	.+46     	; 0x4f0 <__EEPROM_REGION_LENGTH__+0xf0>
 4c2:	a1 fc       	sbrc	r10, 1
 4c4:	03 c0       	rjmp	.+6      	; 0x4cc <__EEPROM_REGION_LENGTH__+0xcc>
 4c6:	88 e7       	ldi	r24, 0x78	; 120
 4c8:	90 e0       	ldi	r25, 0x00	; 0
 4ca:	02 c0       	rjmp	.+4      	; 0x4d0 <__EEPROM_REGION_LENGTH__+0xd0>
 4cc:	88 e5       	ldi	r24, 0x58	; 88
 4ce:	90 e0       	ldi	r25, 0x00	; 0
 4d0:	b6 01       	movw	r22, r12
 4d2:	0c c0       	rjmp	.+24     	; 0x4ec <__EEPROM_REGION_LENGTH__+0xec>
 4d4:	8a 2d       	mov	r24, r10
 4d6:	86 78       	andi	r24, 0x86	; 134
 4d8:	59 f0       	breq	.+22     	; 0x4f0 <__EEPROM_REGION_LENGTH__+0xf0>
 4da:	a1 fe       	sbrs	r10, 1
 4dc:	02 c0       	rjmp	.+4      	; 0x4e2 <__EEPROM_REGION_LENGTH__+0xe2>
 4de:	8b e2       	ldi	r24, 0x2B	; 43
 4e0:	01 c0       	rjmp	.+2      	; 0x4e4 <__EEPROM_REGION_LENGTH__+0xe4>
 4e2:	80 e2       	ldi	r24, 0x20	; 32
 4e4:	a7 fc       	sbrc	r10, 7
 4e6:	8d e2       	ldi	r24, 0x2D	; 45
 4e8:	b6 01       	movw	r22, r12
 4ea:	90 e0       	ldi	r25, 0x00	; 0
 4ec:	0e 94 dd 04 	call	0x9ba	; 0x9ba <fputc>
 4f0:	4b 14       	cp	r4, r11
 4f2:	38 f4       	brcc	.+14     	; 0x502 <__EEPROM_REGION_LENGTH__+0x102>
 4f4:	b6 01       	movw	r22, r12
 4f6:	80 e3       	ldi	r24, 0x30	; 48
 4f8:	90 e0       	ldi	r25, 0x00	; 0
 4fa:	0e 94 dd 04 	call	0x9ba	; 0x9ba <fputc>
 4fe:	ba 94       	dec	r11
 500:	f7 cf       	rjmp	.-18     	; 0x4f0 <__EEPROM_REGION_LENGTH__+0xf0>
 502:	4a 94       	dec	r4
 504:	e1 e0       	ldi	r30, 0x01	; 1
 506:	f0 e0       	ldi	r31, 0x00	; 0
 508:	ec 0f       	add	r30, r28
 50a:	fd 1f       	adc	r31, r29
 50c:	e4 0d       	add	r30, r4
 50e:	f1 1d       	adc	r31, r1
 510:	80 81       	ld	r24, Z
 512:	b6 01       	movw	r22, r12
 514:	90 e0       	ldi	r25, 0x00	; 0
 516:	0e 94 dd 04 	call	0x9ba	; 0x9ba <fputc>
 51a:	41 10       	cpse	r4, r1
 51c:	f2 cf       	rjmp	.-28     	; 0x502 <__EEPROM_REGION_LENGTH__+0x102>
 51e:	00 23       	and	r16, r16
 520:	09 f4       	brne	.+2      	; 0x524 <__EEPROM_REGION_LENGTH__+0x124>
 522:	30 ce       	rjmp	.-928    	; 0x184 <vfprintf+0x5e>
 524:	b6 01       	movw	r22, r12
 526:	80 e2       	ldi	r24, 0x20	; 32
 528:	90 e0       	ldi	r25, 0x00	; 0
 52a:	0e 94 dd 04 	call	0x9ba	; 0x9ba <fputc>
 52e:	01 50       	subi	r16, 0x01	; 1
 530:	f6 cf       	rjmp	.-20     	; 0x51e <__EEPROM_REGION_LENGTH__+0x11e>
 532:	f6 01       	movw	r30, r12
 534:	87 81       	ldd	r24, Z+7	; 0x07
 536:	90 85       	ldd	r25, Z+8	; 0x08
 538:	02 c0       	rjmp	.+4      	; 0x53e <__EEPROM_REGION_LENGTH__+0x13e>
 53a:	8f ef       	ldi	r24, 0xFF	; 255
 53c:	9f ef       	ldi	r25, 0xFF	; 255
 53e:	62 96       	adiw	r28, 0x12	; 18
 540:	0f b6       	in	r0, 0x3f	; 63
 542:	f8 94       	cli
 544:	de bf       	out	0x3e, r29	; 62
 546:	0f be       	out	0x3f, r0	; 63
 548:	cd bf       	out	0x3d, r28	; 61
 54a:	df 91       	pop	r29
 54c:	cf 91       	pop	r28
 54e:	1f 91       	pop	r17
 550:	0f 91       	pop	r16
 552:	ff 90       	pop	r15
 554:	ef 90       	pop	r14
 556:	df 90       	pop	r13
 558:	cf 90       	pop	r12
 55a:	bf 90       	pop	r11
 55c:	af 90       	pop	r10
 55e:	9f 90       	pop	r9
 560:	8f 90       	pop	r8
 562:	7f 90       	pop	r7
 564:	6f 90       	pop	r6
 566:	4f 90       	pop	r4
 568:	3f 90       	pop	r3
 56a:	2f 90       	pop	r2
 56c:	08 95       	ret

Disassembly of section .text.avrlibc:

00000dc6 <strnlen>:
 dc6:	cf 92       	push	r12
 dc8:	df 92       	push	r13
 dca:	ef 92       	push	r14
 dcc:	6b 01       	movw	r12, r22
 dce:	e8 2e       	mov	r14, r24
 dd0:	a8 2f       	mov	r26, r24
 dd2:	cb 01       	movw	r24, r22
 dd4:	41 15       	cp	r20, r1
 dd6:	51 05       	cpc	r21, r1
 dd8:	31 f4       	brne	.+12     	; 0xde6 <strnlen+0x20>
 dda:	8c 19       	sub	r24, r12
 ddc:	9d 09       	sbc	r25, r13
 dde:	ef 90       	pop	r14
 de0:	df 90       	pop	r13
 de2:	cf 90       	pop	r12
 de4:	08 95       	ret
 de6:	fc 01       	movw	r30, r24
 de8:	24 91       	lpm	r18, Z
 dea:	a7 fd       	sbrc	r26, 7
 dec:	20 81       	ld	r18, Z
 dee:	22 23       	and	r18, r18
 df0:	a1 f3       	breq	.-24     	; 0xdda <strnlen+0x14>
 df2:	01 96       	adiw	r24, 0x01	; 1
 df4:	a1 1d       	adc	r26, r1
 df6:	41 50       	subi	r20, 0x01	; 1
 df8:	51 09       	sbc	r21, r1
 dfa:	ec cf       	rjmp	.-40     	; 0xdd4 <strnlen+0xe>

Disassembly of section .text.avrlibc:

000009ba <fputc>:
 9ba:	0f 93       	push	r16
 9bc:	1f 93       	push	r17
 9be:	cf 93       	push	r28
 9c0:	df 93       	push	r29
 9c2:	fb 01       	movw	r30, r22
 9c4:	24 81       	ldd	r18, Z+4	; 0x04
 9c6:	21 fd       	sbrc	r18, 1
 9c8:	03 c0       	rjmp	.+6      	; 0x9d0 <fputc+0x16>
 9ca:	8f ef       	ldi	r24, 0xFF	; 255
 9cc:	9f ef       	ldi	r25, 0xFF	; 255
 9ce:	2c c0       	rjmp	.+88     	; 0xa28 <fputc+0x6e>
 9d0:	22 ff       	sbrs	r18, 2
 9d2:	16 c0       	rjmp	.+44     	; 0xa00 <fputc+0x46>
 9d4:	47 81       	ldd	r20, Z+7	; 0x07
 9d6:	50 85       	ldd	r21, Z+8	; 0x08
 9d8:	25 81       	ldd	r18, Z+5	; 0x05
 9da:	36 81       	ldd	r19, Z+6	; 0x06
 9dc:	42 17       	cp	r20, r18
 9de:	53 07       	cpc	r21, r19
 9e0:	44 f4       	brge	.+16     	; 0x9f2 <fputc+0x38>
 9e2:	a0 81       	ld	r26, Z
 9e4:	b1 81       	ldd	r27, Z+1	; 0x01
 9e6:	9d 01       	movw	r18, r26
 9e8:	2f 5f       	subi	r18, 0xFF	; 255
 9ea:	3f 4f       	sbci	r19, 0xFF	; 255
 9ec:	31 83       	std	Z+1, r19	; 0x01
 9ee:	20 83       	st	Z, r18
 9f0:	8c 93       	st	X, r24
 9f2:	27 81       	ldd	r18, Z+7	; 0x07
 9f4:	30 85       	ldd	r19, Z+8	; 0x08
 9f6:	2f 5f       	subi	r18, 0xFF	; 255
 9f8:	3f 4f       	sbci	r19, 0xFF	; 255
 9fa:	30 87       	std	Z+8, r19	; 0x08
 9fc:	27 83       	std	Z+7, r18	; 0x07
 9fe:	14 c0       	rjmp	.+40     	; 0xa28 <fputc+0x6e>
 a00:	8b 01       	movw	r16, r22
 a02:	ec 01       	movw	r28, r24
 a04:	fb 01       	movw	r30, r22
 a06:	01 84       	ldd	r0, Z+9	; 0x09
 a08:	f2 85       	ldd	r31, Z+10	; 0x0a
 a0a:	e0 2d       	mov	r30, r0
 a0c:	09 95       	icall
 a0e:	89 2b       	or	r24, r25
 a10:	e1 f6       	brne	.-72     	; 0x9ca <fputc+0x10>
 a12:	d8 01       	movw	r26, r16
 a14:	17 96       	adiw	r26, 0x07	; 7
 a16:	8d 91       	ld	r24, X+
 a18:	9c 91       	ld	r25, X
 a1a:	18 97       	sbiw	r26, 0x08	; 8
 a1c:	01 96       	adiw	r24, 0x01	; 1
 a1e:	18 96       	adiw	r26, 0x08	; 8
 a20:	9c 93       	st	X, r25
 a22:	8e 93       	st	-X, r24
 a24:	17 97       	sbiw	r26, 0x07	; 7
 a26:	ce 01       	movw	r24, r28
 a28:	df 91       	pop	r29
 a2a:	cf 91       	pop	r28
 a2c:	1f 91       	pop	r17
 a2e:	0f 91       	pop	r16
 a30:	08 95       	ret

Disassembly of section .text.avrlibc:

000007ee <__ultoa_invert>:
 7ee:	fa 01       	movw	r30, r20
 7f0:	aa 27       	eor	r26, r26
 7f2:	28 30       	cpi	r18, 0x08	; 8
 7f4:	51 f1       	breq	.+84     	; 0x84a <__DATA_REGION_LENGTH__+0x4a>
 7f6:	20 31       	cpi	r18, 0x10	; 16
 7f8:	81 f1       	breq	.+96     	; 0x85a <__DATA_REGION_LENGTH__+0x5a>
 7fa:	e8 94       	clt
 7fc:	6f 93       	push	r22
 7fe:	6e 7f       	andi	r22, 0xFE	; 254
 800:	6e 5f       	subi	r22, 0xFE	; 254
 802:	7f 4f       	sbci	r23, 0xFF	; 255
 804:	8f 4f       	sbci	r24, 0xFF	; 255
 806:	9f 4f       	sbci	r25, 0xFF	; 255
 808:	af 4f       	sbci	r26, 0xFF	; 255
 80a:	b1 e0       	ldi	r27, 0x01	; 1
 80c:	3e d0       	rcall	.+124    	; 0x88a <__DATA_REGION_LENGTH__+0x8a>
 80e:	b4 e0       	ldi	r27, 0x04	; 4
 810:	3c d0       	rcall	.+120    	; 0x88a <__DATA_REGION_LENGTH__+0x8a>
 812:	67 0f       	add	r22, r23
 814:	78 1f       	adc	r23, r24
 816:	89 1f       	adc	r24, r25
 818:	9a 1f       	adc	r25, r26
 81a:	a1 1d       	adc	r26, r1
 81c:	68 0f       	add	r22, r24
 81e:	79 1f       	adc	r23, r25
 820:	8a 1f       	adc	r24, r26
 822:	91 1d       	adc	r25, r1
 824:	a1 1d       	adc	r26, r1
 826:	6a 0f       	add	r22, r26
 828:	71 1d       	adc	r23, r1
 82a:	81 1d       	adc	r24, r1
 82c:	91 1d       	adc	r25, r1
 82e:	a1 1d       	adc	r26, r1
 830:	20 d0       	rcall	.+64     	; 0x872 <__DATA_REGION_LENGTH__+0x72>
 832:	09 f4       	brne	.+2      	; 0x836 <__DATA_REGION_LENGTH__+0x36>
 834:	68 94       	set
 836:	3f 91       	pop	r19
 838:	2a e0       	ldi	r18, 0x0A	; 10
 83a:	26 9f       	mul	r18, r22
 83c:	11 24       	eor	r1, r1
 83e:	30 19       	sub	r19, r0
 840:	30 5d       	subi	r19, 0xD0	; 208
 842:	31 93       	st	Z+, r19
 844:	de f6       	brtc	.-74     	; 0x7fc <__ultoa_invert+0xe>
 846:	cf 01       	movw	r24, r30
 848:	08 95       	ret
 84a:	46 2f       	mov	r20, r22
 84c:	47 70       	andi	r20, 0x07	; 7
 84e:	40 5d       	subi	r20, 0xD0	; 208
 850:	41 93       	st	Z+, r20
 852:	b3 e0       	ldi	r27, 0x03	; 3
 854:	0f d0       	rcall	.+30     	; 0x874 <__DATA_REGION_LENGTH__+0x74>
 856:	c9 f7       	brne	.-14     	; 0x84a <__DATA_REGION_LENGTH__+0x4a>
 858:	f6 cf       	rjmp	.-20     	; 0x846 <__DATA_REGION_LENGTH__+0x46>
 85a:	46 2f       	mov	r20, r22
 85c:	4f 70       	andi	r20, 0x0F	; 15
 85e:	40 5d       	subi	r20, 0xD0	; 208
 860:	4a 33       	cpi	r20, 0x3A	; 58
 862:	18 f0       	brcs	.+6      	; 0x86a <__DATA_REGION_LENGTH__+0x6a>
 864:	49 5d       	subi	r20, 0xD9	; 217
 866:	31 fd       	sbrc	r19, 1
 868:	40 52       	subi	r20, 0x20	; 32
 86a:	41 93       	st	Z+, r20
 86c:	02 d0       	rcall	.+4      	; 0x872 <__DATA_REGION_LENGTH__+0x72>
 86e:	a9 f7       	brne	.-22     	; 0x85a <__DATA_REGION_LENGTH__+0x5a>
 870:	ea cf       	rjmp	.-44     	; 0x846 <__DATA_REGION_LENGTH__+0x46>
 872:	b4 e0       	ldi	r27, 0x04	; 4
 874:	a6 95       	lsr	r26
 876:	97 95       	ror	r25
 878:	87 95       	ror	r24
 87a:	77 95       	ror	r23
 87c:	67 95       	ror	r22
 87e:	ba 95       	dec	r27
 880:	c9 f7       	brne	.-14     	; 0x874 <__DATA_REGION_LENGTH__+0x74>
 882:	00 97       	sbiw	r24, 0x00	; 0
 884:	61 05       	cpc	r22, r1
 886:	71 05       	cpc	r23, r1
 888:	08 95       	ret
 88a:	9b 01       	movw	r18, r22
 88c:	ac 01       	movw	r20, r24
 88e:	0a 2e       	mov	r0, r26
 890:	06 94       	lsr	r0
 892:	57 95       	ror	r21
 894:	47 95       	ror	r20
 896:	37 95       	ror	r19
 898:	27 95       	ror	r18
 89a:	ba 95       	dec	r27
 89c:	c9 f7       	brne	.-14     	; 0x890 <__DATA_REGION_LENGTH__+0x90>
 89e:	62 0f       	add	r22, r18
 8a0:	73 1f       	adc	r23, r19
 8a2:	84 1f       	adc	r24, r20
 8a4:	95 1f       	adc	r25, r21
 8a6:	a0 1d       	adc	r26, r0
 8a8:	08 95       	ret

Disassembly of section .text.libgcc.prologue:

00000d8e <__prologue_saves__>:
 d8e:	2f 92       	push	r2
 d90:	3f 92       	push	r3
 d92:	4f 92       	push	r4
 d94:	5f 92       	push	r5
 d96:	6f 92       	push	r6
 d98:	7f 92       	push	r7
 d9a:	8f 92       	push	r8
 d9c:	9f 92       	push	r9
 d9e:	af 92       	push	r10
 da0:	bf 92       	push	r11
 da2:	cf 92       	push	r12
 da4:	df 92       	push	r13
 da6:	ef 92       	push	r14
 da8:	ff 92       	push	r15
 daa:	0f 93       	push	r16
 dac:	1f 93       	push	r17
 dae:	cf 93       	push	r28
 db0:	df 93       	push	r29
 db2:	cd b7       	in	r28, 0x3d	; 61
 db4:	de b7       	in	r29, 0x3e	; 62
 db6:	ca 1b       	sub	r28, r26
 db8:	db 0b       	sbc	r29, r27
 dba:	0f b6       	in	r0, 0x3f	; 63
 dbc:	f8 94       	cli
 dbe:	de bf       	out	0x3e, r29	; 62
 dc0:	0f be       	out	0x3f, r0	; 63
 dc2:	cd bf       	out	0x3d, r28	; 61
 dc4:	09 94       	ijmp

Disassembly of section .text.libgcc.prologue:

00000dfc <__epilogue_restores__>:
 dfc:	2a 88       	ldd	r2, Y+18	; 0x12
 dfe:	39 88       	ldd	r3, Y+17	; 0x11
 e00:	48 88       	ldd	r4, Y+16	; 0x10
 e02:	5f 84       	ldd	r5, Y+15	; 0x0f
 e04:	6e 84       	ldd	r6, Y+14	; 0x0e
 e06:	7d 84       	ldd	r7, Y+13	; 0x0d
 e08:	8c 84       	ldd	r8, Y+12	; 0x0c
 e0a:	9b 84       	ldd	r9, Y+11	; 0x0b
 e0c:	aa 84       	ldd	r10, Y+10	; 0x0a
 e0e:	b9 84       	ldd	r11, Y+9	; 0x09
 e10:	c8 84       	ldd	r12, Y+8	; 0x08
 e12:	df 80       	ldd	r13, Y+7	; 0x07
 e14:	ee 80       	ldd	r14, Y+6	; 0x06
 e16:	fd 80       	ldd	r15, Y+5	; 0x05
 e18:	0c 81       	ldd	r16, Y+4	; 0x04
 e1a:	1b 81       	ldd	r17, Y+3	; 0x03
 e1c:	aa 81       	ldd	r26, Y+2	; 0x02
 e1e:	b9 81       	ldd	r27, Y+1	; 0x01
 e20:	ce 0f       	add	r28, r30
 e22:	d1 1d       	adc	r29, r1
 e24:	0f b6       	in	r0, 0x3f	; 63
 e26:	f8 94       	cli
 e28:	de bf       	out	0x3e, r29	; 62
 e2a:	0f be       	out	0x3f, r0	; 63
 e2c:	cd bf       	out	0x3d, r28	; 61
 e2e:	ed 01       	movw	r28, r26
 e30:	08 95       	ret
